(dp0
S'Text'
p1
S'https://t.co/Vhndo14OVi #6403 OtterBox Commuter Wallet Hard Shell Snap Case w/ID Card Slot fo iPhone 6/6S 4.7" https://t.co/c2UbQaIkdL'
p2
sS'Created At'
p3
S'2015-11-28 22:09:33'
p4
s.(dp0
S'Text'
p1
S'RT @UberFacts: George Hotz, a 17-year-old hacker, was the first to unlock a first generation iPhone\xe2\x80\x94he traded it for a Nissan 350z and 3 lo\xe2\x80\xa6'
p2
sS'Created At'
p3
S'2015-11-28 22:09:34'
p4
s.(dp0
S'Text'
p1
S'Latest Bargain: APPLE IPHONE 5S 16GB SPACE GREY 4G UNLOCKED SIM FREE PHONE GRADE A https://t.co/HLbc83lnjj'
p2
sS'Created At'
p3
S'2015-11-28 22:09:34'
p4
s.(dp0
S'Text'
p1
S'RT @OplaRahman: Jailbreak iOS 9 Guide - https://t.co/ta4AZ0KVJV https://t.co/RA0edTUs6k'
p2
sS'Created At'
p3
S'2015-11-28 22:09:34'
p4
s.(dp0
S'Text'
p1
S'#Iphone 7 Features\xc2\xa0News https://t.co/555NitRqMl'
p2
sS'Created At'
p3
S'2015-11-28 22:09:34'
p4
s.(dp0
S'Text'
p1
S'RT @RyanMcCready1: Check Out 18 Awesome New iPhone 6 Cases That Should Be On Your Holiday Lists - https://t.co/0P28O1fEhk #iphone #startup \xe2\x80\xa6'
p2
sS'Created At'
p3
S'2015-11-28 22:09:34'
p4
s.(dp0
S'Text'
p1
S'https://t.co/7KExMCKxjI #9929 Otterbox Defender Series Wild Orchard Shell Case for Apple iPhone 5C OEM New https://t.co/wfDj9m5gLJ'
p2
sS'Created At'
p3
S'2015-11-28 22:09:34'
p4
s.(dp0
S'Text'
p1
S'Only a fifth of Americans currently trust the federal government or think it is well run https://t.co/kqze81irtw cc @4PublicImpact'
p2
sS'Created At'
p3
S'2015-11-28 22:09:35'
p4
s.(dp0
S'Text'
p1
S'https://t.co/iIXRq1nymi #3572 Shockproof Aluminum Glass Metal Case Cover for iPhone 5s 6 &amp; 6 Plus https://t.co/Tw7bmQj4Bp'
p2
sS'Created At'
p3
S'2015-11-28 22:09:35'
p4
s.(dp0
S'Text'
p1
S'https://t.co/iIXRq1nymi #3949 Shockproof Aluminum Glass Metal Case Cover for iPhone 5s 6 &amp; 6 Plus https://t.co/8PfLJlaT0N'
p2
sS'Created At'
p3
S'2015-11-28 22:09:36'
p4
s.(dp0
S'Text'
p1
S'I want the rose gold iPhone 6s'
p2
sS'Created At'
p3
S'2015-11-28 22:09:36'
p4
s.(dp0
S'Text'
p1
S'#10BillionWives \nI married3,223,109,314,920Wives!\n\niOS: https://t.co/X7DSZRFtsD\nAndroid: https://t.co/GttS0l71b2 https://t.co/9PQ6DVejFF'
p2
sS'Created At'
p3
S'2015-11-28 22:09:36'
p4
s.(dp0
S'Text'
p1
S'https://t.co/iIXRq1nymi #8072 Shockproof Aluminum Glass Metal Case Cover for iPhone 5s 6 &amp; 6 Plus https://t.co/HvAmrgZdz2'
p2
sS'Created At'
p3
S'2015-11-28 22:09:36'
p4
s.(dp0
S'Text'
p1
S'RT @UberFacts: George Hotz, a 17-year-old hacker, was the first to unlock a first generation iPhone\xe2\x80\x94he traded it for a Nissan 350z and 3 lo\xe2\x80\xa6'
p2
sS'Created At'
p3
S'2015-11-28 22:09:36'
p4
s.(dp0
S'Text'
p1
S'@UnboxTherapy  did you give the iPhone 6s way yet'
p2
sS'Created At'
p3
S'2015-11-28 22:09:37'
p4
s.(dp0
S'Text'
p1
S'RT @JuugTalk: Now Playing Feel Trip Mixtape by M-A via @DatPiff for iOS https://t.co/123zTr0mqN'
p2
sS'Created At'
p3
S'2015-11-28 22:09:37'
p4
s.(dp0
S'Text'
p1
S'https://t.co/zlWWVLHAA8 #2942 GHOSTEK\xc2\xae CLOAK SLIM SHOCKPROOF ALUMINUM ARMOR METAL CASE FOR APPLE IPHONE 6S 6 https://t.co/Ps9kMQPBY2'
p2
sS'Created At'
p3
S'2015-11-28 22:09:37'
p4
s.(dp0
S'Text'
p1
S'Having fun playing #CSRRacing for iOS, why not join me for FREE?\nhttps://t.co/rZrpdWlLKF'
p2
sS'Created At'
p3
S'2015-11-28 22:09:38'
p4
s.(dp0
S'Text'
p1
S'https://t.co/PClK9YstBe #2860 New Speck Apple iPhone 6/6s CandyShell Grip Case Cover Shadow Blue/Nickle Gray https://t.co/NOaDu0FkVk'
p2
sS'Created At'
p3
S'2015-11-28 22:09:38'
p4
s.(dp0
S'Text'
p1
S'Apple iPhone 5 - 16GB - Black &amp; Slate (Unlocked) Smartphone - Bid Now! Only $44.0 https://t.co/19Tjef43Mj https://t.co/N2br04SVhe'
p2
sS'Created At'
p3
S'2015-11-28 22:09:38'
p4
s.(dp0
S'Text'
p1
S'https://t.co/7rh3eYuoqG #9338 OtterBox Commuter Series Case for Apple IPhone 5C Assorted Colors https://t.co/pwCF5UYemd'
p2
sS'Created At'
p3
S'2015-11-28 22:09:39'
p4
s.(dp0
S'Text'
p1
S'Apple iPhone 5 - 64GB - Black &amp; Slate (AT&amp;T) Smartphone Great Shape! - Bid Now! Only $56.0 https://t.co/vGJWHi5QXe https://t.co/3FdsleJPO0'
p2
sS'Created At'
p3
S'2015-11-28 22:09:39'
p4
s.(dp0
S'Text'
p1
S'Does anyone know of any way I can buy or just watch the fight on my iPhone?'
p2
sS'Created At'
p3
S'2015-11-28 22:09:39'
p4
s.(dp0
S'Text'
p1
S'https://t.co/LfhXZRIpNw #7191 GHOSTEK\xc2\xae CLOAK SLIM SHOCKPROOF ALUMINUM ARMOR METAL CASE FOR APPLE IPHONE 6S 6 https://t.co/p2eBLAup9f'
p2
sS'Created At'
p3
S'2015-11-28 22:09:39'
p4
s.(dp0
S'Text'
p1
S'Apple iPhone 5s - 64GB - Silver (AT&amp;T) Smartphone / with Many Extras! - Bid Now! Only $326\xe2\x80\xa6 https://t.co/P2WH6473Ck https://t.co/ESctSS3mx5'
p2
sS'Created At'
p3
S'2015-11-28 22:09:39'
p4
s.(dp0
S'Text'
p1
S'Unlocked Apple iPhone 5 - 32GB - White &amp; Silver (AT&amp;T) With Extras!!! - Bid Now! Only $135\xe2\x80\xa6 https://t.co/HM2hrAPt6C https://t.co/fOYIWZJMFY'
p2
sS'Created At'
p3
S'2015-11-28 22:09:40'
p4
s.(dp0
S'Text'
p1
S'IOS DAKeno HD V 1.2.0 IPA Free Download - https://t.co/k3e3RO3hTd https://t.co/oHUqdtFcAp'
p2
sS'Created At'
p3
S'2015-11-28 22:09:40'
p4
s.(dp0
S'Text'
p1
S'17 awesome users just followed me. Via @FindUnfollower https://t.co/Yea5g3gxwn. #iPhone #App'
p2
sS'Created At'
p3
S'2015-11-28 22:09:41'
p4
s.(dp0
S'Text'
p1
S'Apple iPhone 5c - 16GB - Green (Virgin Mobile) Smartphone - Bid Now! Only $327.0 https://t.co/2ZZVuLVZb0 https://t.co/KiVECKiwjh'
p2
sS'Created At'
p3
S'2015-11-28 22:09:41'
p4
s.(dp0
S'Text'
p1
S'Having fun playing #CSRRacing for iOS, why not join me for FREE?\nhttps://t.co/4pjSTkTSvx'
p2
sS'Created At'
p3
S'2015-11-28 22:09:41'
p4
s.(dp0
S'Text'
p1
S'Apple Unveils iPhone 6S And 6S Plus With 3D Touch https://t.co/4n0IqK0VFV'
p2
sS'Created At'
p3
S'2015-11-28 22:09:45'
p4
s.(dp0
S'Text'
p1
S'Iphone 6 https://t.co/UBqQFFxXDx'
p2
sS'Created At'
p3
S'2015-11-28 22:09:45'
p4
s.(dp0
S'Text'
p1
S'Having fun playing #CSRRacing for iOS, why not join me for FREE?\nhttps://t.co/b6bJrMyM2O'
p2
sS'Created At'
p3
S'2015-11-28 22:09:45'
p4
s.(dp0
S'Text'
p1
S'Saturday Afternoon Blab w/ @KillaKev41 https://t.co/QPh9pyiRxn #blab'
p2
sS'Created At'
p3
S'2015-11-28 22:09:47'
p4
s.(dp0
S'Text'
p1
S'RT @UberFacts: George Hotz, a 17-year-old hacker, was the first to unlock a first generation iPhone\xe2\x80\x94he traded it for a Nissan 350z and 3 lo\xe2\x80\xa6'
p2
sS'Created At'
p3
S'2015-11-28 22:09:48'
p4
s.(dp0
S'Text'
p1
S'RT @UberFacts: George Hotz, a 17-year-old hacker, was the first to unlock a first generation iPhone\xe2\x80\x94he traded it for a Nissan 350z and 3 lo\xe2\x80\xa6'
p2
sS'Created At'
p3
S'2015-11-28 22:09:48'
p4
s.(dp0
S'Text'
p1
S"@HPBizNow you liked us before so you'll love us now! check out the new Few available on iOS https://t.co/lrqWXhJYzm #fewerisbetter"
p2
sS'Created At'
p3
S'2015-11-28 22:09:49'
p4
s.(dp0
S'Text'
p1
S'5 users just unfollowed me. Via @FindUnfollower https://t.co/OMPhpMzwJJ. #iPhone #App'
p2
sS'Created At'
p3
S'2015-11-28 22:09:50'
p4
s.(dp0
S'Text'
p1
S'RT @UberFacts: George Hotz, a 17-year-old hacker, was the first to unlock a first generation iPhone\xe2\x80\x94he traded it for a Nissan 350z and 3 lo\xe2\x80\xa6'
p2
sS'Created At'
p3
S'2015-11-28 22:09:50'
p4
s.(dp0
S'Text'
p1
S'RT @UberFacts: George Hotz, a 17-year-old hacker, was the first to unlock a first generation iPhone\xe2\x80\x94he traded it for a Nissan 350z and 3 lo\xe2\x80\xa6'
p2
sS'Created At'
p3
S'2015-11-28 22:09:52'
p4
s.(dp0
S'Text'
p1
S"@JohnMatar77 and if I didn't say why. Because of yo iPhone 6+.\xf0\x9f\x98\xa3"
p2
sS'Created At'
p3
S'2015-11-28 22:09:52'
p4
s.(dp0
S'Text'
p1
S'RT @iPhoneTeam: iPhone parts explained in simple English https://t.co/vI2utEiZiV'
p2
sS'Created At'
p3
S'2015-11-28 22:09:52'
p4
s.(dp0
S'Text'
p1
S'New post: https://t.co/LbcI0m3xnz Updates iOS App With Apple Pay Support https://t.co/btg9EqwQFt'
p2
sS'Created At'
p3
S'2015-11-28 22:09:52'
p4
s.(dp0
S'Text'
p1
S"@matejp23 or the smaller one 5x. I've always had iPhone but if I did make the change that's the only way to go. My colleagues rate it"
p2
sS'Created At'
p3
S'2015-11-28 22:09:53'
p4
s.(dp0
S'Text'
p1
S'I got a reward: Famed in BigBusiness Deluxe for iOS https://t.co/kcbQNZHvxh #iPhoneGames #GameInsight #iPhone'
p2
sS'Created At'
p3
S'2015-11-28 22:09:53'
p4
s.(dp0
S'Text'
p1
S'RT @verge: India is still the biggest untapped opportunity for Apple https://t.co/v7rpKw1kga https://t.co/v2WaRWmTdI'
p2
sS'Created At'
p3
S'2015-11-28 22:09:53'
p4
s.(dp0
S'Text'
p1
S'I got a reward: Noticeable in BigBusiness Deluxe for iOS https://t.co/pZhk8iIf3G #GameInsight #iPhoneGames #iPhone'
p2
sS'Created At'
p3
S'2015-11-28 22:09:54'
p4
s.(dp0
S'Text'
p1
S'RT @giftcardis: Your iPhone 6 is waiting now! https://t.co/sjwBU5DjMH https://t.co/4FnxELfcnP'
p2
sS'Created At'
p3
S'2015-11-28 22:09:55'
p4
s.(dp0
S'Text'
p1
S'RT @OplaRahman: Jailbreak iOS 9 Guide - https://t.co/ta4AZ0KVJV https://t.co/RA0edTUs6k'
p2
sS'Created At'
p3
S'2015-11-28 22:09:56'
p4
s.(dp0
S'Text'
p1
S'Feel As Being Celebrity With Apple Iphone\xc2\xa04 https://t.co/J5R8MZOu8m https://t.co/lmRoHqQWFb'
p2
sS'Created At'
p3
S'2015-11-28 22:09:56'
p4
s.(dp0
S'Text'
p1
S'RT @ShitChallenge: @ShitChallenge start the next step!\nGet an iPhone for free!*\nVisit: https://t.co/26lOKqRqLN https://t.co/A5ObkoNi5O'
p2
sS'Created At'
p3
S'2015-11-28 22:09:57'
p4
s.(dp0
S'Text'
p1
S'earthfalcon33: postplus_macapp: https://t.co/7ZdcYkwoIx Advance your contacts in #iphone #ios #iphoneapp #appstore 15'
p2
sS'Created At'
p3
S'2015-11-28 22:09:57'
p4
s.(dp0
S'Text'
p1
S'earthfalcon33: appstoregames06: https://t.co/7ZdcYkwoIx Advance your contacts in #iphone #ios #iphoneapp #appstore 15'
p2
sS'Created At'
p3
S'2015-11-28 22:09:58'
p4
s.(dp0
S'Text'
p1
S'RT @OplaRahman: Jailbreak iOS 9 Guide - https://t.co/ta4AZ0KVJV https://t.co/RA0edTUs6k'
p2
sS'Created At'
p3
S'2015-11-28 22:09:58'
p4
s.(dp0
S'Text'
p1
S'maxxpowerss8: RT earthfalcon33: postplus_macapp: https://t.co/Ec8ohifBe7; Advance your contacts in #iphone #ios #iphoneapp #appstore 15'
p2
sS'Created At'
p3
S'2015-11-28 22:09:58'
p4
s.(dp0
S'Text'
p1
S'#Iphone 7 Features\xc2\xa0News https://t.co/4xt0oxK5ki'
p2
sS'Created At'
p3
S'2015-11-28 22:09:58'
p4
s.(dp0
S'Text'
p1
S'Having fun playing #CSRRacing for iOS, why not join me for FREE?\nhttps://t.co/AXJr0RMbHJ'
p2
sS'Created At'
p3
S'2015-11-28 22:09:58'
p4
s.(dp0
S'Text'
p1
S'maxxpowerss8: RT earthfalcon33: appstoregames06: https://t.co/Ec8ohifBe7; Advance your contacts in #iphone #ios #iphoneapp #appstore 15'
p2
sS'Created At'
p3
S'2015-11-28 22:09:58'
p4
s.(dp0
S'Text'
p1
S'Apple Iphone Contract \xe2\x80\x93 Best Method To Buy A\xc2\xa0Smartphone https://t.co/s65rfSapNf https://t.co/Lcf3pzcBGU'
p2
sS'Created At'
p3
S'2015-11-28 22:09:58'
p4
s.(dp0
S'Text'
p1
S'Apple Black Friday Deals: Offers On \xe2\x80\x98iPhone 6S\xe2\x80\x99 From Best Buy, Target And Walmart: Apple Black Friday... https://t.co/gr1IUCMEcA #iPhone6'
p2
sS'Created At'
p3
S'2015-11-28 22:09:59'
p4
s.(dp0
S'Text'
p1
S'mobileappgames1: RT earthfalcon33: appstoregames06: https://t.co/0nyMHJSKyK; Replace the native music app in #iphone #ios #iphoneapp #appst\xe2\x80\xa6'
p2
sS'Created At'
p3
S'2015-11-28 22:09:59'
p4
s.(dp0
S'Text'
p1
S'Apple iPhone 7 To Sport Waterproof Capability, 3 GB RAM; Release Expected September 2016: Similar to ... https://t.co/BENgY1vtZ1 #iPhone6'
p2
sS'Created At'
p3
S'2015-11-28 22:09:59'
p4
s.(dp0
S'Text'
p1
S"I'm earning #mPLUSRewards in Helium Rush iOS. https://t.co/77u5HZGqn6 @GROmGameStudio"
p2
sS'Created At'
p3
S'2015-11-28 22:09:59'
p4
s.(dp0
S'Text'
p1
S'Apple sells 10 million iPhone 6 and iPhone 6 Pluses: The model is talking about booking her latest gi... https://t.co/5VLrGz7u3R #iPhone6'
p2
sS'Created At'
p3
S'2015-11-28 22:09:59'
p4
s.(dp0
S'Text'
p1
S'mobileappgames1: maxxpowerss8: RT earthfalcon33: appstoregames06: https://t.co/0nyMHJSKyK; Replace the native music app in #iphone #ios #ip\xe2\x80\xa6'
p2
sS'Created At'
p3
S'2015-11-28 22:09:59'
p4
s.(dp0
S'Text'
p1
S'mobileappgames1: https://t.co/7ZdcYkwoIx Advance your contacts in #iphone #ios #iphoneapp #appstore 15'
p2
sS'Created At'
p3
S'2015-11-28 22:10:00'
p4
s.(dp0
S'Text'
p1
S'You can thank me later \n\nPerfect quality link to the fight on IOS or mobile\n\nhttps://t.co/An1OPjyVyv'
p2
sS'Created At'
p3
S'2015-11-28 22:10:00'
p4
s.(dp0
S'Text'
p1
S'mobileappgames1: postplus_macapp: https://t.co/7ZdcYkwoIx Advance your contacts in #iphone #ios #iphoneapp #appstore 15'
p2
sS'Created At'
p3
S'2015-11-28 22:10:00'
p4
s.(dp0
S'Text'
p1
S'mobileappgames1: appstoregames06: https://t.co/7ZdcYkwoIx Advance your contacts in #iphone #ios #iphoneapp #appstore 15'
p2
sS'Created At'
p3
S'2015-11-28 22:10:00'
p4
s.(dp0
S'Text'
p1
S'I got a reward: Without Complexes! in BigBusiness Deluxe for iOS https://t.co/71uQkP5YFZ #GameInsight #iPhoneGames #iPhone'
p2
sS'Created At'
p3
S'2015-11-28 22:10:00'
p4
s.(dp0
S'Text'
p1
S'mobileappgames1: RT earthfalcon33: postplus_macapp: https://t.co/Ec8ohifBe7; Advance your contacts in #iphone #ios #iphoneapp #appstore 15'
p2
sS'Created At'
p3
S'2015-11-28 22:10:01'
p4
s.(dp0
S'Text'
p1
S'Is the iPhone 6s worth 1000?\xf0\x9f\x98\x9f\xf0\x9f\xa4\x94'
p2
sS'Created At'
p3
S'2015-11-28 22:10:01'
p4
s.(dp0
S'Text'
p1
S'Peng tings on my whatsapp and my iPhone aswell lol'
p2
sS'Created At'
p3
S'2015-11-28 22:10:01'
p4
s.(dp0
S'Text'
p1
S'RT @UberFacts: George Hotz, a 17-year-old hacker, was the first to unlock a first generation iPhone\xe2\x80\x94he traded it for a Nissan 350z and 3 lo\xe2\x80\xa6'
p2
sS'Created At'
p3
S'2015-11-28 22:10:01'
p4
s.(dp0
S'Text'
p1
S'mobileappgames1: RT earthfalcon33: appstoregames06: https://t.co/Ec8ohifBe7; Advance your contacts in #iphone #ios #iphoneapp #appstore 15'
p2
sS'Created At'
p3
S'2015-11-28 22:10:01'
p4
s.(dp0
S'Text'
p1
S'androidgames06: RT earthfalcon33: appstoregames06: https://t.co/0nyMHJSKyK; Replace the native music app in #iphone #ios #iphoneapp #appsto\xe2\x80\xa6'
p2
sS'Created At'
p3
S'2015-11-28 22:10:01'
p4
s.(dp0
S'Text'
p1
S'androidgames06: maxxpowerss8: RT earthfalcon33: appstoregames06: https://t.co/0nyMHJSKyK; Replace the native music app in #iphone #ios #iph\xe2\x80\xa6'
p2
sS'Created At'
p3
S'2015-11-28 22:10:02'
p4
s.(dp0
S'Text'
p1
S'androidgames06: https://t.co/7ZdcYkwoIx Advance your contacts in #iphone #ios #iphoneapp #appstore 15'
p2
sS'Created At'
p3
S'2015-11-28 22:10:02'
p4
s.(dp0
S'Text'
p1
S'androidgames06: postplus_macapp: https://t.co/7ZdcYkwoIx Advance your contacts in #iphone #ios #iphoneapp #appstore 15'
p2
sS'Created At'
p3
S'2015-11-28 22:10:02'
p4
s.(dp0
S'Text'
p1
S'androidgames06: appstoregames06: https://t.co/7ZdcYkwoIx Advance your contacts in #iphone #ios #iphoneapp #appstore 15'
p2
sS'Created At'
p3
S'2015-11-28 22:10:03'
p4
s.(dp0
S'Text'
p1
S'androidgames06: RT earthfalcon33: postplus_macapp: https://t.co/Ec8ohifBe7; Advance your contacts in #iphone #ios #iphoneapp #appstore 15'
p2
sS'Created At'
p3
S'2015-11-28 22:10:03'
p4
s.(dp0
S'Text'
p1
S'androidgames06: RT earthfalcon33: appstoregames06: https://t.co/Ec8ohifBe7; Advance your contacts in #iphone #ios #iphoneapp #appstore 15'
p2
sS'Created At'
p3
S'2015-11-28 22:10:03'
p4
s.(dp0
S'Text'
p1
S'RT @th8rt: Wordly! Games Word iPhone App **** $2.99 -&amp;gt; FREE #Games #Word... https://t.co/glXTO2t6bF'
p2
sS'Created At'
p3
S'2015-11-28 22:10:03'
p4
s.(dp0
S'Text'
p1
S'RT @free24apps: DefCom TD Games Action iPhone App **** $0.99 -&gt; FREE #Games #Action 9+ #iPhone #App #iOS https://t.co/9PtGQWiWbS https://t.\xe2\x80\xa6'
p2
sS'Created At'
p3
S'2015-11-28 22:10:04'
p4
s.(dp0
S'Text'
p1
S'@Igby_tweets\xc2\xa1\xc2\xa1 Sign up FREE from your mobile to WIN a iPhone 6S !! Click here : https://t.co/RLlY9q59MM  GOOD LUCK!!'
p2
sS'Created At'
p3
S'2015-11-28 22:10:04'
p4
s.(dp0
S'Text'
p1
S'@deAndradeDan\xc2\xa1\xc2\xa1 Sign up FREE from your mobile to WIN a iPhone 6S !! Click here : https://t.co/LzStTlJcSF GOOD LUCK!!'
p2
sS'Created At'
p3
S'2015-11-28 22:10:04'
p4
s.(dp0
S'Text'
p1
S'iPhone 7 release date, specs: Apple to use OLED display for iPhones https://t.co/LUUCs7581e'
p2
sS'Created At'
p3
S'2015-11-28 22:10:05'
p4
s.(dp0
S'Text'
p1
S'@lucysadventurez\xc2\xa1\xc2\xa1 Sign up FREE from your mobile to WIN a iPhone 6S !! Click here : https://t.co/Va1SKQh0Jh GOOD LUCK!!'
p2
sS'Created At'
p3
S'2015-11-28 22:10:05'
p4
s.(dp0
S'Text'
p1
S'RT @UnboxTherapy: New iPhone winner at midnight. Gonna do a Twitter exclusive for this one - RT and reply here to enter! https://t.co/t6vWu\xe2\x80\xa6'
p2
sS'Created At'
p3
S'2015-11-28 22:10:05'
p4
s.(dp0
S'Text'
p1
S'#News #US Rumor: Apple to Kill Headphone Jack in iPhone 7 - PC Magazine https://t.co/onm5vliEly https://t.co/IQ2wGiIXIU'
p2
sS'Created At'
p3
S'2015-11-28 22:10:05'
p4
s.(dp0
S'Text'
p1
S'RT @free24apps: DefCom TD Games Action iPhone App **** $0.99 -&gt; FREE #Games #Action 9+ #iPhone #App #iOS https://t.co/9PtGQWiWbS https://t.\xe2\x80\xa6'
p2
sS'Created At'
p3
S'2015-11-28 22:10:06'
p4
s.(dp0
S'Text'
p1
S'RT @free24apps: DefCom TD Games Action iPhone App **** $0.99 -&gt; FREE #Games #Action 9+ #iPhone #App #iOS https://t.co/9PtGQWiWbS https://t.\xe2\x80\xa6'
p2
sS'Created At'
p3
S'2015-11-28 22:10:06'
p4
s.(dp0
S'Text'
p1
S"I've reached level 11 in Big Business Deluxe for iOS https://t.co/ELDBbsNvI8 #iPhone #iPhoneGames #GameInsight"
p2
sS'Created At'
p3
S'2015-11-28 22:10:06'
p4
s.(dp0
S'Text'
p1
S'Having fun playing #CSRRacing for iOS, why not join me for FREE?\nhttps://t.co/KK6SpUkh78 v xcbcv ccv'
p2
sS'Created At'
p3
S'2015-11-28 22:10:06'
p4
s.(dp0
S'Text'
p1
S'RT @UberFacts: George Hotz, a 17-year-old hacker, was the first to unlock a first generation iPhone\xe2\x80\x94he traded it for a Nissan 350z and 3 lo\xe2\x80\xa6'
p2
sS'Created At'
p3
S'2015-11-28 22:10:06'
p4
s.(dp0
S'Text'
p1
S'Rumor: Apple to Kill Headphone Jack in iPhone 7 https://t.co/PQvBRDnK8S'
p2
sS'Created At'
p3
S'2015-11-28 22:10:06'
p4
s.(dp0
S'Text'
p1
S"When you drop yo phone in water bt it's water proof so it doesn't matter. Lol wondering what would've happened if i had an iPhone \xf0\x9f\x98\x82\xf0\x9f\x98\x82"
p2
sS'Created At'
p3
S'2015-11-28 22:10:07'
p4
s.(dp0
S'Text'
p1
S'RT @free24apps: DefCom TD Games Action iPhone App **** $0.99 -&gt; FREE #Games #Action 9+ #iPhone #App #iOS https://t.co/9PtGQWiWbS https://t.\xe2\x80\xa6'
p2
sS'Created At'
p3
S'2015-11-28 22:10:07'
p4
s.(dp0
S'Text'
p1
S"RT @PaulMartin: So far for my \xc2\xa317.50 I've seen footage that looks like it's filmed on an iPhone and rod stewart with no sound. #klitschkofu\xe2\x80\xa6"
p2
sS'Created At'
p3
S'2015-11-28 22:10:08'
p4
s.(dp0
S'Text'
p1
S'RT @free24apps: DefCom TD Games Action iPhone App **** $0.99 -&gt; FREE #Games #Action 9+ #iPhone #App #iOS https://t.co/9PtGQWiWbS https://t.\xe2\x80\xa6'
p2
sS'Created At'
p3
S'2015-11-28 22:10:08'
p4
s.(dp0
S'Text'
p1
S'RT @UltimateKing24: first PS4-IOS winner in 5 min https://t.co/TMh27ZOkVa'
p2
sS'Created At'
p3
S'2015-11-28 22:10:08'
p4
s.(dp0
S'Text'
p1
S'#nowplaying Watch Me by banvox on Watch Me - Single in KaiserTone \xe2\x99\xaa\xe2\x99\xaa https://t.co/mzFNnlB2m2 https://t.co/kHkJOKj3fm'
p2
sS'Created At'
p3
S'2015-11-28 22:10:08'
p4
s.(dp0
S'Text'
p1
S'Latest Bargain: iPhone 5s 16GB Space Grey Unlocked Brand New https://t.co/eosmldsmqr'
p2
sS'Created At'
p3
S'2015-11-28 22:10:09'
p4
s.(dp0
S'Text'
p1
S'Ultra-thin TPU Gel Back Case Cover Fashion Patterned for Apple iPhone 4S HOT - Bid Now! On\xe2\x80\xa6 https://t.co/GIpHCVpb6J https://t.co/AP6WdkaMTH'
p2
sS'Created At'
p3
S'2015-11-28 22:10:09'
p4
s.(dp0
S'Text'
p1
S'RT @UberFacts: George Hotz, a 17-year-old hacker, was the first to unlock a first generation iPhone\xe2\x80\x94he traded it for a Nissan 350z and 3 lo\xe2\x80\xa6'
p2
sS'Created At'
p3
S'2015-11-28 22:10:09'
p4
s.(dp0
S'Text'
p1
S'Apple iPhone 4s - 8GB - White (AT&amp;T) Smartphone - Bid Now! Only $51.0 https://t.co/Y9z0CvuyJP https://t.co/58cjAlxgO5'
p2
sS'Created At'
p3
S'2015-11-28 22:10:09'
p4
s.(dp0
S'Text'
p1
S'Hmm, my iPhone isn\'t doing stuff as "smooth" as before'
p2
sS'Created At'
p3
S'2015-11-28 22:10:10'
p4
s.(dp0
S'Text'
p1
S'iPhone 4s - 16GB - Black - Bid Now! Only $26.0 https://t.co/178hkJaxkp https://t.co/Q3Vl1YxtSj'
p2
sS'Created At'
p3
S'2015-11-28 22:10:10'
p4
s.(dp0
S'Text'
p1
S'iPhone'
p2
sS'Created At'
p3
S'2015-11-28 22:10:10'
p4
s.(dp0
S'Text'
p1
S'Chanel Your IPhone https://t.co/Z13ccYCaH5'
p2
sS'Created At'
p3
S'2015-11-28 22:10:11'
p4
s.(dp0
S'Text'
p1
S'RT @UnboxTherapy: New iPhone winner at midnight. Gonna do a Twitter exclusive for this one - RT and reply here to enter! https://t.co/t6vWu\xe2\x80\xa6'
p2
sS'Created At'
p3
S'2015-11-28 22:10:11'
p4
s.(dp0
S'Text'
p1
S'Apple iPhone 4s - 8GB - Black (Boost Mobile) Smartphone - Bid Now! Only $186.0 https://t.co/kFOmixgH8P https://t.co/5LoIPLEMdP'
p2
sS'Created At'
p3
S'2015-11-28 22:10:11'
p4
s.(dp0
S'Text'
p1
S'RT @free24apps: DefCom TD Games Action iPhone App **** $0.99 -&gt; FREE #Games #Action 9+ #iPhone #App #iOS https://t.co/9PtGQWiWbS https://t.\xe2\x80\xa6'
p2
sS'Created At'
p3
S'2015-11-28 22:10:11'
p4
s.(dp0
S'Text'
p1
S'#nowplaying Sweet Rosalyn by Sheryl Crow on Sheryl Crow in KaiserTone \xe2\x99\xaa\xe2\x99\xaa https://t.co/n8HzoOaCON https://t.co/9Wu4rBtKND'
p2
sS'Created At'
p3
S'2015-11-28 22:10:11'
p4
s.(dp0
S'Text'
p1
S'3D Touch Will Change The Way You Use Your iPhone https://t.co/eAJtiqOxcp https://t.co/IvGX5dHw49'
p2
sS'Created At'
p3
S'2015-11-28 22:10:11'
p4
s.(dp0
S'Text'
p1
S'RT @free24apps: DefCom TD Games Action iPhone App **** $0.99 -&gt; FREE #Games #Action 9+ #iPhone #App #iOS https://t.co/9PtGQWiWbS https://t.\xe2\x80\xa6'
p2
sS'Created At'
p3
S'2015-11-28 22:10:12'
p4
s.(dp0
S'Text'
p1
S'Apple iPhone 4s - 16GB - White (Unlocked) Smartphone - Bid Now! Only $115.0 https://t.co/tuMO17VO2v https://t.co/rGNRtn4119'
p2
sS'Created At'
p3
S'2015-11-28 22:10:12'
p4
s.(dp0
S'Text'
p1
S'How Would Yu Feel If We Fuck In Dis Party \xf0\x9f\xa4\x94 Pull Out iPhone And Start To Record It'
p2
sS'Created At'
p3
S'2015-11-28 22:10:12'
p4
s.(dp0
S'Text'
p1
S'Luxury Brand New Super Mini Extendable Self Selfie Stick Monopod Cable Holder for iPhone A https://t.co/jdP7rJ1Bz0 https://t.co/TGty8T6jfi'
p2
sS'Created At'
p3
S'2015-11-28 22:10:12'
p4
s.(dp0
S'Text'
p1
S'got my iPhone 6 on \xf0\x9f\x98\x81\xf0\x9f\x98\x81'
p2
sS'Created At'
p3
S'2015-11-28 22:10:13'
p4
s.(dp0
S'Text'
p1
S'RT @Cute_Cravings: \xf0\x9f\x8e\x84 SATURDAY SALE \xf0\x9f\x8e\x84\n\nOur Holiday Glitter Phone Cases are on Sale!!\n\nEnds TONIGHT! \xe2\x9b\x84\xef\xb8\x8f\xf0\x9f\x8e\x80\n\n\xf0\x9f\x91\x89\xf0\x9f\x8f\xbchttps://t.co/b6G9g6hAh5\xf0\x9f\x91\x88\xf0\x9f\x8f\xbc https:/\xe2\x80\xa6'
p2
sS'Created At'
p3
S'2015-11-28 22:10:13'
p4
s.(dp0
S'Text'
p1
S'iOS-style copy and paste to your Mac'
p2
sS'Created At'
p3
S'2015-11-28 22:10:13'
p4
s.(dp0
S'Text'
p1
S'Go to https://t.co/L7LcYAegnn on your iPhone/iPod Safari, input my code b13064214. https://t.co/zniCcRIXxQ'
p2
sS'Created At'
p3
S'2015-11-28 22:10:13'
p4
s.(dp0
S'Text'
p1
S'The greatest thing on an iPhone is do not disturb on group chats\xf0\x9f\x98\x82\xf0\x9f\x99\x83\xf0\x9f\x99\x83\xf0\x9f\x99\x83'
p2
sS'Created At'
p3
S'2015-11-28 22:10:14'
p4
s.(dp0
S'Text'
p1
S'iPhone 6 Accessory Lot PureGear Case Car Charger Phone USB 6ft Wall Charger | eBay https://t.co/yMdtV2pnHU'
p2
sS'Created At'
p3
S'2015-11-28 22:10:14'
p4
s.(dp0
S'Text'
p1
S'Someone was saying that nobody wants an iPhone 5c and I just sat there like: https://t.co/vsMUrDMrid'
p2
sS'Created At'
p3
S'2015-11-28 22:10:14'
p4
s.(dp0
S'Text'
p1
S'\xe2\x99\xa5\xef\xbc\xb2\xef\xbc\xa5\xef\xbc\xb4\xef\xbc\xb7\xef\xbc\xa5\xef\xbc\xa5\xef\xbc\xb4\xe2\x99\xa5\xef\xbc\xaf\xef\xbc\xae\xef\xbc\xac\xef\xbc\xb9\xe2\x99\xa5\xef\xbc\xa9\xef\xbc\xa6\xe2\x99\xa5\xef\xbc\xb9\xef\xbc\xaf\xef\xbc\xb5\xe2\x99\xa5\xef\xbc\xb7\xef\xbc\xa1\xef\xbc\xae\xef\xbc\xb4\xe2\x99\xa5\xef\xbc\xae\xef\xbc\xa5\xef\xbc\xb7\xe2\x99\xa5\xef\xbc\xa6\xef\xbc\xaf\xef\xbc\xac\xef\xbc\xac\xef\xbc\xaf\xef\xbc\xb7\xef\xbc\xa5\xef\xbc\xb2\xef\xbc\xb3\xe2\x99\xa5 #TeamFollowBack #TFBJP #teamhitfollow #Mustfollow #IPHONE #IPOD 07.10'
p2
sS'Created At'
p3
S'2015-11-28 22:10:14'
p4
s.(dp0
S'Text'
p1
S'My Life My Choice Taking Your Life Back One Choice At A Time #DrWendyD #Ol... w/ wendydearborne OliviaTalks https://t.co/rD8stvtclP #blab \xe2\x80\xa6'
p2
sS'Created At'
p3
S'2015-11-28 22:10:14'
p4
s.(dp0
S'Text'
p1
S"#CrazyTown Who's Who w/Q&amp;A - Networking Fun https://t.co/Ejxjuxe8rw #blab #DanielleTheVP"
p2
sS'Created At'
p3
S'2015-11-28 22:10:15'
p4
s.(dp0
S'Text'
p1
S"#CrazyTown Who's Who w/Q&amp;A - Networking Fun w/ DanielleTheVP https://t.co/Ejxjuxe8rw #blab #TiffaniBASSFIE2"
p2
sS'Created At'
p3
S'2015-11-28 22:10:15'
p4
s.(dp0
S'Text'
p1
S'Bitcoin news w/ theonevortex MrChrisEllis theog__ YouMeAndBTC https://t.co/8hxQWmTqPd #blab #TracyAMalone'
p2
sS'Created At'
p3
S'2015-11-28 22:10:17'
p4
s.(dp0
S'Text'
p1
S'jimna895: RT immuneApps: IceCream lets you pack more pictures into your iPhone by sa https://t.co/nf2ARENwBS #apps #News #Startups #HowTo \xe2\x80\xa6'
p2
sS'Created At'
p3
S'2015-11-28 22:10:17'
p4
s.(dp0
S'Text'
p1
S"I got a l f**king iPhone 6 how I'm F**king poor ? Lmaoooo https://t.co/OGfGFQUn3z"
p2
sS'Created At'
p3
S'2015-11-28 22:10:17'
p4
s.(dp0
S'Text'
p1
S'International Blab-aganza Virtual Small Business Saturday w/ SmallBizShowTV CPhoneConcierge teamevent2015 https://t.co/ShYaiITuqa #blab #T\xe2\x80\xa6'
p2
sS'Created At'
p3
S'2015-11-28 22:10:17'
p4
s.(dp0
S'Text'
p1
S'UberFacts: https://t.co/6IVHok8JVF'
p2
sS'Created At'
p3
S'2015-11-28 22:10:17'
p4
s.(dp0
S'Text'
p1
S'Saturday Afternoon Blab w/ KillaKev41 https://t.co/wKNKcxgzBd #blab #sstevenle'
p2
sS'Created At'
p3
S'2015-11-28 22:10:18'
p4
s.(dp0
S'Text'
p1
S'RT @numbj8: iPhone 7 looks weird af http://t.co/WGt5qitWR5'
p2
sS'Created At'
p3
S'2015-11-28 22:10:18'
p4
s.(dp0
S'Text'
p1
S'@cuddlyxnouiis_ i bloody knew 99,9% of yall would say iphone \xf0\x9f\x98\x82'
p2
sS'Created At'
p3
S'2015-11-28 22:10:19'
p4
s.(dp0
S'Text'
p1
S'Foreign Language Apps for Traveling Abroad via @nytimes  https://t.co/b4Soth0CxS'
p2
sS'Created At'
p3
S'2015-11-28 22:10:20'
p4
s.(dp0
S'Text'
p1
S'Terri_Brady: Get Apps For #iPhone - #Android - Windows - Thousands of #Apps - https://t.co/pcsP892Ti7 - #iTunes ?\xe2\x80\xa6 https://t.co/hxNVzn0sRx'
p2
sS'Created At'
p3
S'2015-11-28 22:10:20'
p4
s.(dp0
S'Text'
p1
S'RT @JadahBae: JusTalk, everyone besides iPhone users can video chat like FaceTime! Just talk to me! Check it out: http://t.co/w5EHyosqhO'
p2
sS'Created At'
p3
S'2015-11-28 22:10:20'
p4
s.(dp0
S'Text'
p1
S'RT @Cute_Cravings: \xf0\x9f\x8e\x84 SATURDAY SALE \xf0\x9f\x8e\x84\n\nOur Holiday Glitter Phone Cases are on Sale!!\n\nEnds TONIGHT! \xe2\x9b\x84\xef\xb8\x8f\xf0\x9f\x8e\x80\n\n\xf0\x9f\x91\x89\xf0\x9f\x8f\xbchttps://t.co/b6G9g6hAh5\xf0\x9f\x91\x88\xf0\x9f\x8f\xbc https:/\xe2\x80\xa6'
p2
sS'Created At'
p3
S'2015-11-28 22:10:20'
p4
s.(dp0
S'Text'
p1
S'Nice to meet The Mad Hatter! Look for the new acquaintances in the streets of London! https://t.co/RKbHWZfaZQ #iPhone #iPhone...'
p2
sS'Created At'
p3
S'2015-11-28 22:10:21'
p4
s.(dp0
S'Text'
p1
S'#Iphone 7 Features\xc2\xa0News https://t.co/f1cstW3OMW'
p2
sS'Created At'
p3
S'2015-11-28 22:10:22'
p4
s.(dp0
S'Text'
p1
S"I've collected 34,299 gold coins! https://t.co/rh8xAPhgfK #iphone, #iphonegames, #gameinsight"
p2
sS'Created At'
p3
S'2015-11-28 22:10:22'
p4
s.(dp0
S'Text'
p1
S'RT @UltimateKing24: first PS4-IOS winner in 5 min https://t.co/TMh27ZOkVa'
p2
sS'Created At'
p3
S'2015-11-28 22:10:23'
p4
s.(dp0
S'Text'
p1
S'RT @Pixleh: How @robinamicrowave spent his 20th birthday: playing Football Manager on his iPhone (in this instance, on a beach). http://t.c\xe2\x80\xa6'
p2
sS'Created At'
p3
S'2015-11-28 22:10:23'
p4
s.(dp0
S'Text'
p1
S'RT @_AdrianBrown: Only a fifth of Americans currently trust the federal government or think it is well run https://t.co/kqze81irtw cc @4Pub\xe2\x80\xa6'
p2
sS'Created At'
p3
S'2015-11-28 22:10:23'
p4
s.(dp0
S'Text'
p1
S'bizmany: Glassdoor Job Search: Jobs, Salaries &amp; Reviews - #apps for iPhone &amp; iPad - https://t.co/cxOwMy6OF8 https://t.co/V9cxX6hXUW'
p2
sS'Created At'
p3
S'2015-11-28 22:10:24'
p4
s.(dp0
S'Text'
p1
S'started a @Runtastic live tracking session. See my progress live and cheer me on - https://t.co/o9GIgeXjCK #Runtastic #iphone'
p2
sS'Created At'
p3
S'2015-11-28 22:10:24'
p4
s.(dp0
S'Text'
p1
S'RT @BillAFox29: Kudos to Chief @TNestel3! He offered #iPhone thief amnesty &amp; phone was returned. Compassion wins! https://t.co/ABWAtaTu90 @\xe2\x80\xa6'
p2
sS'Created At'
p3
S'2015-11-28 22:10:24'
p4
s.(dp0
S'Text'
p1
S'Get Best Price For Brahmin  iPhone 6 Case Get Now #bestbuy at https://t.co/WPzWOHLkDn https://t.co/1n0swBYP1q'
p2
sS'Created At'
p3
S'2015-11-28 22:10:24'
p4
s.(dp0
S'Text'
p1
S'RT @Cute_Cravings: \xf0\x9f\x8e\x84 SATURDAY SALE \xf0\x9f\x8e\x84\n\nOur Holiday Glitter Phone Cases are on Sale!!\n\nEnds TONIGHT! \xe2\x9b\x84\xef\xb8\x8f\xf0\x9f\x8e\x80\n\n\xf0\x9f\x91\x89\xf0\x9f\x8f\xbchttps://t.co/b6G9g6hAh5\xf0\x9f\x91\x88\xf0\x9f\x8f\xbc https:/\xe2\x80\xa6'
p2
sS'Created At'
p3
S'2015-11-28 22:10:24'
p4
s.(dp0
S'Text'
p1
S'CLICK STICK\xe2\x84\xa2 SELFIE STICK (WITH APP FOR IPHONE/ANDROID) - R395 from Mantality (South Africa) \n https://t.co/cAz9kUSDVa'
p2
sS'Created At'
p3
S'2015-11-28 22:10:25'
p4
s.(dp0
S'Text'
p1
S'@MakeUpTweeter  OBTAIN THE NEW IPHONE\xc2\xae 6S PLUS! For FREE just for 1 DAY. here =&gt; https://t.co/giYT2jHWUd'
p2
sS'Created At'
p3
S'2015-11-28 22:10:25'
p4
s.(dp0
S'Text'
p1
S"I'm now a B-List celebrity in Kim Kardashian: Hollywood. You can be famous too by playing on iPhone!  https://t.co/siixwZV0lX"
p2
sS'Created At'
p3
S'2015-11-28 22:10:25'
p4
s.(dp0
S'Text'
p1
S"iPhone Owners Rejoice: 'Legend of Grimrock' Universal Update Now Available https://t.co/eEuShCSTby"
p2
sS'Created At'
p3
S'2015-11-28 22:10:25'
p4
s.(dp0
S'Text'
p1
S'using an iPhone to complete a crossword, why bother'
p2
sS'Created At'
p3
S'2015-11-28 22:10:26'
p4
s.(dp0
S'Text'
p1
S'RT @UberFacts: George Hotz, a 17-year-old hacker, was the first to unlock a first generation iPhone\xe2\x80\x94he traded it for a Nissan 350z and 3 lo\xe2\x80\xa6'
p2
sS'Created At'
p3
S'2015-11-28 22:10:26'
p4
s.(dp0
S'Text'
p1
S'RT @UberFacts: George Hotz, a 17-year-old hacker, was the first to unlock a first generation iPhone\xe2\x80\x94he traded it for a Nissan 350z and 3 lo\xe2\x80\xa6'
p2
sS'Created At'
p3
S'2015-11-28 22:10:27'
p4
s.(dp0
S'Text'
p1
S"RT @yoifeellike: the iphone charger that doesn't quite reach"
p2
sS'Created At'
p3
S'2015-11-28 22:10:28'
p4
s.(dp0
S'Text'
p1
S'How to use new and improved Siri in iOS 8 https://t.co/MwKuzoOWll #apple #siri #voiceassitance'
p2
sS'Created At'
p3
S'2015-11-28 22:10:28'
p4
s.(dp0
S'Text'
p1
S'Australia 93. Baby - Justin Bieber https://t.co/GRqBvIOCPc #Music #Video #iTunes #iPhone #Apple #Mac'
p2
sS'Created At'
p3
S'2015-11-28 22:10:29'
p4
s.(dp0
S'Text'
p1
S'I GOT AN IPHONE 6 HOW AM I POOR lmao'
p2
sS'Created At'
p3
S'2015-11-28 22:10:30'
p4
s.(dp0
S'Text'
p1
S'RT @UberFacts: George Hotz, a 17-year-old hacker, was the first to unlock a first generation iPhone\xe2\x80\x94he traded it for a Nissan 350z and 3 lo\xe2\x80\xa6'
p2
sS'Created At'
p3
S'2015-11-28 22:10:31'
p4
s.(dp0
S'Text'
p1
S'RT @Steffhdfifa_: Quick fire 250k giveaway! (IOS) \n\n-Follow me \n-RT this tweet \n-TAG mates \n\nWinner in 10-15mins https://t.co/zdqstLIAGe'
p2
sS'Created At'
p3
S'2015-11-28 22:10:31'
p4
s.(dp0
S'Text'
p1
S'Just sat to pee so I didnt have to go 15 seconds without staring at my iPhone.'
p2
sS'Created At'
p3
S'2015-11-28 22:10:31'
p4
s.(dp0
S'Text'
p1
S"I've collected 30,722 gold coins! https://t.co/9AKpmZxgKa #iphone, #iphonegames, #gameinsight"
p2
sS'Created At'
p3
S'2015-11-28 22:10:31'
p4
s.(dp0
S'Text'
p1
S'RT @janinebucks: memHeaven+ : Progressive Memory Status Accelerator + Utilities... https://t.co/fh3iPlidN3'
p2
sS'Created At'
p3
S'2015-11-28 22:10:33'
p4
s.(dp0
S'Text'
p1
S'RT @janinebucks: memHeaven+ : Progressive Memory Status Accelerator + Utilities... https://t.co/fh3iPlidN3'
p2
sS'Created At'
p3
S'2015-11-28 22:10:33'
p4
s.(dp0
S'Text'
p1
S'RT @janinebucks: memHeaven+ : Progressive Memory Status Accelerator + Utilities... https://t.co/fh3iPlidN3'
p2
sS'Created At'
p3
S'2015-11-28 22:10:33'
p4
s.(dp0
S'Text'
p1
S'RT @janinebucks: memHeaven+ : Progressive Memory Status Accelerator + Utilities... https://t.co/fh3iPlidN3'
p2
sS'Created At'
p3
S'2015-11-28 22:10:33'
p4
s.(dp0
S'Text'
p1
S'RT @janinebucks: memHeaven+ : Progressive Memory Status Accelerator + Utilities... https://t.co/fh3iPlidN3'
p2
sS'Created At'
p3
S'2015-11-28 22:10:33'
p4
s.(dp0
S'Text'
p1
S'RT @free24apps: DefCom TD Games Action iPhone App **** $0.99 -&gt; FREE #Games #Action 9+ #iPhone #App #iOS https://t.co/9PtGQWiWbS https://t.\xe2\x80\xa6'
p2
sS'Created At'
p3
S'2015-11-28 22:10:33'
p4
s.(dp0
S'Text'
p1
S'IPhone 6s GIVEAWAY!!! (OPEN) - YouTube https://t.co/BHWFB31rm7'
p2
sS'Created At'
p3
S'2015-11-28 22:10:33'
p4
s.(dp0
S'Text'
p1
S'RT @janinebucks: memHeaven+ : Progressive Memory Status Accelerator + Utilities... https://t.co/fh3iPlidN3'
p2
sS'Created At'
p3
S'2015-11-28 22:10:33'
p4
s.(dp0
S'Text'
p1
S'RT @UberFacts: George Hotz, a 17-year-old hacker, was the first to unlock a first generation iPhone\xe2\x80\x94he traded it for a Nissan 350z and 3 lo\xe2\x80\xa6'
p2
sS'Created At'
p3
S'2015-11-28 22:10:33'
p4
s.(dp0
S'Text'
p1
S'RT @janinebucks: memHeaven+ : Progressive Memory Status Accelerator + Utilities... https://t.co/fh3iPlidN3'
p2
sS'Created At'
p3
S'2015-11-28 22:10:34'
p4
s.(dp0
S'Text'
p1
S'RT @janinebucks: memHeaven+ : Progressive Memory Status Accelerator + Utilities... https://t.co/fh3iPlidN3'
p2
sS'Created At'
p3
S'2015-11-28 22:10:34'
p4
s.(dp0
S'Text'
p1
S'Feel As Being Celebrity With Apple Iphone\xc2\xa04 https://t.co/Jn0FfNwh1z https://t.co/EIDQYE5Yh0'
p2
sS'Created At'
p3
S'2015-11-28 22:10:34'
p4
s.(dp0
S'Text'
p1
S'Having fun playing #CSRRacing for iOS, why not join me for FREE?\nhttps://t.co/HNfYZb0T4d'
p2
sS'Created At'
p3
S'2015-11-28 22:10:34'
p4
s.(dp0
S'Text'
p1
S'RT @janinebucks: memHeaven+ : Progressive Memory Status Accelerator + Utilities... https://t.co/fh3iPlidN3'
p2
sS'Created At'
p3
S'2015-11-28 22:10:34'
p4
s.(dp0
S'Text'
p1
S'RT @janinebucks: memHeaven+ : Progressive Memory Status Accelerator + Utilities... https://t.co/fh3iPlidN3'
p2
sS'Created At'
p3
S'2015-11-28 22:10:34'
p4
s.(dp0
S'Text'
p1
S'Cell Phones : TYLY Energi USB/Lightning Link Backup Battery for iOS &amp; Mobile Devices https://t.co/MioYHAN47U #8802\xe2\x80\xa6 https://t.co/puZFGJuDX5'
p2
sS'Created At'
p3
S'2015-11-28 22:10:34'
p4
s.(dp0
S'Text'
p1
S'RT @janinebucks: memHeaven+ : Progressive Memory Status Accelerator + Utilities... https://t.co/fh3iPlidN3'
p2
sS'Created At'
p3
S'2015-11-28 22:10:34'
p4
s.(dp0
S'Text'
p1
S'Dear Santa, this year I want a rose gold iPhone 6s , money ,and makeup please.'
p2
sS'Created At'
p3
S'2015-11-28 22:10:35'
p4
s.(dp0
S'Text'
p1
S'Cell Phones : Apple iPhone 5s 16GB a1533 Verizon Unlocked Silver Gold or Gray https://t.co/CUH0Qu6bQz #8802\n\n$229.\xe2\x80\xa6 https://t.co/JRRSFkU4Sq'
p2
sS'Created At'
p3
S'2015-11-28 22:10:35'
p4
s.(dp0
S'Text'
p1
S'RT @weatherchannel: Now with a dynamic &amp; personalized home screen. Download The Weather Channel App for #iPhone: https://t.co/rio98Nwbqy ht\xe2\x80\xa6'
p2
sS'Created At'
p3
S'2015-11-28 22:10:35'
p4
s.(dp0
S'Text'
p1
S'RT @janinebucks: memHeaven+ : Progressive Memory Status Accelerator + Utilities... https://t.co/fh3iPlidN3'
p2
sS'Created At'
p3
S'2015-11-28 22:10:35'
p4
s.(dp0
S'Text'
p1
S'Half of U.S. iPhone Users Could Start Upgrading Annually https://t.co/dhjW4e0uE9 https://t.co/wozlJkfCnk'
p2
sS'Created At'
p3
S'2015-11-28 22:10:35'
p4
s.(dp0
S'Text'
p1
S'Cell Phones : Apple iPhone 5s a1533 32GB for AT&amp;T Gold Silver or Gray https://t.co/2Er3yJvxcY #8802\n\n$249.99 \xc2\xa0 $59\xe2\x80\xa6 https://t.co/Cj7wIKuPXx'
p2
sS'Created At'
p3
S'2015-11-28 22:10:36'
p4
s.(dp0
S'Text'
p1
S'76. android, windows phone czy ios? #100pytan \n#MTVStars The Vamps'
p2
sS'Created At'
p3
S'2015-11-28 22:10:36'
p4
s.(dp0
S'Text'
p1
S"RT @kattywil_: Apple iOS 9 Has 25 Great Secret Features That You'll Need To !! Know\nhttps://t.co/dMZgrRfyro https://t.co/PQxvKj7Y3I"
p2
sS'Created At'
p3
S'2015-11-28 22:10:36'
p4
s.(dp0
S'Text'
p1
S'RT @justinshoIyy: i want an iPhone 6 so badly'
p2
sS'Created At'
p3
S'2015-11-28 22:10:36'
p4
s.(dp0
S'Text'
p1
S'Cell Phones : Belkin LEGO Builder Case for Apple iPhone 5S 5 in Blue Pink Cover F8W283ttC01 \xe2\x80\xa6 https://t.co/Zf25t5K1vX'
p2
sS'Created At'
p3
S'2015-11-28 22:10:36'
p4
s.(dp0
S'Text'
p1
S'RT @UberFacts: George Hotz, a 17-year-old hacker, was the first to unlock a first generation iPhone\xe2\x80\x94he traded it for a Nissan 350z and 3 lo\xe2\x80\xa6'
p2
sS'Created At'
p3
S'2015-11-28 22:10:37'
p4
s.(dp0
S'Text'
p1
S'RT @sh_fzs_72: https://t.co/BJMtkdjwkS #1664 x5 iPhone 6 4.7" water liquid damage indicator warranty... https://t.co/BU3fzmJ12M'
p2
sS'Created At'
p3
S'2015-11-28 22:10:37'
p4
s.(dp0
S'Text'
p1
S'Apple Iphone Contract \xe2\x80\x93 Best Method To Buy A\xc2\xa0Smartphone https://t.co/dU8hKkZIlJ https://t.co/mMlVay4aWn'
p2
sS'Created At'
p3
S'2015-11-28 22:10:37'
p4
s.(dp0
S'Text'
p1
S'FACTORY UNLOCK SPRINT IPHONE 5C,5S,6.6+ CLEAN IMEI ONLY 1-48 HOURS 55$ *29'
p2
sS'Created At'
p3
S'2015-11-28 22:10:38'
p4
s.(dp0
S'Text'
p1
S'Would FM on IPhone be decent haha ?'
p2
sS'Created At'
p3
S'2015-11-28 22:10:38'
p4
s.(dp0
S'Text'
p1
S'RT @Cute_Cravings: \xf0\x9f\x8e\x84 SATURDAY SALE \xf0\x9f\x8e\x84\n\nOur Holiday Glitter Phone Cases are on Sale!!\n\nEnds TONIGHT! \xe2\x9b\x84\xef\xb8\x8f\xf0\x9f\x8e\x80\n\n\xf0\x9f\x91\x89\xf0\x9f\x8f\xbchttps://t.co/b6G9g6hAh5\xf0\x9f\x91\x88\xf0\x9f\x8f\xbc https:/\xe2\x80\xa6'
p2
sS'Created At'
p3
S'2015-11-28 22:10:38'
p4
s.(dp0
S'Text'
p1
S'#10BillionWives \nI married3,807,409,041,816Wives!\n\niOS: https://t.co/X7DSZRFtsD\nAndroid: https://t.co/GttS0l71b2 https://t.co/uT4XF0Pi8q'
p2
sS'Created At'
p3
S'2015-11-28 22:10:39'
p4
s.(dp0
S'Text'
p1
S'Cell Phones : Apple iPhone 4 16GB WiFi Verizon Wireless Black Smartphone Clean Esn 16-GB https://t.co/TNJSbAjaYW #\xe2\x80\xa6 https://t.co/wm1MUgcte5'
p2
sS'Created At'
p3
S'2015-11-28 22:10:39'
p4
s.(dp0
S'Text'
p1
S"I'm earning #mPLUSRewards in https://t.co/bQWtyXpAYR for iPhone. https://t.co/lCUO8E6jFl @dictionarycom"
p2
sS'Created At'
p3
S'2015-11-28 22:10:39'
p4
s.(dp0
S'Text'
p1
S"Apple rumored to ditch headphone jack on 'iPhone 7' for Lightning connector audio https://t.co/kKFVvoN6SU"
p2
sS'Created At'
p3
S'2015-11-28 22:10:40'
p4
s.(dp0
S'Text'
p1
S'Cell Phones : Hybrid Shockproof Hard Rugged Heavy Duty Cover Case For Apple iPhone 6 6S Plus \xe2\x80\xa6 https://t.co/kegCkoFChw'
p2
sS'Created At'
p3
S'2015-11-28 22:10:40'
p4
s.(dp0
S'Text'
p1
S'UberFacts: George Hotz, a 17-year-old hacker, was the first to unlock a first generation iPhone\xe2\x80\x94he traded it for a Nissan 350z and 3 locked\xe2\x80\xa6'
p2
sS'Created At'
p3
S'2015-11-28 22:10:41'
p4
s.(dp0
S'Text'
p1
S'RT, George Hotz, a 17-year-old hacker, was the first to unlock a first generation iPhone\xe2\x80\x94he traded it for a Nissan 350z and 3 locked iPhone\xe2\x80\xa6'
p2
sS'Created At'
p3
S'2015-11-28 22:10:42'
p4
s.(dp0
S'Text'
p1
S'wish i had an all black iphone 6\xf0\x9f\x98\x8d\xf0\x9f\x98\xa9'
p2
sS'Created At'
p3
S'2015-11-28 22:10:43'
p4
s.(dp0
S'Text'
p1
S"I might get the iPhone 6s, I'm so hype!!"
p2
sS'Created At'
p3
S'2015-11-28 22:10:43'
p4
s.(dp0
S'Text'
p1
S'RT @JuugTalk: Now Playing Feel Trip Mixtape by M-A via @DatPiff for iOS https://t.co/123zTr0mqN'
p2
sS'Created At'
p3
S'2015-11-28 22:10:44'
p4
s.(dp0
S'Text'
p1
S"RT @TheLiberal_ie: WIN #WIN #iPhone6 -We're giving away an iPhone 6 thanks to @Pursha_com To enter, re-tweet &amp; Follow us! #competition http\xe2\x80\xa6"
p2
sS'Created At'
p3
S'2015-11-28 22:10:44'
p4
s.(dp0
S'Text'
p1
S"I'm now a D-List celebrity in Kim Kardashian: Hollywood. You can be famous too by playing on iPhone!  https://t.co/RqDbDyn171"
p2
sS'Created At'
p3
S'2015-11-28 22:10:44'
p4
s.(dp0
S'Text'
p1
S'RT @Pocketnow: Anybody else wanna hear Jaime rap? Enough votes might help. https://t.co/dVzHNfPUDa https://t.co/SfxnQRQv6G'
p2
sS'Created At'
p3
S'2015-11-28 22:10:44'
p4
s.(dp0
S'Text'
p1
S'Cell Phone USA : Luxury Premium Chrome Brushed Aluminum Hard Case Cover for Apple iPhone 4\xe2\x80\xa6 https://t.co/Y5PQNjGdQJ https://t.co/OXo33vwpw5'
p2
sS'Created At'
p3
S'2015-11-28 22:10:45'
p4
s.(dp0
S'Text'
p1
S"RT @yoifeellike: the iphone charger that doesn't quite reach"
p2
sS'Created At'
p3
S'2015-11-28 22:10:45'
p4
s.(dp0
S'Text'
p1
S'#Iphone 7 Features\xc2\xa0News https://t.co/VToIkv1ECj'
p2
sS'Created At'
p3
S'2015-11-28 22:10:45'
p4
s.(dp0
S'Text'
p1
S'"When ur iPhone has android quality pics"\n"You\'re android quality"\n"Bitch, I\'m iPhone 6s Plus  \xf0\x9f\x92\x85\xf0\x9f\x8f\xbc"'
p2
sS'Created At'
p3
S'2015-11-28 22:10:45'
p4
s.(dp0
S'Text'
p1
S'Cell Phone USA : [Apple MFi Certified] Skiva\xc2\xae Lightning to USB cable 10ft for iPhone 5 5S \xe2\x80\xa6 https://t.co/tLyfUKsY7R https://t.co/foZxI46DTs'
p2
sS'Created At'
p3
S'2015-11-28 22:10:45'
p4
s.(dp0
S'Text'
p1
S'Having fun playing #CSRRacing for iOS, why not join me for FREE?\nhttps://t.co/qOxhp8p2S9 jfxjs'
p2
sS'Created At'
p3
S'2015-11-28 22:10:46'
p4
s.(dp0
S'Text'
p1
S'@UnboxTherapy I have never owned an apple product, so will the iphone be my first?'
p2
sS'Created At'
p3
S'2015-11-28 22:10:46'
p4
s.(dp0
S'Text'
p1
S'Cell Phone USA : Apple iPhone 4S A1387 3.5" Retina 32GB 3G GSM UNLOCKED Cell Phone #4422 https://t.co/sUHjaNk1a9 https://t.co/nMTF3LAIWU'
p2
sS'Created At'
p3
S'2015-11-28 22:10:46'
p4
s.(dp0
S'Text'
p1
S'RT @bethanyjowettx: Peng tings on my whatsapp and my iPhone aswell lol'
p2
sS'Created At'
p3
S'2015-11-28 22:10:47'
p4
s.(dp0
S'Text'
p1
S'iPhone chargers break so easily'
p2
sS'Created At'
p3
S'2015-11-28 22:10:47'
p4
s.(dp0
S'Text'
p1
S"RT @TheLiberal_ie: WIN #WIN #iPhone6 -We're giving away an iPhone 6 thanks to @Pursha_com To enter, re-tweet &amp; Follow us! #competition http\xe2\x80\xa6"
p2
sS'Created At'
p3
S'2015-11-28 22:10:48'
p4
s.(dp0
S'Text'
p1
S'RT @iDont_WorkHere: Now Playing Feel Trip Mixtape by M-A via @DatPiff for iOS https://t.co/S8ZOvtWnjX'
p2
sS'Created At'
p3
S'2015-11-28 22:10:48'
p4
s.(dp0
S'Text'
p1
S'@sylashes81 LUV4LUV UKG VOL.1 Mixed by @DJPyro Android https://t.co/DdHMpA05Om / Iphone https://t.co/VH380mztBb https://t.co/2UXw5Chen7'
p2
sS'Created At'
p3
S'2015-11-28 22:10:53'
p4
s.(dp0
S'Text'
p1
S'RT @UnboxTherapy: New iPhone winner at midnight. Gonna do a Twitter exclusive for this one - RT and reply here to enter! https://t.co/t6vWu\xe2\x80\xa6'
p2
sS'Created At'
p3
S'2015-11-28 22:10:53'
p4
s.(dp0
S'Text'
p1
S'RT @earthfalcon33: bizmany: Glassdoor Job Search: Jobs, Salaries &amp; Reviews - #apps for iPhone &amp; iPad - https://t.co/cxOwMy6OF8 https://t.co\xe2\x80\xa6'
p2
sS'Created At'
p3
S'2015-11-28 22:10:54'
p4
s.(dp0
S'Text'
p1
S'#10BillionWives \nI married247,639,979,882Wives!\n\niOS: https://t.co/IQwVKVjkmV\nAndroid: https://t.co/LeA9mp0V8F https://t.co/gqqiz1A2XX'
p2
sS'Created At'
p3
S'2015-11-28 22:10:54'
p4
s.(dp0
S'Text'
p1
S'#10BillionWives \nI married3,972,826,346,232Wives!\n\niOS: https://t.co/X7DSZRFtsD\nAndroid: https://t.co/GttS0l71b2 https://t.co/MANJNnjkeY'
p2
sS'Created At'
p3
S'2015-11-28 22:10:54'
p4
s.(dp0
S'Text'
p1
S'RT @UberFacts: George Hotz, a 17-year-old hacker, was the first to unlock a first generation iPhone\xe2\x80\x94he traded it for a Nissan 350z and 3 lo\xe2\x80\xa6'
p2
sS'Created At'
p3
S'2015-11-28 22:10:55'
p4
s.(dp0
S'Text'
p1
S'RT @UberFacts: George Hotz, a 17-year-old hacker, was the first to unlock a first generation iPhone\xe2\x80\x94he traded it for a Nissan 350z and 3 lo\xe2\x80\xa6'
p2
sS'Created At'
p3
S'2015-11-28 22:10:55'
p4
s.(dp0
S'Text'
p1
S'Quick fire 250k giveaway! (IOS) \n\n-Follow me \n-RT this tweet \n-TAG mates \n\nWinner in 10-15mins  https://t.co/QSAmvTd8Kx'
p2
sS'Created At'
p3
S'2015-11-28 22:10:56'
p4
s.(dp0
S'Text'
p1
S'RT @besomebodyblog: Book or Host Experiences on our free iPhone app and make money doing what you love. #besomebody. https://t.co/LVEltZDE8r'
p2
sS'Created At'
p3
S'2015-11-28 22:10:56'
p4
s.(dp0
S'Text'
p1
S'Having fun playing #CSRRacing for iOS, why not join me for FREE?\nhttps://t.co/qOxhp8p2S9 fjdj'
p2
sS'Created At'
p3
S'2015-11-28 22:10:56'
p4
s.(dp0
S'Text'
p1
S'iPhone  https://t.co/WY0E4IHacu'
p2
sS'Created At'
p3
S'2015-11-28 22:10:57'
p4
s.(dp0
S'Text'
p1
S'https://t.co/kzRZhPVZ0C Adobe: Thanksgiving and Black Friday online sales up 18%, iOS numbers almost triple Andr... https://t.co/Ypwf8uMP51'
p2
sS'Created At'
p3
S'2015-11-28 22:10:58'
p4
s.(dp0
S'Text'
p1
S'The first thing people notice about me is either my height, my teeth or the fact that I have a iPhone 4 \xf0\x9f\x98\xb6'
p2
sS'Created At'
p3
S'2015-11-28 22:10:58'
p4
s.(dp0
S'Text'
p1
S'I just gained 6 new followers using this awesome #iPhone #app @twigrow:https://t.co/hzqQDCCiPE'
p2
sS'Created At'
p3
S'2015-11-28 22:10:58'
p4
s.(dp0
S'Text'
p1
S'@Tee_tash LUV4LUV UKG VOL.1 Mixed by @DJPyro Android https://t.co/an8sosZojn / Iphone https://t.co/QShRdU1qUt https://t.co/EZKVhcS6nP'
p2
sS'Created At'
p3
S'2015-11-28 22:10:58'
p4
s.(dp0
S'Text'
p1
S'Having fun playing #CSRRacing for iOS, why not join me for FREE?\nhttps://t.co/380ZuZn7z0'
p2
sS'Created At'
p3
S'2015-11-28 22:10:58'
p4
s.(dp0
S'Text'
p1
S'Having fun playing #CSRRacing for iOS, why not join me for FREE?\nhttps://t.co/qOxhp8p2S9 nckds'
p2
sS'Created At'
p3
S'2015-11-28 22:11:00'
p4
s.(dp0
S'Text'
p1
S'@billchase2 El Cap-disable ambient brightness under Settings/Displays. On iOS it happens when you run out of memory'
p2
sS'Created At'
p3
S'2015-11-28 22:11:00'
p4
s.(dp0
S'Text'
p1
S"It's time for parent tech support!\n\nLaptop, iphone and fitbit to work on!"
p2
sS'Created At'
p3
S'2015-11-28 22:11:01'
p4
s.(dp0
S'Text'
p1
S'Having fun playing #CSRRacing for iOS, why not join me for FREE?\nhttps://t.co/2u2ZcZnUVT'
p2
sS'Created At'
p3
S'2015-11-28 22:11:01'
p4
s.(dp0
S'Text'
p1
S'RT @DaddyJew: I only go to the Amish market to brag about my iPhone to the Amish'
p2
sS'Created At'
p3
S'2015-11-28 22:11:01'
p4
s.(dp0
S'Text'
p1
S"RT @heyifeellike: the iphone charger that doesn't quite reach"
p2
sS'Created At'
p3
S'2015-11-28 22:11:03'
p4
s.(dp0
S'Text'
p1
S'RT @janinebucks: memHeaven+ : Progressive Memory Status Accelerator + Utilities... https://t.co/fh3iPlidN3'
p2
sS'Created At'
p3
S'2015-11-28 22:11:03'
p4
s.(dp0
S'Text'
p1
S'RT @janinebucks: memHeaven+ : Progressive Memory Status Accelerator + Utilities... https://t.co/fh3iPlidN3'
p2
sS'Created At'
p3
S'2015-11-28 22:11:03'
p4
s.(dp0
S'Text'
p1
S'Rumor: Apple to Kill Headphone Jack in iPhone 7 - PC Magazine https://t.co/ePu0MgYhle'
p2
sS'Created At'
p3
S'2015-11-28 22:11:03'
p4
s.(dp0
S'Text'
p1
S'RT @UberFacts: George Hotz, a 17-year-old hacker, was the first to unlock a first generation iPhone\xe2\x80\x94he traded it for a Nissan 350z and 3 lo\xe2\x80\xa6'
p2
sS'Created At'
p3
S'2015-11-28 22:11:03'
p4
s.(dp0
S'Text'
p1
S'RT @janinebucks: memHeaven+ : Progressive Memory Status Accelerator + Utilities... https://t.co/fh3iPlidN3'
p2
sS'Created At'
p3
S'2015-11-28 22:11:03'
p4
s.(dp0
S'Text'
p1
S'RT @janinebucks: memHeaven+ : Progressive Memory Status Accelerator + Utilities... https://t.co/fh3iPlidN3'
p2
sS'Created At'
p3
S'2015-11-28 22:11:03'
p4
s.(dp0
S'Text'
p1
S'RT @janinebucks: memHeaven+ : Progressive Memory Status Accelerator + Utilities... https://t.co/fh3iPlidN3'
p2
sS'Created At'
p3
S'2015-11-28 22:11:03'
p4
s.(dp0
S'Text'
p1
S'RT @janinebucks: memHeaven+ : Progressive Memory Status Accelerator + Utilities... https://t.co/fh3iPlidN3'
p2
sS'Created At'
p3
S'2015-11-28 22:11:03'
p4
s.(dp0
S'Text'
p1
S'RT @janinebucks: memHeaven+ : Progressive Memory Status Accelerator + Utilities... https://t.co/fh3iPlidN3'
p2
sS'Created At'
p3
S'2015-11-28 22:11:04'
p4
s.(dp0
S'Text'
p1
S'Having fun playing #CSRRacing for iOS, why not join me for FREE?\nhttps://t.co/WDPqgOId2R\xd8\xaf\xd9\x85'
p2
sS'Created At'
p3
S'2015-11-28 22:11:04'
p4
s.(dp0
S'Text'
p1
S"I've harvested 100 of food!  https://t.co/xKxhYVOwMO #iphone, #iphonegames, #gameinsight"
p2
sS'Created At'
p3
S'2015-11-28 22:11:04'
p4
s.(dp0
S'Text'
p1
S'I have Starclay Factory on my island! Now my island is even more awesome!  https://t.co/xKxhYVOwMO #iphone, #iphonegames, #gameinsight'
p2
sS'Created At'
p3
S'2015-11-28 22:11:04'
p4
s.(dp0
S'Text'
p1
S"I've collected 425 gold coins! https://t.co/xKxhYVOwMO #iphone, #iphonegames, #gameinsight"
p2
sS'Created At'
p3
S'2015-11-28 22:11:04'
p4
s.(dp0
S'Text'
p1
S'ABOUT TIME  https://t.co/noQAhOHOnJ'
p2
sS'Created At'
p3
S'2015-11-28 22:11:04'
p4
s.(dp0
S'Text'
p1
S'IOS Notesizer V 1.0.1 IPA Free Download - https://t.co/nbmj2hmAL2 https://t.co/eo2Q4nUZoH'
p2
sS'Created At'
p3
S'2015-11-28 22:11:05'
p4
s.(dp0
S'Text'
p1
S'RT @gabriel_habit: I can play FFVII on my iPhone. \n\nWhat a glorious time to be alive.'
p2
sS'Created At'
p3
S'2015-11-28 22:11:08'
p4
s.(dp0
S'Text'
p1
S'@matt9dawson what phone? Universal TV HD on iPhone.'
p2
sS'Created At'
p3
S'2015-11-28 22:11:08'
p4
s.(dp0
S'Text'
p1
S'Got the iPhone 6s because my iPhone 5s broke. Happy I got it but not happy I had to pay $693 \xf0\x9f\x99\x83\xf0\x9f\x99\x82'
p2
sS'Created At'
p3
S'2015-11-28 22:11:08'
p4
s.(dp0
S'Text'
p1
S'@_lizbeth_A_ Getting a new iPhone is the best. And iPhone Forever is a great plan. Get it at https://t.co/50s0cazJOn ^LW'
p2
sS'Created At'
p3
S'2015-11-28 22:11:08'
p4
s.(dp0
S'Text'
p1
S"Mfs be trynna show they lil IPhone while its naked asl\xf0\x9f\x98\x82\xf0\x9f\x98\x82 can't go got this life proof coat on my shit\xf0\x9f\x98\x8f"
p2
sS'Created At'
p3
S'2015-11-28 22:11:08'
p4
s.(dp0
S'Text'
p1
S'RT @YupThatExist: Tips for iPhone users. https://t.co/VD5hizVqD3'
p2
sS'Created At'
p3
S'2015-11-28 22:11:08'
p4
s.(dp0
S'Text'
p1
S'Ever Wondered Why You Get Two Different Choices To Answer Calls On Your iPhone? https://t.co/Lt7f4BY2Kv'
p2
sS'Created At'
p3
S'2015-11-28 22:11:08'
p4
s.(dp0
S'Text'
p1
S'Opera Mediaworks: iOS Tops Android for Mobile Ad Revenue https://t.co/iJQinBSCp3'
p2
sS'Created At'
p3
S'2015-11-28 22:11:09'
p4
s.(dp0
S'Text'
p1
S'I just gained 3 new followers using this awesome #iPhone #app @twigrow:https://t.co/q2i8GH4RrF'
p2
sS'Created At'
p3
S'2015-11-28 22:11:09'
p4
s.(dp0
S'Text'
p1
S'#Iphone 7 Features\xc2\xa0News https://t.co/kdUdydHTZT'
p2
sS'Created At'
p3
S'2015-11-28 22:11:09'
p4
s.(dp0
S'Text'
p1
S'I deleted my tweets with Tweet Cleaning IOS App. Try it https://t.co/O6YzzUbXnB #tweetcleaning'
p2
sS'Created At'
p3
S'2015-11-28 22:11:09'
p4
s.(dp0
S'Text'
p1
S'Actually THIS is better.Go to Channel 1.Great picture (russian comms). https://t.co/yejRJq3QaN'
p2
sS'Created At'
p3
S'2015-11-28 22:11:09'
p4
s.(dp0
S'Text'
p1
S'RT @Steffhdfifa_: Quick fire 250k giveaway! (IOS) \n\n-Follow me \n-RT this tweet \n-TAG mates \n\nWinner in 10-15mins https://t.co/zdqstLIAGe'
p2
sS'Created At'
p3
S'2015-11-28 22:11:10'
p4
s.(dp0
S'Text'
p1
S"I'm giving away something for you on @Listia: Cute iPhone 4/4s case . Get it here - https://t.co/ucfia0WdQ1"
p2
sS'Created At'
p3
S'2015-11-28 22:11:10'
p4
s.(dp0
S'Text'
p1
S'Apple iPhone 4 - 8GB - White (Verizon) Smartphone claim yours now via https://t.co/Ct7pJyFPM5 #iphone #ios #iphone\xe2\x80\xa6 https://t.co/7d6hGIcAxa'
p2
sS'Created At'
p3
S'2015-11-28 22:11:10'
p4
s.(dp0
S'Text'
p1
S'RT @UberFacts: George Hotz, a 17-year-old hacker, was the first to unlock a first generation iPhone\xe2\x80\x94he traded it for a Nissan 350z and 3 lo\xe2\x80\xa6'
p2
sS'Created At'
p3
S'2015-11-28 22:11:10'
p4
s.(dp0
S'Text'
p1
S'Sucks to see people so desperate to get the new iPhone'
p2
sS'Created At'
p3
S'2015-11-28 22:11:10'
p4
s.(dp0
S'Text'
p1
S'Microsoft starts rolling out Cortana for iOS https://t.co/SQmWPxPXQN https://t.co/2q9KBELHTS'
p2
sS'Created At'
p3
S'2015-11-28 22:11:11'
p4
s.(dp0
S'Text'
p1
S'@Schraeder5 l want this so bad! https://t.co/LsuiylI1CV'
p2
sS'Created At'
p3
S'2015-11-28 22:11:11'
p4
s.(dp0
S'Text'
p1
S'iPhone 6s Plus Case, Pigeon [Kickstand Feature] \xc3\x82\xc2\xa0Wallet Case, Luxury Premium PU Le https://t.co/7zLJ4dd1sY https://t.co/fOhnx0j30i'
p2
sS'Created At'
p3
S'2015-11-28 22:11:11'
p4
s.(dp0
S'Text'
p1
S'Feel As Being Celebrity With Apple Iphone\xc2\xa04 https://t.co/YXl1Z4njGI https://t.co/gutENI9TeC'
p2
sS'Created At'
p3
S'2015-11-28 22:11:12'
p4
s.(dp0
S'Text'
p1
S'RT @JCSKDK: #EnoughIsEnough Obama Says \xe2\x80\x98Enough is Enough\xe2\x80\x99 After Colorado Shooting, via @nytimes https://t.co/lI0jqn65nD'
p2
sS'Created At'
p3
S'2015-11-28 22:11:12'
p4
s.(dp0
S'Text'
p1
S'Tbh, andithandi uphendula iphone yam'
p2
sS'Created At'
p3
S'2015-11-28 22:11:13'
p4
s.(dp0
S'Text'
p1
S"@JackForDays @Ghostman96chris I'm actually getting an iPhone 6s today"
p2
sS'Created At'
p3
S'2015-11-28 22:11:13'
p4
s.(dp0
S'Text'
p1
S'So There\xe2\x80\x99s A Hidden Map On Your iPhone That Records Everywhere You\xe2\x80\x99ve Been (Yes, Really) https://t.co/W1J2Yj3eB8 via @Herdotie'
p2
sS'Created At'
p3
S'2015-11-28 22:11:14'
p4
s.(dp0
S'Text'
p1
S"RT @uktechnews: [PC Advisor] Cortana for iOS beta arrives (but it isn't for everyone) https://t.co/PHoZqKo8Es"
p2
sS'Created At'
p3
S'2015-11-28 22:11:14'
p4
s.(dp0
S'Text'
p1
S'Apple Iphone Contract \xe2\x80\x93 Best Method To Buy A\xc2\xa0Smartphone https://t.co/VbrF6ccPNn https://t.co/MzDxGtBvtn'
p2
sS'Created At'
p3
S'2015-11-28 22:11:14'
p4
s.(dp0
S'Text'
p1
S'RT @UberFacts: George Hotz, a 17-year-old hacker, was the first to unlock a first generation iPhone\xe2\x80\x94he traded it for a Nissan 350z and 3 lo\xe2\x80\xa6'
p2
sS'Created At'
p3
S'2015-11-28 22:11:15'
p4
s.(dp0
S'Text'
p1
S'Gold Stucco IPHONE C https://t.co/ywHysQiUiL #pinit'
p2
sS'Created At'
p3
S'2015-11-28 22:11:16'
p4
s.(dp0
S'Text'
p1
S'Having fun playing #CSRRacing for iOS, why not join me for FREE?\nhttps://t.co/N5YjVkBimI'
p2
sS'Created At'
p3
S'2015-11-28 22:11:17'
p4
s.(dp0
S'Text'
p1
S"I'm now an E-List celebrity in Kim Kardashian: Hollywood. You can be famous too by playing on iPhone!  https://t.co/QAkrEgtHFi"
p2
sS'Created At'
p3
S'2015-11-28 22:11:17'
p4
s.(dp0
S'Text'
p1
S'https://t.co/GlZ5hmPKnY #5085 NEW Home Menu Button Flex Ribbon Replacement For iPhone 4S + 5Tools https://t.co/EnUKuIr6tT'
p2
sS'Created At'
p3
S'2015-11-28 22:11:16'
p4
s.(dp0
S'Text'
p1
S'#10BillionWives \nI married15,374,776,603,778Wives!\n\niOS: https://t.co/ZsKd4ZG9GZ\nAndroid: https://t.co/7a8HI2QKDB https://t.co/npSRZqRI7c'
p2
sS'Created At'
p3
S'2015-11-28 22:11:16'
p4
s.(dp0
S'Text'
p1
S'My bro left his iphone. Whats up dudes https://t.co/uewe8nOukA'
p2
sS'Created At'
p3
S'2015-11-28 22:11:17'
p4
s.(dp0
S'Text'
p1
S'#\xe4\xbf\xba\xe3\x81\xae\xe3\x82\xb9\xe3\x83\x88\xe3\x83\xbc\xe3\x82\xab\xe3\x83\xbc\niPhone\xe3\x83\xbbiPad \nhttps://t.co/87o3GgWVpn\nAndroid \nhttps://t.co/x4JLCm7Cum https://t.co/7QQPWw5Q3Z'
p2
sS'Created At'
p3
S'2015-11-28 22:11:17'
p4
s.(dp0
S'Text'
p1
S'https://t.co/xs9vXTlJxv #8374 Highend Berry TPU Case Cover Cap for iPhone 6 Plus (Paradise) https://t.co/atpAd2ibcv'
p2
sS'Created At'
p3
S'2015-11-28 22:11:17'
p4
s.(dp0
S'Text'
p1
S"I've just finished Following Madam X's Trail! I'd love for you to come! https://t.co/4ht6obYi1p #iphone #iphonegames #gameinsight"
p2
sS'Created At'
p3
S'2015-11-28 22:11:18'
p4
s.(dp0
S'Text'
p1
S"I've harvested 1,100 of food!  https://t.co/xKxhYVOwMO #iphone, #iphonegames, #gameinsight"
p2
sS'Created At'
p3
S'2015-11-28 22:11:18'
p4
s.(dp0
S'Text'
p1
S'https://t.co/NMFHA3pScb #7551 New Black Lower Dock Charge Port Connector Assembly for iPhone 3G 8/16GB+5 Tools https://t.co/o6Ujgf6oRD'
p2
sS'Created At'
p3
S'2015-11-28 22:11:17'
p4
s.(dp0
S'Text'
p1
S"I've collected 20,120 gold coins! https://t.co/xKxhYVOwMO #iphone, #iphonegames, #gameinsight"
p2
sS'Created At'
p3
S'2015-11-28 22:11:18'
p4
s.(dp0
S'Text'
p1
S'https://t.co/MmdaoTkZoa #4352 Peanuts Snoopy PU Case Cover Pouch Neck Strap for iPhone 6 (School Bus) https://t.co/8cFxlH66UX'
p2
sS'Created At'
p3
S'2015-11-28 22:11:18'
p4
s.(dp0
S'Text'
p1
S'March Of Empires Android iOS HD Gameplay 2015: https://t.co/D8W0NldOMj via @YouTube'
p2
sS'Created At'
p3
S'2015-11-28 22:11:18'
p4
s.(dp0
S'Text'
p1
S"I've just finished A Cup of Divination! I'd love for you to come! https://t.co/4ht6obYi1p #iphone #iphonegames #gameinsight"
p2
sS'Created At'
p3
S'2015-11-28 22:11:19'
p4
s.(dp0
S'Text'
p1
S"I have completed the quest 'Find three Treasures.' in the #iPhone game The Tribez.  https://t.co/3yzjioBYId #iphonegames, #gameinsight"
p2
sS'Created At'
p3
S'2015-11-28 22:11:19'
p4
s.(dp0
S'Text'
p1
S'https://t.co/KJjnRLB3Uh #7826 KLOGI PU Leather Case Cover Strap for iPhone 6 Plus (Orange) https://t.co/bJIvniWzIc'
p2
sS'Created At'
p3
S'2015-11-28 22:11:19'
p4
s.(dp0
S'Text'
p1
S'https://t.co/CRuN4APNth #0376 Puzzle and Dragons x Su-Pen Touch Screen Pen Stylus for iPhone/iPad/iPod https://t.co/QLayoGlR7p'
p2
sS'Created At'
p3
S'2015-11-28 22:11:19'
p4
s.(dp0
S'Text'
p1
S'listen now :  Gabriela Anders Fire Of Love  on ZEN FOR YOU RADIO\nFREE APP IPHONE / ANDROID\nhttps://t.co/tqcO4JxpNp'
p2
sS'Created At'
p3
S'2015-11-28 22:11:20'
p4
s.(dp0
S'Text'
p1
S'@shylady37 LUV4LUV UKG VOL.1 Mixed by @DJPyro Android https://t.co/1UbX99fquD / Iphone https://t.co/HRNGPh0t9Q https://t.co/SjX0OMUGEW'
p2
sS'Created At'
p3
S'2015-11-28 22:11:20'
p4
s.(dp0
S'Text'
p1
S'https://t.co/HZhuWByz68 #6545 KLOGI PU Leather Case Cover Strap for iPhone 6 Plus (Pink) https://t.co/8vgcwHvxH1'
p2
sS'Created At'
p3
S'2015-11-28 22:11:20'
p4
s.(dp0
S'Text'
p1
S'https://t.co/UfPoo69Soy #2786 KLOGI Hearts PU Leather Case Cover Strap for iPhone 6 Plus/ 6s Plus (Beige) https://t.co/hsiFuUiIFQ'
p2
sS'Created At'
p3
S'2015-11-28 22:11:21'
p4
s.(dp0
S'Text'
p1
S'https://t.co/BxcAi4UMXN #2469 Lot of 2 Comfort Zone Elastic Suede Finger Strap Mobile Tablet Compatible Iphone https://t.co/OHyifggBgV'
p2
sS'Created At'
p3
S'2015-11-28 22:11:21'
p4
s.(dp0
S'Text'
p1
S'RT @UberFacts: George Hotz, a 17-year-old hacker, was the first to unlock a first generation iPhone\xe2\x80\x94he traded it for a Nissan 350z and 3 lo\xe2\x80\xa6'
p2
sS'Created At'
p3
S'2015-11-28 22:11:22'
p4
s.(dp0
S'Text'
p1
S'Adios Verizon!  Hola Sprint! Three new iPhone Forever lines at Target in Kirkwood. @JLeRoy01 @SprintCentral https://t.co/S4gXRSZEp5'
p2
sS'Created At'
p3
S'2015-11-28 22:11:22'
p4
s.(dp0
S'Text'
p1
S"RT @DeezNutts_: Mfs be trynna show they lil IPhone while its naked asl\xf0\x9f\x98\x82\xf0\x9f\x98\x82 can't go got this life proof coat on my shit\xf0\x9f\x98\x8f"
p2
sS'Created At'
p3
S'2015-11-28 22:11:22'
p4
s.(dp0
S'Text'
p1
S'https://t.co/hiAPSeCa6o #7921 F/S Su-Pen Mini Stylus Pen WHITE GOLD Plated for PUZDRA iPhone/iPad P201S-MSWG https://t.co/SkZPKeqJhI'
p2
sS'Created At'
p3
S'2015-11-28 22:11:22'
p4
s.(dp0
S'Text'
p1
S'3D Sculpture Design Rose Flower Hard Plastic Cover Case For iPhone 4 4S Pink Y#B - Bid Now\xe2\x80\xa6 https://t.co/kJbjPdy30l https://t.co/NkPMzh8sMT'
p2
sS'Created At'
p3
S'2015-11-28 22:11:23'
p4
s.(dp0
S'Text'
p1
S'https://t.co/3gYpymzaHn #9368 simasima ZOOPY Plush Doll Mobile Case Cover Stand for iPhone 6 (Horse) https://t.co/IGrBLtwzRE'
p2
sS'Created At'
p3
S'2015-11-28 22:11:23'
p4
s.(dp0
S'Text'
p1
S'Silk Leather Wallet Stand Case Cover For Apple iPhone 4 4G 4S Luxury Slot Slim - Bid Now! \xe2\x80\xa6 https://t.co/vfJhEM8ASi https://t.co/w16uE04py6'
p2
sS'Created At'
p3
S'2015-11-28 22:11:24'
p4
s.(dp0
S'Text'
p1
S'https://t.co/sAx6mQ2eCr #2396 Simplism Fabric Strap Hard Case Cover for iPhone 6s Plus / 6 Plus (Camouflage) https://t.co/AZjUIkvSaT'
p2
sS'Created At'
p3
S'2015-11-28 22:11:24'
p4
s.(dp0
S'Text'
p1
S'https://t.co/txsGmCJK5o #2147 Apple iPhone 5s - 16gb - Factory GSM Unlocked Smartphone (B) https://t.co/cD2rmcD5lS'
p2
sS'Created At'
p3
S'2015-11-28 22:11:24'
p4
s.(dp0
S'Text'
p1
S'RT @TweetChelseaFC: Anyone got an iPhone stream of the Klitschko/Fury fight?'
p2
sS'Created At'
p3
S'2015-11-28 22:11:24'
p4
s.(dp0
S'Text'
p1
S'Hybrid Rugged Rubber Matte Hard Case Cover For iPhone 4 4S +Screen protector+Pen - Bid Now\xe2\x80\xa6 https://t.co/TcMMiRI6vC https://t.co/TowhAiubbX'
p2
sS'Created At'
p3
S'2015-11-28 22:11:24'
p4
s.(dp0
S'Text'
p1
S'RT @UberFacts: George Hotz, a 17-year-old hacker, was the first to unlock a first generation iPhone\xe2\x80\x94he traded it for a Nissan 350z and 3 lo\xe2\x80\xa6'
p2
sS'Created At'
p3
S'2015-11-28 22:11:25'
p4
s.(dp0
S'Text'
p1
S'https://t.co/0uLKK1aUOt #1387 Apple iPhone 5S 16GB 32GB 64GB  "Factory Unlocked" Black White Gold Smartphone https://t.co/C54rPTZT30'
p2
sS'Created At'
p3
S'2015-11-28 22:11:25'
p4
s.(dp0
S'Text'
p1
S'https://t.co/qmA5CTftxj #7039 AT&amp;T iPhone 5c 16GB Apple Factory Unlocked Smartphone Clean Esn https://t.co/zKQoyxBC7G'
p2
sS'Created At'
p3
S'2015-11-28 22:11:25'
p4
s.(dp0
S'Text'
p1
S'RT @MadeManJama: I bought an IPhone in Somalia it looked like a Nokia 3210 as I was leaving some lady started following me I said Who Are Y\xe2\x80\xa6'
p2
sS'Created At'
p3
S'2015-11-28 22:11:26'
p4
s.(dp0
S'Text'
p1
S'https://t.co/koawv6DVv5 #3440 Apple iPhone 4S 16GB "Factory Unlocked" Black and White Smartphone https://t.co/ecqKolOrBk'
p2
sS'Created At'
p3
S'2015-11-28 22:11:26'
p4
s.(dp0
S'Text'
p1
S"I'm earning #mPLUSRewards in Light Da Fuse iOS. https://t.co/fuWmGYocI9"
p2
sS'Created At'
p3
S'2015-11-28 22:11:27'
p4
s.(dp0
S'Text'
p1
S'https://t.co/GU6ovsmVL9 #6873 Apple iPhone 5s - 32GB (Factory Unlocked) Smartphone - Gold - Silver - Gray https://t.co/lo1XMPLQiQ'
p2
sS'Created At'
p3
S'2015-11-28 22:11:27'
p4
s.(dp0
S'Text'
p1
S'I just added this to my closet on Poshmark: Mandala flower iPhone 6 phone case. https://t.co/9CAGEtf75E via @poshmarkapp #shopmycloset'
p2
sS'Created At'
p3
S'2015-11-28 22:11:27'
p4
s.(dp0
S'Text'
p1
S'Jellibean Apple iPhone 5 5S Aircushion Gel Silicone Case Cover (iP5-162) #AlexJones https://t.co/57fKek7aGK https://t.co/ybiSAVxbJD'
p2
sS'Created At'
p3
S'2015-11-28 22:11:27'
p4
s.(dp0
S'Text'
p1
S'https://t.co/Z4AJaMWmds #4965 Apple iPhone 4S 16GB "Factory Unlocked" Black and White Smartphone https://t.co/1HwOXtMTwt'
p2
sS'Created At'
p3
S'2015-11-28 22:11:27'
p4
s.(dp0
S'Text'
p1
S'Australia 100. Bad Blood - Taylor Swift https://t.co/UzaBTtbsnC #Music #iTunes #iPhone #Apple'
p2
sS'Created At'
p3
S'2015-11-28 22:11:28'
p4
s.(dp0
S'Text'
p1
S'https://t.co/GF4MMZhSJa #3363 Apple iPhone 5s - 16GB (Factory Unlocked) Smartphone - Gold - Silver - Gray https://t.co/geHlqtEF8U'
p2
sS'Created At'
p3
S'2015-11-28 22:11:28'
p4
s.(dp0
S'Text'
p1
S'Jellibean Apple iPhone 5 / 5S Clear TPU Gel Silicone Case Cover (iP5-18) #AlexJones https://t.co/Skz9LdtYSc https://t.co/zeG0vCdRsK'
p2
sS'Created At'
p3
S'2015-11-28 22:11:28'
p4
s.(dp0
S'Text'
p1
S'https://t.co/WFZdNLXVqf #1823 Apple iPhone 5S 16GB "Factory Unlocked" Gray - Gold - Silver  Smartphone https://t.co/SQX2w8Ac1Q'
p2
sS'Created At'
p3
S'2015-11-28 22:11:29'
p4
s.(dp0
S'Text'
p1
S'Apple iPhone 6/6S Black Wallet Case  #AlexJones https://t.co/4UHkKN4tyI https://t.co/eGqLmsdOg4'
p2
sS'Created At'
p3
S'2015-11-28 22:11:29'
p4
s.(dp0
S'Text'
p1
S'Shop cheap electronics https://t.co/SXDNzYTqbG Samsung Galaxy S5 16 GB - Shimmery White AT&amp;T GSM. Apple iPhone 6 - 16 GB Color Gold, Stores'
p2
sS'Created At'
p3
S'2015-11-28 22:11:29'
p4
s.(dp0
S'Text'
p1
S'https://t.co/7vbzn1O3t0 #8876 Apple iPhone 5S 16GB "Factory Unlocked" 4G LTE iOS Smartphone https://t.co/VPuN529v5T'
p2
sS'Created At'
p3
S'2015-11-28 22:11:29'
p4
s.(dp0
S'Text'
p1
S'MY IPHONE WAS SHIPPED ALREADY YAYAYAYAYA'
p2
sS'Created At'
p3
S'2015-11-28 22:11:30'
p4
s.(dp0
S'Text'
p1
S'Australia 92. Party In the U.S.A. - Miley Cyrus https://t.co/KgFliMLrgP #Music #Video #iTunes #iPhone #Apple #Mac'
p2
sS'Created At'
p3
S'2015-11-28 22:11:30'
p4
s.(dp0
S'Text'
p1
S'Jellibean Apple iPhone 6 Black Heavy Duty Hard Shockproof Case Cover (iP6-104) #AlexJones https://t.co/Ulvzw2OKjM https://t.co/s2uaxXHA1l'
p2
sS'Created At'
p3
S'2015-11-28 22:11:30'
p4
s.(dp0
S'Text'
p1
S'https://t.co/YXHFdUiltY #5432 Apple iPhone 5s - 16gb - Factory GSM Unlocked Smartphone (B) https://t.co/OAUOfxJe0y'
p2
sS'Created At'
p3
S'2015-11-28 22:11:30'
p4
s.(dp0
S'Text'
p1
S'Jellibean Apple iPhone 5 5S Heavy Duty Shockproof Hard Case Cover (iP5-198) #AlexJones https://t.co/UbCs384HBn https://t.co/IUOallXrkp'
p2
sS'Created At'
p3
S'2015-11-28 22:11:31'
p4
s.(dp0
S'Text'
p1
S'RT @long_live_bake: iPhone 6s Plus clutch'
p2
sS'Created At'
p3
S'2015-11-28 22:11:31'
p4
s.(dp0
S'Text'
p1
S'https://t.co/FPPQZWJ0eu #0428 Apple iPhone 4S 16GB "Factory Unlocked" Black and White Smartphone https://t.co/KWc8WuiUHA'
p2
sS'Created At'
p3
S'2015-11-28 22:11:31'
p4
s.(dp0
S'Text'
p1
S"I'm now an A-List celebrity in Kim Kardashian: Hollywood. You can be famous too by playing on iPhone!  https://t.co/EBB048SbsS"
p2
sS'Created At'
p3
S'2015-11-28 22:11:31'
p4
s.(dp0
S'Text'
p1
S'Jellibean Apple iPhone 6S Ultra Thin Clear Gel Silicone Case Cover (iP6S-12) #AlexJones https://t.co/8t2ScbkmsH https://t.co/9pwfrnLl3w'
p2
sS'Created At'
p3
S'2015-11-28 22:11:31'
p4
s.(dp0
S'Text'
p1
S'https://t.co/qhCVvuwDHh #0518 Apple iPhone 4S 16GB "Factory Unlocked" Black and White Smartphone https://t.co/HP4KAv5jkV'
p2
sS'Created At'
p3
S'2015-11-28 22:11:31'
p4
s.(dp0
S'Text'
p1
S'Australia 93. The Christmas Album 2015 - Various Artists https://t.co/RqtgkjnSyw #Music #iTunes #iPhone #Apple'
p2
sS'Created At'
p3
S'2015-11-28 22:11:32'
p4
s.(dp0
S'Text'
p1
S'https://t.co/Vp1FZv9n77 #8705 Apple iPhone 5S 16GB AT&amp;T 4G LTE Smartphone https://t.co/fndUDOtmGv'
p2
sS'Created At'
p3
S'2015-11-28 22:11:32'
p4
s.(dp0
S'Text'
p1
S'@mycom_official other than the app for iPhone &amp; iPad is there a way to set up mail without the app?'
p2
sS'Created At'
p3
S'2015-11-28 22:11:32'
p4
s.(dp0
S'Text'
p1
S'RT @SethMacFarlane: Y\'know what\'d be a great thing? Bungee-Texting:  iPhone feature that lets you "yank back" texts within ten-second windo\xe2\x80\xa6'
p2
sS'Created At'
p3
S'2015-11-28 22:11:32'
p4
s.(dp0
S'Text'
p1
S'Ultra Clear Thin Soft Silicone TPU Case Cover For Apple iPhone 6/6S Free Film xg #AlexJones https://t.co/2ujIVRHBs4 https://t.co/naswiyuAAM'
p2
sS'Created At'
p3
S'2015-11-28 22:11:32'
p4
s.(dp0
S'Text'
p1
S'#Iphone 7 Features\xc2\xa0News https://t.co/Gh6ylQENVI'
p2
sS'Created At'
p3
S'2015-11-28 22:11:32'
p4
s.(dp0
S'Text'
p1
S'https://t.co/M7xr9i75cv #0813 New Apple iPhone 5c 16GB Blue Factory Unlocked World Phone Smartphone https://t.co/F5DO1rSKaA'
p2
sS'Created At'
p3
S'2015-11-28 22:11:32'
p4
s.(dp0
S'Text'
p1
S"I'm using Facebook ++ by @unlimapps for iOS to add new features to Facebook! https://t.co/1nSQKuyyXr"
p2
sS'Created At'
p3
S'2015-11-28 22:11:32'
p4
s.(dp0
S'Text'
p1
S'https://t.co/8HVBKHt72S #3242 Apple iPhone 5 - 16GB - (Factory Unlocked) Smartphone - White or Black https://t.co/9EypjqIBAe'
p2
sS'Created At'
p3
S'2015-11-28 22:11:32'
p4
s.(dp0
S'Text'
p1
S'Ultra Clear Thin Soft Silicone TPU Case Cover For Apple iPhone 6/6S Free Film xo #AlexJones https://t.co/7cFgGOu5l5 https://t.co/3p8zpdR4NJ'
p2
sS'Created At'
p3
S'2015-11-28 22:11:33'
p4
s.(dp0
S'Text'
p1
S'https://t.co/UKAPtwJxsR #3435 Apple iPhone 5C 32GB "Factory Unlocked" 4G LTE Smartphone https://t.co/dD8tDLXpNl'
p2
sS'Created At'
p3
S'2015-11-28 22:11:33'
p4
s.(dp0
S'Text'
p1
S'Just jammed my iPhone in my car door, no damage.. \xf0\x9f\x91\x8c'
p2
sS'Created At'
p3
S'2015-11-28 22:11:34'
p4
s.(dp0
S'Text'
p1
S"I've finished the Clearing Off Windfall quest! Are you able to fulfil the same task? https://t.co/nTbbBP2qXl #iphone,#iphonegames,#gam..."
p2
sS'Created At'
p3
S'2015-11-28 22:11:34'
p4
s.(dp0
S'Text'
p1
S'https://t.co/s4QxTgs1SG #4339 Apple iPhone 5s - 16GB (Factory Unlocked) Smartphone  Space Gray - Silver - Gold https://t.co/FnxogzM7bz'
p2
sS'Created At'
p3
S'2015-11-28 22:11:34'
p4
s.(dp0
S'Text'
p1
S'RT @BonjourPao: Creado con Photo Grid.\n\nAndroid\n\nhttps://t.co/LngYWDmMEP\n\niPhone\n\nhttps://t.co/hOlTauZtzn\n\n@ferBertona22 https://t.co/lAVQt\xe2\x80\xa6'
p2
sS'Created At'
p3
S'2015-11-28 22:11:34'
p4
s.(dp0
S'Text'
p1
S'https://t.co/0Du1bIMHeR #0767 Apple iPhone 5s - 16GB - Space Gray (Factory Unlocked) Smartphone https://t.co/NCyJgZ7HMp'
p2
sS'Created At'
p3
S'2015-11-28 22:11:34'
p4
s.(dp0
S'Text'
p1
S'For iPhone 5 5S CLEAR Transparent TPU Silicon Gel Case Cover *FREE Screen Guard* #AlexJones https://t.co/RFeaAtCdDQ https://t.co/99pgkVGlpG'
p2
sS'Created At'
p3
S'2015-11-28 22:11:35'
p4
s.(dp0
S'Text'
p1
S'90S STARTAC IPHONE\xc2\xae CASE *EOL - R90 from Mantality (South Africa) \n https://t.co/mwvTFpgViY'
p2
sS'Created At'
p3
S'2015-11-28 22:11:35'
p4
s.(dp0
S'Text'
p1
S'A 2008 BMW 5 Series was just scanned https://t.co/Pa268hmek6 #ios #android #vinnyapp'
p2
sS'Created At'
p3
S'2015-11-28 22:11:36'
p4
s.(dp0
S'Text'
p1
S'RT @iDont_WorkHere: Now Playing Feel Trip Mixtape by M-A via @DatPiff for iOS https://t.co/S8ZOvtWnjX'
p2
sS'Created At'
p3
S'2015-11-28 22:11:36'
p4
s.(dp0
S'Text'
p1
S'Apple iPhone Silicon Case Black Iphone6 #AlexJones https://t.co/NtEeKTQPYQ https://t.co/LOXyYtEecP'
p2
sS'Created At'
p3
S'2015-11-28 22:11:37'
p4
s.(dp0
S'Text'
p1
S'RT @UberFacts: George Hotz, a 17-year-old hacker, was the first to unlock a first generation iPhone\xe2\x80\x94he traded it for a Nissan 350z and 3 lo\xe2\x80\xa6'
p2
sS'Created At'
p3
S'2015-11-28 22:11:38'
p4
s.(dp0
S'Text'
p1
S"if anyone has an old iPhone from verizon I can have/buy that'd be awesome!!!"
p2
sS'Created At'
p3
S'2015-11-28 22:11:38'
p4
s.(dp0
S'Text'
p1
S'RT @OmarImranTweets: "Y dnt u Muslims tell ISIS to stop"\n\nOk hold up *pulls out iphone*\n\n"Yo ISIS habibi,its me plz stop"\n\nISIS:"ok habibi \xe2\x80\xa6'
p2
sS'Created At'
p3
S'2015-11-28 22:11:39'
p4
s.(dp0
S'Text'
p1
S"I'm playing #BestOfBritish from #ReflexGaming on my iPhone! https://t.co/LDKQ3VQoji https://t.co/Xey8WtMpgY"
p2
sS'Created At'
p3
S'2015-11-28 22:11:39'
p4
s.(dp0
S'Text'
p1
S'RT @baermktg: Opera Mediaworks: iOS Tops Android for Mobile Ad Revenue https://t.co/iJQinBSCp3'
p2
sS'Created At'
p3
S'2015-11-28 22:11:40'
p4
s.(dp0
S'Text'
p1
S'RT @kimberly94s: I want the rose gold iPhone 6s'
p2
sS'Created At'
p3
S'2015-11-28 22:11:40'
p4
s.(dp0
S'Text'
p1
S'Obama Says \xe2\x80\x98Enough is Enough\xe2\x80\x99 After Colorado Shooting, via @nytimes https://t.co/RMtdMKX6Cc'
p2
sS'Created At'
p3
S'2015-11-28 22:11:40'
p4
s.(dp0
S'Text'
p1
S'Anyone want another chance to win the iPhone 6S? Go follow my organizations twitter ---------&gt; @CreationsHQ'
p2
sS'Created At'
p3
S'2015-11-28 22:11:41'
p4
s.(dp0
S'Text'
p1
S'RT @mufc_75: You can thank me later \n\nPerfect quality link to the fight on IOS or mobile\n\nhttps://t.co/An1OPjyVyv'
p2
sS'Created At'
p3
S'2015-11-28 22:11:44'
p4
s.(dp0
S'Text'
p1
S'I just want my iPhone back.'
p2
sS'Created At'
p3
S'2015-11-28 22:11:44'
p4
s.(dp0
S'Text'
p1
S'He says a lot of things, though. https://t.co/YXpjFfuhHI'
p2
sS'Created At'
p3
S'2015-11-28 22:11:45'
p4
s.(dp0
S'Text'
p1
S'RT @UberFacts: George Hotz, a 17-year-old hacker, was the first to unlock a first generation iPhone\xe2\x80\x94he traded it for a Nissan 350z and 3 lo\xe2\x80\xa6'
p2
sS'Created At'
p3
S'2015-11-28 22:11:45'
p4
s.(dp0
S'Text'
p1
S'I love having an iPhone i love facetime what the heck https://t.co/hlTkebLHqW'
p2
sS'Created At'
p3
S'2015-11-28 22:11:46'
p4
s.(dp0
S'Text'
p1
S'Apple iPhone 5 - 16GB - Black &amp; Slate (Unlocked) Smartphone - Bid Now! Only $44.0 https://t.co/i0mUSC8xJv https://t.co/qFiMSTPW9p'
p2
sS'Created At'
p3
S'2015-11-28 22:11:46'
p4
s.(dp0
S'Text'
p1
S'Apple iPhone 5 - 64GB - Black &amp; Slate (AT&amp;T) Smartphone Great Shape! - Bid Now! Only $56.0 https://t.co/cWdI0QB954 https://t.co/Z7llWbpOhM'
p2
sS'Created At'
p3
S'2015-11-28 22:11:47'
p4
s.(dp0
S'Text'
p1
S'#hackyou https://t.co/Fnfnvb9qDp https://t.co/kFxckhHYsE - 16 iOS Apps Worth Buying  #productivitytips  #lifehac\xe2\x80\xa6 https://t.co/zBcj7c0o8g'
p2
sS'Created At'
p3
S'2015-11-28 22:11:47'
p4
s.(dp0
S'Text'
p1
S'RT @JasonOrtiaga: my sis dropped her rose gold iPhone 6S \xf0\x9f\x98\x82\xf0\x9f\x98\x82\xf0\x9f\x98\x82\xf0\x9f\x98\x82\xf0\x9f\x98\x82\xf0\x9f\x98\x82\xf0\x9f\x98\x82\xf0\x9f\x98\x82\xf0\x9f\x98\x82\xf0\x9f\x98\xa9\xf0\x9f\x98\xa9\xf0\x9f\x98\xa9\xf0\x9f\x98\xa9\xf0\x9f\x92\x80 http://t.co/Ia6b2jgwbN'
p2
sS'Created At'
p3
S'2015-11-28 22:11:47'
p4
s.(dp0
S'Text'
p1
S'Apple iPhone 5s - 64GB - Silver (AT&amp;T) Smartphone / with Many Extras! - Bid Now! Only $326\xe2\x80\xa6 https://t.co/QOpzOKoxiX https://t.co/CadMEwMunH'
p2
sS'Created At'
p3
S'2015-11-28 22:11:47'
p4
s.(dp0
S'Text'
p1
S'IPhone https://t.co/7EizZLxwHz'
p2
sS'Created At'
p3
S'2015-11-28 22:11:48'
p4
s.(dp0
S'Text'
p1
S'Unlocked Apple iPhone 5 - 32GB - White &amp; Silver (AT&amp;T) With Extras!!! - Bid Now! Only $135\xe2\x80\xa6 https://t.co/Wf1YUR12nA https://t.co/Pu8eYjFT47'
p2
sS'Created At'
p3
S'2015-11-28 22:11:48'
p4
s.(dp0
S'Text'
p1
S'Brought a new iPhone with my own contract today... Man I feel so grown up\xf0\x9f\x92\x81\xf0\x9f\x8f\xbd'
p2
sS'Created At'
p3
S'2015-11-28 22:11:48'
p4
s.(dp0
S'Text'
p1
S"can someone explain to me why I would get anything except the 16gb iPhone (it's cheaper) if I can just buy iCloud storage?"
p2
sS'Created At'
p3
S'2015-11-28 22:11:48'
p4
s.(dp0
S'Text'
p1
S'11:11 buy an iphone 6 for christmas'
p2
sS'Created At'
p3
S'2015-11-28 22:11:48'
p4
s.(dp0
S'Text'
p1
S'RT @JCSKDK: #EnoughIsEnough Obama Says \xe2\x80\x98Enough is Enough\xe2\x80\x99 After Colorado Shooting, via @nytimes https://t.co/lI0jqn65nD'
p2
sS'Created At'
p3
S'2015-11-28 22:11:49'
p4
s.(dp0
S'Text'
p1
S'memHeaven+ : Progressive Memory Status Accelerator + #Utilities... https://t.co/c8QJEsNq5B #iphone #lifestyle'
p2
sS'Created At'
p3
S'2015-11-28 22:11:48'
p4
s.(dp0
S'Text'
p1
S'RT @UberFacts: George Hotz, a 17-year-old hacker, was the first to unlock a first generation iPhone\xe2\x80\x94he traded it for a Nissan 350z and 3 lo\xe2\x80\xa6'
p2
sS'Created At'
p3
S'2015-11-28 22:11:48'
p4
s.(dp0
S'Text'
p1
S'Apple iPhone 5c - 16GB - Green (Virgin Mobile) Smartphone - Bid Now! Only $327.0 https://t.co/2QXMtRr2Wv https://t.co/aBQmjGcGbe'
p2
sS'Created At'
p3
S'2015-11-28 22:11:49'
p4
s.(dp0
S'Text'
p1
S'@1872chriskerr any links mate for iPhone or iPad'
p2
sS'Created At'
p3
S'2015-11-28 22:11:49'
p4
s.(dp0
S'Text'
p1
S'Apple iPhone 5 - 16GB - Black &amp; Slate (Unlocked) Smartphone - Bid Now! Only $44.0 https://t.co/i0mUSC8xJv https://t.co/qtjJwchczZ'
p2
sS'Created At'
p3
S'2015-11-28 22:11:50'
p4
s.(dp0
S'Text'
p1
S'Got a iPhone 6s'
p2
sS'Created At'
p3
S'2015-11-28 22:11:50'
p4
s.(dp0
S'Text'
p1
S'Apple iPhone 5 - 64GB - Black &amp; Slate (AT&amp;T) Smartphone Great Shape! - Bid Now! Only $56.0 https://t.co/cWdI0QB954 https://t.co/kSyJgFoQ0H'
p2
sS'Created At'
p3
S'2015-11-28 22:11:51'
p4
s.(dp0
S'Text'
p1
S'RT @PayetiBolognese: This scumbag stole my brand new iPhone 6s, and forgot that the pictures upload to my iCloud. RT to find this thief. ht\xe2\x80\xa6'
p2
sS'Created At'
p3
S'2015-11-28 22:11:52'
p4
s.(dp0
S'Text'
p1
S'RT @UberFacts: George Hotz, a 17-year-old hacker, was the first to unlock a first generation iPhone\xe2\x80\x94he traded it for a Nissan 350z and 3 lo\xe2\x80\xa6'
p2
sS'Created At'
p3
S'2015-11-28 22:11:53'
p4
s.(dp0
S'Text'
p1
S'Apple Iphone Contract \xe2\x80\x93 Best Method To Buy A\xc2\xa0Smartphone https://t.co/WDvLdDm8LV https://t.co/F2Uje03OjL'
p2
sS'Created At'
p3
S'2015-11-28 22:11:52'
p4
s.(dp0
S'Text'
p1
S'Apple iPhone 5s - 64GB - Silver (AT&amp;T) Smartphone / with Many Extras! - Bid Now! Only $326\xe2\x80\xa6 https://t.co/QOpzOKoxiX https://t.co/AgXUYX6lOU'
p2
sS'Created At'
p3
S'2015-11-28 22:11:53'
p4
s.(dp0
S'Text'
p1
S'Unlocked Apple iPhone 5 - 32GB - White &amp; Silver (AT&amp;T) With Extras!!! - Bid Now! Only $135\xe2\x80\xa6 https://t.co/Wf1YUR12nA https://t.co/bDb167PLcF'
p2
sS'Created At'
p3
S'2015-11-28 22:11:54'
p4
s.(dp0
S'Text'
p1
S"Cortana for iOS beta arrives (but it isn't for everyone) - PCWorld: PCWorld Cortana for iOS beta arrives (but it isn\xe2\x80\xa6"
p2
sS'Created At'
p3
S'2015-11-28 22:11:55'
p4
s.(dp0
S'Text'
p1
S'I just moved up to level 22 in #CSRRacing for iOS! You should check it out for FREE!\nhttps://t.co/yUpMLpXbmd'
p2
sS'Created At'
p3
S'2015-11-28 22:11:55'
p4
s.(dp0
S'Text'
p1
S'Apple iPhone 5c - 16GB - Green (Virgin Mobile) Smartphone - Bid Now! Only $327.0 https://t.co/2QXMtRr2Wv https://t.co/OdsbCi1L2y'
p2
sS'Created At'
p3
S'2015-11-28 22:11:54'
p4
s.(dp0
S'Text'
p1
S'When Some Turn to Church, Others Go to CrossFit, via @nytimes https://t.co/LADnQCwOJ2'
p2
sS'Created At'
p3
S'2015-11-28 22:11:54'
p4
s.(dp0
S'Text'
p1
S"I'm now an E-List celebrity in Kim Kardashian: Hollywood. You can be famous too by playing on iPhone!  https://t.co/60VUd0bRKJ"
p2
sS'Created At'
p3
S'2015-11-28 22:11:55'
p4
s.(dp0
S'Text'
p1
S'#Iphone 7 Features\xc2\xa0News https://t.co/eMZg853fnG'
p2
sS'Created At'
p3
S'2015-11-28 22:11:56'
p4
s.(dp0
S'Text'
p1
S"Wtf my mom got a iPhone , I'm screwed. \xf0\x9f\x98\x91"
p2
sS'Created At'
p3
S'2015-11-28 22:11:57'
p4
s.(dp0
S'Text'
p1
S'When you realize you just cant switch from Iphone to Android bc of you COC Account. \xf0\x9f\x98\xad\xf0\x9f\x92\x94'
p2
sS'Created At'
p3
S'2015-11-28 22:12:01'
p4
s.(dp0
S'Text'
p1
S'RT @StreamAce: LIVE (@ 9:55PM):\nFURY VS KLITSCHKO BOXING\n*IOS/Tablet/Computer*\nhttps://t.co/bAYyzEis0p\n(Stream to start at 9:55pm)\n#StreamA\xe2\x80\xa6'
p2
sS'Created At'
p3
S'2015-11-28 22:12:01'
p4
s.(dp0
S'Text'
p1
S'RT @UberFacts: George Hotz, a 17-year-old hacker, was the first to unlock a first generation iPhone\xe2\x80\x94he traded it for a Nissan 350z and 3 lo\xe2\x80\xa6'
p2
sS'Created At'
p3
S'2015-11-28 22:12:01'
p4
s.(dp0
S'Text'
p1
S'RT @OplaRahman: Jailbreak iOS 9 Guide - https://t.co/ta4AZ0KVJV https://t.co/RA0edTUs6k'
p2
sS'Created At'
p3
S'2015-11-28 22:12:01'
p4
s.(dp0
S'Text'
p1
S'RT @UberFacts: George Hotz, a 17-year-old hacker, was the first to unlock a first generation iPhone\xe2\x80\x94he traded it for a Nissan 350z and 3 lo\xe2\x80\xa6'
p2
sS'Created At'
p3
S'2015-11-28 22:12:02'
p4
s.(dp0
S'Text'
p1
S'... and that\'s how it goes: "Apple could make your old headphones obsolete with the next iPhone" https://t.co/5tr19rPkwQ via @'
p2
sS'Created At'
p3
S'2015-11-28 22:12:03'
p4
s.(dp0
S'Text'
p1
S'RT @ShitChallenge: @ShitChallenge start the next step!\nGet an iPhone for free!*\nVisit: https://t.co/26lOKqRqLN https://t.co/A5ObkoNi5O'
p2
sS'Created At'
p3
S'2015-11-28 22:12:03'
p4
s.(dp0
S'Text'
p1
S'RT @janinebucks: memHeaven+ : Progressive Memory Status Accelerator + Utilities... https://t.co/fh3iPlidN3'
p2
sS'Created At'
p3
S'2015-11-28 22:12:04'
p4
s.(dp0
S'Text'
p1
S"Rumor: Apple to Kill Headphone Jack in iPhone 7: Don't worry; Apple will make an adapter\xe2\x80\xa6 https://t.co/t3BzzVGuxp |https://t.co/tIcRDXoLTx"
p2
sS'Created At'
p3
S'2015-11-28 22:12:04'
p4
s.(dp0
S'Text'
p1
S'\xf0\x9f\x93\xb7 Note by LKMAKE for iPhone Productivity Utilities iPhone App *** $1. \xe2\x80\xa6: https://t.co/fpVUTcCxeE https://t.co/AaLiL0Yt99'
p2
sS'Created At'
p3
S'2015-11-28 22:12:05'
p4
s.(dp0
S'Text'
p1
S'RT @Cute_Cravings: \xf0\x9f\x92\x9d BLACK FRIDAY SALE \xf0\x9f\x92\x9d\n\nOur Holiday Glitter Phone Cases are on Sale!!\n\nEnds TONIGHT! \xe2\x9b\x84\xef\xb8\x8f\xf0\x9f\x8e\x80\n\n\xf0\x9f\x91\x89\xf0\x9f\x8f\xbchttps://t.co/b6G9g6hAh5\xf0\x9f\x91\x88\xf0\x9f\x8f\xbc htt\xe2\x80\xa6'
p2
sS'Created At'
p3
S'2015-11-28 22:12:05'
p4
s.(dp0
S'Text'
p1
S'#d&amp;r iphone yahoo answers https://t.co/NBU6XBAVQi'
p2
sS'Created At'
p3
S'2015-11-28 22:12:05'
p4
s.(dp0
S'Text'
p1
S'RT @ShitChallenge: @ShitChallenge start the next step!\nGet an iPhone for free!*\nVisit: https://t.co/26lOKqRqLN https://t.co/A5ObkoNi5O'
p2
sS'Created At'
p3
S'2015-11-28 22:12:05'
p4
s.(dp0
S'Text'
p1
S'Apple iPhone 5 - 16GB - Black &amp; Slate (Unlocked) Smartphone - Bid Now! Only $44.0 https://t.co/xOWTE3FToo https://t.co/Bdz8BzAMWE'
p2
sS'Created At'
p3
S'2015-11-28 22:12:06'
p4
s.(dp0
S'Text'
p1
S'Daily Deals USA : Apple iPhone 4S 8GB "Factory Unlocked" 8.0 MP Camera Black and White Smartphone https://t.co/gMO3L38YT6 #9661'
p2
sS'Created At'
p3
S'2015-11-28 22:12:06'
p4
s.(dp0
S'Text'
p1
S'RT @UberFacts: George Hotz, a 17-year-old hacker, was the first to unlock a first generation iPhone\xe2\x80\x94he traded it for a Nissan 350z and 3 lo\xe2\x80\xa6'
p2
sS'Created At'
p3
S'2015-11-28 22:12:07'
p4
s.(dp0
S'Text'
p1
S'Apple iPhone 5 - 64GB - Black &amp; Slate (AT&amp;T) Smartphone Great Shape! - Bid Now! Only $56.0 https://t.co/LrVMp9LOu6 https://t.co/cfKb6XqrMR'
p2
sS'Created At'
p3
S'2015-11-28 22:12:06'
p4
s.(dp0
S'Text'
p1
S'Daily Deals USA : Shockproof Rugged Hybrid Rubber Hard Cover Case for iPhone 6 4.7" / 6 Plus 5.5" https://t.co/PjzOZ2EOXB #9661'
p2
sS'Created At'
p3
S'2015-11-28 22:12:07'
p4
s.(dp0
S'Text'
p1
S'Daily Deals USA : Shockproof Rugged Hybrid Rubber Hard Cover Case for iPhone 6 4.7" / 6 Plus 5.5" https://t.co/PjzOZ2EOXB #4115'
p2
sS'Created At'
p3
S'2015-11-28 22:12:07'
p4
s.(dp0
S'Text'
p1
S'RT @OplaRahman: Jailbreak iOS 9 Guide - https://t.co/ta4AZ0KVJV https://t.co/RA0edTUs6k'
p2
sS'Created At'
p3
S'2015-11-28 22:12:07'
p4
s.(dp0
S'Text'
p1
S'Apple iPhone 5s - 64GB - Silver (AT&amp;T) Smartphone / with Many Extras! - Bid Now! Only $326\xe2\x80\xa6 https://t.co/glnIb6QyZC https://t.co/7ljxfeXs0r'
p2
sS'Created At'
p3
S'2015-11-28 22:12:07'
p4
s.(dp0
S'Text'
p1
S'Help the Smurfs build a village to call home! Play on iOS and Android. @BeelineGames #SmurfsVillage https://t.co/CQsKwKYjDz'
p2
sS'Created At'
p3
S'2015-11-28 22:12:07'
p4
s.(dp0
S'Text'
p1
S'RT @OmarImranTweets: "Y dnt u Muslims tell ISIS to stop"\n\nOk hold up *pulls out iphone*\n\n"Yo ISIS habibi,its me plz stop"\n\nISIS:"ok habibi \xe2\x80\xa6'
p2
sS'Created At'
p3
S'2015-11-28 22:12:08'
p4
s.(dp0
S'Text'
p1
S'RT @verge: India is still the biggest untapped opportunity for Apple https://t.co/v7rpKw1kga https://t.co/v2WaRWmTdI'
p2
sS'Created At'
p3
S'2015-11-28 22:12:08'
p4
s.(dp0
S'Text'
p1
S'Daily Deals USA : Apple iPhone 4S 8GB "Factory Unlocked" 8.0 MP Camera Black and White Smartphone https://t.co/gMO3L38YT6 #4115'
p2
sS'Created At'
p3
S'2015-11-28 22:12:08'
p4
s.(dp0
S'Text'
p1
S"Unfollow me if PartyNextDoor isn't on your iPhone"
p2
sS'Created At'
p3
S'2015-11-28 22:12:08'
p4
s.(dp0
S'Text'
p1
S'Former Rikers Inmate Who Received Settlement Is Fatally Shot in Brooklyn, via @nytimes  https://t.co/kG64J615BE'
p2
sS'Created At'
p3
S'2015-11-28 22:12:08'
p4
s.(dp0
S'Text'
p1
S'RT @janinebucks: memHeaven+ : Progressive Memory Status Accelerator + Utilities... https://t.co/fh3iPlidN3'
p2
sS'Created At'
p3
S'2015-11-28 22:12:08'
p4
s.(dp0
S'Text'
p1
S'RT @OplaRahman: Jailbreak iOS 9 Guide - https://t.co/ta4AZ0KVJV https://t.co/RA0edTUs6k'
p2
sS'Created At'
p3
S'2015-11-28 22:12:08'
p4
s.(dp0
S'Text'
p1
S'LK Grils is here ; Phone case; New iPhone 6s case\nWe sell on wish app\n\nhttps://t.co/hbYSlM15My https://t.co/bNgjWwWV5Q'
p2
sS'Created At'
p3
S'2015-11-28 22:12:08'
p4
s.(dp0
S'Text'
p1
S'Unlocked Apple iPhone 5 - 32GB - White &amp; Silver (AT&amp;T) With Extras!!! - Bid Now! Only $135\xe2\x80\xa6 https://t.co/ueKMc4ZZvy https://t.co/euEkC0njUP'
p2
sS'Created At'
p3
S'2015-11-28 22:12:08'
p4
s.(dp0
S'Text'
p1
S'3D Sculpture Design Rose Flower Hard Plastic Cover Case For iPhone 4 4S Pink Y#B - Bid Now\xe2\x80\xa6 https://t.co/pzgm8iDwPK https://t.co/WzVLBPKEmn'
p2
sS'Created At'
p3
S'2015-11-28 22:12:08'
p4
s.(dp0
S'Text'
p1
S'@Dangerous180 https://t.co/kVvY9wHf0Xnth this is working on my iPhone pal.'
p2
sS'Created At'
p3
S'2015-11-28 22:12:09'
p4
s.(dp0
S'Text'
p1
S"'iPhone 7 and later may ditch the 3.5mm headphone port in favour of thinness.'\n\nI don't mind since all my headphones are wireless anyway."
p2
sS'Created At'
p3
S'2015-11-28 22:12:09'
p4
s.(dp0
S'Text'
p1
S'Daily Deals USA : Shockproof Rugged Hybrid Rubber Hard Cover Case for iPhone 6 4.7" / 6 Plus 5.5" https://t.co/PjzOZ2EOXB #9422'
p2
sS'Created At'
p3
S'2015-11-28 22:12:09'
p4
s.(dp0
S'Text'
p1
S'Apple iPhone 5c - 16GB - Green (Virgin Mobile) Smartphone - Bid Now! Only $327.0 https://t.co/Rpb8R9Lxab https://t.co/Oppaipfyu5'
p2
sS'Created At'
p3
S'2015-11-28 22:12:09'
p4
s.(dp0
S'Text'
p1
S'RT @mufc_75: You can thank me later \n\nPerfect quality link to the fight on IOS or mobile\n\nhttps://t.co/An1OPjyVyv'
p2
sS'Created At'
p3
S'2015-11-28 22:12:09'
p4
s.(dp0
S'Text'
p1
S'Silk Leather Wallet Stand Case Cover For Apple iPhone 4 4G 4S Luxury Slot Slim - Bid Now! \xe2\x80\xa6 https://t.co/4YRejGmGdl https://t.co/SxUGBFhqzq'
p2
sS'Created At'
p3
S'2015-11-28 22:12:09'
p4
s.(dp0
S'Text'
p1
S'Hybrid Rugged Rubber Matte Hard Case Cover For iPhone 4 4S +Screen protector+Pen - Bid Now\xe2\x80\xa6 https://t.co/HakAFPBbhl https://t.co/EqDvSwkgHF'
p2
sS'Created At'
p3
S'2015-11-28 22:12:09'
p4
s.(dp0
S'Text'
p1
S'RT @Cute_Cravings: \xf0\x9f\x8e\x84 SATURDAY SALE \xf0\x9f\x8e\x84\n\nOur Holiday Glitter Phone Cases are on Sale!!\n\nEnds TONIGHT! \xe2\x9b\x84\xef\xb8\x8f\xf0\x9f\x8e\x80\n\n\xf0\x9f\x91\x89\xf0\x9f\x8f\xbchttps://t.co/b6G9g6hAh5\xf0\x9f\x91\x88\xf0\x9f\x8f\xbc https:/\xe2\x80\xa6'
p2
sS'Created At'
p3
S'2015-11-28 22:12:10'
p4
s.(dp0
S'Text'
p1
S'Daily Deals USA : Apple iPhone 4S 8GB "Factory Unlocked" 8.0 MP Camera Black and White Smartphone https://t.co/gMO3L38YT6 #9422'
p2
sS'Created At'
p3
S'2015-11-28 22:12:10'
p4
s.(dp0
S'Text'
p1
S'RT EvelynSmithh: RT Antonette_Armen: \xf0\x9f\x91\x8d#SmartWatches New U8 Smart #Bluetooth Watch Phone Mate For #iPhone #Android \xe2\x80\xa6 https://t.co/iauoLgCYRG'
p2
sS'Created At'
p3
S'2015-11-28 22:12:11'
p4
s.(dp0
S'Text'
p1
S'Having fun playing #CSRRacing for iOS, why not join me for FREE?\nhttps://t.co/ze3Az4vpLV'
p2
sS'Created At'
p3
S'2015-11-28 22:12:11'
p4
s.(dp0
S'Text'
p1
S'RT EvelynSmithh: RT negreteeashley: \xf0\x9f\x91\x8d\xe2\x9c\x8b#SmartWatches Top #Bluetooth Smart U8 Wrist Watch Phone Mate for #iPhone IOS\xe2\x80\xa6 https://t.co/dn3WXW3GVT'
p2
sS'Created At'
p3
S'2015-11-28 22:12:12'
p4
s.(dp0
S'Text'
p1
S'RT @janinebucks: memHeaven+ : Progressive Memory Status Accelerator + Utilities... https://t.co/fh3iPlidN3'
p2
sS'Created At'
p3
S'2015-11-28 22:12:12'
p4
s.(dp0
S'Text'
p1
S'Discover 14 Simple Tricks For Taking Stunning iPhone Photos Of Food: https://t.co/yrtRUjgmdN https://t.co/WQCHxcJBgV'
p2
sS'Created At'
p3
S'2015-11-28 22:12:12'
p4
s.(dp0
S'Text'
p1
S'Having fun playing #CSRRacing for iOS, why not join me for FREE?\nhttps://t.co/UOSCUhqy4H n'
p2
sS'Created At'
p3
S'2015-11-28 22:12:12'
p4
s.(dp0
S'Text'
p1
S'What about IronDonkeys? Not a bad name for a couple of iOS devs from Oakleigh.'
p2
sS'Created At'
p3
S'2015-11-28 22:12:12'
p4
s.(dp0
S'Text'
p1
S'RT @ShitChallenge: @ShitChallenge start the next step!\nGet an iPhone for free!*\nVisit: https://t.co/26lOKqRqLN https://t.co/A5ObkoNi5O'
p2
sS'Created At'
p3
S'2015-11-28 22:12:12'
p4
s.(dp0
S'Text'
p1
S'3.3 #Earthquake in Puerto Rico Region, #iPhone users download the Earthquake app for more information, https://t.co/V3aZWOAmzK'
p2
sS'Created At'
p3
S'2015-11-28 22:12:13'
p4
s.(dp0
S'Text'
p1
S'RT Antonette_Armen: \xf0\x9f\x91\x8d\xf0\x9f\x91\x8d\xf0\x9f\x91\x8b#SmartWatches New U8 #Bluetooth Smart Wrist Watch Phone Mate For #Android;IOS\xe2\x80\xa6 \xe2\x80\xa6 https://t.co/wKRhQJo4yj'
p2
sS'Created At'
p3
S'2015-11-28 22:12:13'
p4
s.(dp0
S'Text'
p1
S'RT @Cute_Cravings: \xf0\x9f\x8e\x84 SATURDAY SALE \xf0\x9f\x8e\x84\n\nOur Holiday Glitter Phone Cases are on Sale!!\n\nEnds TONIGHT! \xe2\x9b\x84\xef\xb8\x8f\xf0\x9f\x8e\x80\n\n\xf0\x9f\x91\x89\xf0\x9f\x8f\xbchttps://t.co/b6G9g6hAh5\xf0\x9f\x91\x88\xf0\x9f\x8f\xbc https:/\xe2\x80\xa6'
p2
sS'Created At'
p3
S'2015-11-28 22:12:13'
p4
s.(dp0
S'Text'
p1
S'#DisneyLife Launches in UK with iOS &amp;amp; Apple TV Support https://t.co/5cFBXDQtET #AndroidTV #AppleTV #chromecast'
p2
sS'Created At'
p3
S'2015-11-28 22:12:13'
p4
s.(dp0
S'Text'
p1
S'Feel As Being Celebrity With Apple Iphone\xc2\xa04 https://t.co/LmEkYGqNxi https://t.co/heBQTUXu2c'
p2
sS'Created At'
p3
S'2015-11-28 22:12:13'
p4
s.(dp0
S'Text'
p1
S'RT @JasonOrtiaga: my sis dropped her rose gold iPhone 6S \xf0\x9f\x98\x82\xf0\x9f\x98\x82\xf0\x9f\x98\x82\xf0\x9f\x98\x82\xf0\x9f\x98\x82\xf0\x9f\x98\x82\xf0\x9f\x98\x82\xf0\x9f\x98\x82\xf0\x9f\x98\x82\xf0\x9f\x98\xa9\xf0\x9f\x98\xa9\xf0\x9f\x98\xa9\xf0\x9f\x98\xa9\xf0\x9f\x92\x80 http://t.co/Ia6b2jgwbN'
p2
sS'Created At'
p3
S'2015-11-28 22:12:14'
p4
s.(dp0
S'Text'
p1
S"I'm earning #mPLUSRewards in https://t.co/HivQO6BQY4 for iPhone. https://t.co/7ptRMmks54 @dictionarycom"
p2
sS'Created At'
p3
S'2015-11-28 22:12:15'
p4
s.(dp0
S'Text'
p1
S'RT @janinebucks: memHeaven+ : Progressive Memory Status Accelerator + Utilities... https://t.co/fh3iPlidN3'
p2
sS'Created At'
p3
S'2015-11-28 22:12:15'
p4
s.(dp0
S'Text'
p1
S'RT @JCSKDK: #EnoughIsEnough Obama Says \xe2\x80\x98Enough is Enough\xe2\x80\x99 After Colorado Shooting, via @nytimes https://t.co/lI0jqn65nD'
p2
sS'Created At'
p3
S'2015-11-28 22:12:15'
p4
s.(dp0
S'Text'
p1
S'Ceo Apple And Crew pls fastest yaaaa iPhone 10 iPad newer And newer replace all your office Works !!!!!! Quick... https://t.co/VaXHzpP1II'
p2
sS'Created At'
p3
S'2015-11-28 22:12:15'
p4
s.(dp0
S'Text'
p1
S'#Wordly! #Games Word #iPhone App **** $2.99 -&gt; FREE #Games #Word... https://t.co/4FgMBBVSqq'
p2
sS'Created At'
p3
S'2015-11-28 22:12:15'
p4
s.(dp0
S'Text'
p1
S"I've harvested 1,410 of food!  https://t.co/GLz4yaQ3P6 #iphone, #iphonegames, #gameinsight"
p2
sS'Created At'
p3
S'2015-11-28 22:12:15'
p4
s.(dp0
S'Text'
p1
S'Apple iPhone 5 - 16GB - Black &amp; Slate (Unlocked) Smartphone - Bid Now! Only $44.0 https://t.co/7DSrMPCYSO https://t.co/fCwIkNKza6'
p2
sS'Created At'
p3
S'2015-11-28 22:12:16'
p4
s.(dp0
S'Text'
p1
S'Shared from the Pac-12 Now for iOS https://t.co/clicZxw2nD'
p2
sS'Created At'
p3
S'2015-11-28 22:12:16'
p4
s.(dp0
S'Text'
p1
S'Having fun playing #CSRRacing for iOS, why not join me for FREE?\nhttps://t.co/UOSCUhqy4H m'
p2
sS'Created At'
p3
S'2015-11-28 22:12:16'
p4
s.(dp0
S'Text'
p1
S'RT @Ashley62286959: When you love your iPhone, but you watch a show and they have a blackberry and they look pretty cool.'
p2
sS'Created At'
p3
S'2015-11-28 22:12:16'
p4
s.(dp0
S'Text'
p1
S'Apple iPhone 5 - 64GB - Black &amp; Slate (AT&amp;T) Smartphone Great Shape! - Bid Now! Only $56.0 https://t.co/0mhj2oJL8p https://t.co/abSw9zGYEw'
p2
sS'Created At'
p3
S'2015-11-28 22:12:16'
p4
s.(dp0
S'Text'
p1
S'Apple iPhone 5s - 64GB - Silver (AT&amp;T) Smartphone / with Many Extras! - Bid Now! Only $326\xe2\x80\xa6 https://t.co/1s8ixkSkoh https://t.co/viB5nAIgTd'
p2
sS'Created At'
p3
S'2015-11-28 22:12:17'
p4
s.(dp0
S'Text'
p1
S'Unlocked Apple iPhone 5 - 32GB - White &amp; Silver (AT&amp;T) With Extras!!! - Bid Now! Only $135\xe2\x80\xa6 https://t.co/Jl7fboYxgT https://t.co/spz9C4OY5e'
p2
sS'Created At'
p3
S'2015-11-28 22:12:17'
p4
s.(dp0
S'Text'
p1
S'Which color iPhone should I get next?'
p2
sS'Created At'
p3
S'2015-11-28 22:12:18'
p4
s.(dp0
S'Text'
p1
S'Apple iPhone 5c - 16GB - Green (Virgin Mobile) Smartphone - Bid Now! Only $327.0 https://t.co/4SVIj7Fk7R https://t.co/hc1GWZ60es'
p2
sS'Created At'
p3
S'2015-11-28 22:12:18'
p4
s.(dp0
S'Text'
p1
S"@Orpheusbitch I don't think you can get that for iPhone. Can you?"
p2
sS'Created At'
p3
S'2015-11-28 22:12:18'
p4
s.(dp0
S'Text'
p1
S'I think a 25 year old virgin would last longer than an Apple iPhone charger. What is this shitty craftsmanship?! FFS'
p2
sS'Created At'
p3
S'2015-11-28 22:12:18'
p4
s.(dp0
S'Text'
p1
S'Apple iPhone 5 - 16GB - Black &amp; Slate (Unlocked) Smartphone - Bid Now! Only $44.0 https://t.co/Mx0ThK24FW https://t.co/wKwiWpX2jd'
p2
sS'Created At'
p3
S'2015-11-28 22:12:18'
p4
s.(dp0
S'Text'
p1
S'RT @mufc_75: You can thank me later \n\nPerfect quality link to the fight on IOS or mobile\n\nhttps://t.co/An1OPjyVyv'
p2
sS'Created At'
p3
S'2015-11-28 22:12:19'
p4
s.(dp0
S'Text'
p1
S'Wow, I love @Listia! I just won this for free, Call of Duty Black Ops II Zombies iPhone 5 Case New https://t.co/Dj7WJnlIS7'
p2
sS'Created At'
p3
S'2015-11-28 22:12:19'
p4
s.(dp0
S'Text'
p1
S'Apple iPhone 5 - 64GB - Black &amp; Slate (AT&amp;T) Smartphone Great Shape! - Bid Now! Only $56.0 https://t.co/ciyDVPXAtV https://t.co/QgdTXcKUu6'
p2
sS'Created At'
p3
S'2015-11-28 22:12:19'
p4
s.(dp0
S'Text'
p1
S'George Hotz, a 17-year-old hacker, was the first to unlock a first generation iPhone\xe2\x80\x94he traded it for a Nissan 350z and 3 locked iPhones.'
p2
sS'Created At'
p3
S'2015-11-28 22:12:20'
p4
s.(dp0
S'Text'
p1
S'Apple iPhone 5s - 64GB - Silver (AT&amp;T) Smartphone / with Many Extras! - Bid Now! Only $326\xe2\x80\xa6 https://t.co/Bb3TzAiaJI https://t.co/Vz2nF4nwcm'
p2
sS'Created At'
p3
S'2015-11-28 22:12:20'
p4
s.(dp0
S'Text'
p1
S'Having fun playing #CSRRacing for iOS, why not join me for FREE?\nhttps://t.co/UOSCUhqy4H ,'
p2
sS'Created At'
p3
S'2015-11-28 22:12:20'
p4
s.(dp0
S'Text'
p1
S'#etsy IPHONE 6, IPHONE 5/5s IPHONE 4/4s CASES iPhone 6 cases are IN STOCK RIGHT NOW an...  https://t.co/kDH9cXfBd0 https://t.co/vFdHlmth6s'
p2
sS'Created At'
p3
S'2015-11-28 22:12:20'
p4
s.(dp0
S'Text'
p1
S'my iPhone is coming in 15 days!! :) &lt;3'
p2
sS'Created At'
p3
S'2015-11-28 22:12:21'
p4
s.(dp0
S'Text'
p1
S'#10BillionWives \nI married20,382,626,724,087,483Wives!\niOS: https://t.co/3mq9EITROo\nAndroid: https://t.co/usmoHFlR6p https://t.co/TbSdyL7juX'
p2
sS'Created At'
p3
S'2015-11-28 22:12:20'
p4
s.(dp0
S'Text'
p1
S'Unlocked Apple iPhone 5 - 32GB - White &amp; Silver (AT&amp;T) With Extras!!! - Bid Now! Only $135\xe2\x80\xa6 https://t.co/CIdDnFayPE https://t.co/55jEoVJB6j'
p2
sS'Created At'
p3
S'2015-11-28 22:12:20'
p4
s.(dp0
S'Text'
p1
S'Having fun playing #CSRRacing for iOS, why not join me for FREE?\nhttps://t.co/FhfIPpd2wh'
p2
sS'Created At'
p3
S'2015-11-28 22:12:21'
p4
s.(dp0
S'Text'
p1
S"RT @heyifeellike: the iphone charger that doesn't quite reach"
p2
sS'Created At'
p3
S'2015-11-28 22:12:21'
p4
s.(dp0
S'Text'
p1
S'Apple iPhone 5c - 16GB - Green (Virgin Mobile) Smartphone - Bid Now! Only $327.0 https://t.co/TRrR7TPN8K https://t.co/Nho4epEcoo'
p2
sS'Created At'
p3
S'2015-11-28 22:12:21'
p4
s.(dp0
S'Text'
p1
S'#Iphone 7 Features\xc2\xa0News https://t.co/dJ5VmmDovw'
p2
sS'Created At'
p3
S'2015-11-28 22:12:22'
p4
s.(dp0
S'Text'
p1
S'My sister so real for letting me have her iphone 5s since im phoneless .'
p2
sS'Created At'
p3
S'2015-11-28 22:12:23'
p4
s.(dp0
S'Text'
p1
S'Just saw a homeless guy with and iphone 5s and a nice case on it in pasadena. Wtf?'
p2
sS'Created At'
p3
S'2015-11-28 22:12:23'
p4
s.(dp0
S'Text'
p1
S'Hey DeWitt Masterson : TheRogueishMale :D Wanna get FREE iPhone 6? Kindly check my bi0. Thx https://t.co/DOz6xaETvH'
p2
sS'Created At'
p3
S'2015-11-28 22:12:24'
p4
s.(dp0
S'Text'
p1
S'RT @TheWinerist: Whoah! iPhone wine cases are now 20% off for #BlackFriday: https://t.co/OIMdtyXcNC https://t.co/xPiTrLY7CF'
p2
sS'Created At'
p3
S'2015-11-28 22:12:24'
p4
s.(dp0
S'Text'
p1
S'Hey RxGirl! : RxGurl1 :D Wanna get FREE iPhone 6? Kindly check my bi0. Thx https://t.co/07cdfhHEiQ'
p2
sS'Created At'
p3
S'2015-11-28 22:12:24'
p4
s.(dp0
S'Text'
p1
S'Hey nicole\xe2\x99\xa1 : apricotkitten :D Wanna get FREE iPhone 6? Kindly check my bi0. Thx https://t.co/uhk9neohyb'
p2
sS'Created At'
p3
S'2015-11-28 22:12:24'
p4
s.(dp0
S'Text'
p1
S'Hey Danny Finch : Panthers_XIII :D Wanna get FREE iPhone 6? Kindly check my bi0. Thx https://t.co/uBSRkF7Do5'
p2
sS'Created At'
p3
S'2015-11-28 22:12:25'
p4
s.(dp0
S'Text'
p1
S'Hey Serena . : VID4__L0K4 :D Wanna get FREE iPhone 6? Kindly check my bi0. Thx https://t.co/uBspSqMecU'
p2
sS'Created At'
p3
S'2015-11-28 22:12:25'
p4
s.(dp0
S'Text'
p1
S'Hey c\xc3\xa9line : aphroditeleigh :D Wanna get FREE iPhone 6? Kindly check my bi0. Thx https://t.co/LmQMXIoDTr'
p2
sS'Created At'
p3
S'2015-11-28 22:12:25'
p4
s.(dp0
S'Text'
p1
S'Hey -MKP : emkaype :D Wanna get FREE iPhone 6? Kindly check my bi0. Thx https://t.co/2KG25EDumt'
p2
sS'Created At'
p3
S'2015-11-28 22:12:25'
p4
s.(dp0
S'Text'
p1
S'Hey Serena . : VID4__L0K4 :D Wanna get FREE iPhone 6? Kindly check my bi0. Thx https://t.co/LW7PLc2FOg'
p2
sS'Created At'
p3
S'2015-11-28 22:12:26'
p4
s.(dp0
S'Text'
p1
S'#APITConnect - Rumor: Apple to Kill Headphone Jack in iPhone 7 https://t.co/8kH0sxfb4G'
p2
sS'Created At'
p3
S'2015-11-28 22:12:26'
p4
s.(dp0
S'Text'
p1
S'Genius LuxePad 9100 iPhone,iPad and Windows 7,8 &amp; Vista https://t.co/Ym5JOpsdDM #salespk'
p2
sS'Created At'
p3
S'2015-11-28 22:12:26'
p4
s.(dp0
S'Text'
p1
S'Hey Project LXD : Luric_X_Duncan :D Wanna get FREE iPhone 6? Kindly check my bi0. Thx https://t.co/zEv4UkYTSX'
p2
sS'Created At'
p3
S'2015-11-28 22:12:26'
p4
s.(dp0
S'Text'
p1
S'#10BillionWives \nI married558,073,667,236Wives!\n\niOS: https://t.co/cwLzr0j9sM\nAndroid: https://t.co/mFrAqW5jYn https://t.co/zNk7H3Hq40'
p2
sS'Created At'
p3
S'2015-11-28 22:12:26'
p4
s.(dp0
S'Text'
p1
S'Hey Adrian Griffin : Juniorinthedark :D Wanna get FREE iPhone 6? Kindly check my bi0. Thx https://t.co/SoNiDRQLwF'
p2
sS'Created At'
p3
S'2015-11-28 22:12:26'
p4
s.(dp0
S'Text'
p1
S"Apple's 'iPhone 7 Plus' expected to pack 3GB of RAM into 'A10' CPU in late 2016 https://t.co/5pfjIKCKfB"
p2
sS'Created At'
p3
S'2015-11-28 22:12:26'
p4
s.(dp0
S'Text'
p1
S'Hey Tabby\xe2\x9c\xa8 : tabbybish_ :D Wanna get FREE iPhone 6? Kindly check my bi0. Thx https://t.co/lU6WGdW4YK'
p2
sS'Created At'
p3
S'2015-11-28 22:12:26'
p4
s.(dp0
S'Text'
p1
S'Hey Tats : LoveTatiana_ :D Wanna get FREE iPhone 6? Kindly check my bi0. Thx https://t.co/lRCQ3MxYjw'
p2
sS'Created At'
p3
S'2015-11-28 22:12:27'
p4
s.(dp0
S'Text'
p1
S'Hey Julie : Juliee132 :D Wanna get FREE iPhone 6? Kindly check my bi0. Thx https://t.co/viB2pN1bDv'
p2
sS'Created At'
p3
S'2015-11-28 22:12:27'
p4
s.(dp0
S'Text'
p1
S'Hey \xd2\xbd\xd2\xb3p\xc9\xad\xc9\xa9c\xc9\xa9t : foreva_pride :D Wanna get FREE iPhone 6? Kindly check my bi0. Thx https://t.co/CO0LeBSMPE'
p2
sS'Created At'
p3
S'2015-11-28 22:12:27'
p4
s.(dp0
S'Text'
p1
S"RT @TheLiberal_ie: WIN #WIN #iPhone6 -We're giving away an iPhone 6 thanks to @Pursha_com To enter, re-tweet &amp; Follow us! #competition http\xe2\x80\xa6"
p2
sS'Created At'
p3
S'2015-11-28 22:12:28'
p4
s.(dp0
S'Text'
p1
S'Hey R : msbhavn570 :D Wanna get FREE iPhone 6? Kindly check my bi0. Thx https://t.co/iTa4BFHkE9'
p2
sS'Created At'
p3
S'2015-11-28 22:12:28'
p4
s.(dp0
S'Text'
p1
S'Hey Breven Jacobs : brevjacobs :D Wanna get FREE iPhone 6? Kindly check my bi0. Thx https://t.co/5S7p1JcLcv'
p2
sS'Created At'
p3
S'2015-11-28 22:12:28'
p4
s.(dp0
S'Text'
p1
S'Australia 99. Like You Want To - Kita Alexander https://t.co/25QodBXyAb #Music #iTunes #iPhone #Apple'
p2
sS'Created At'
p3
S'2015-11-28 22:12:28'
p4
s.(dp0
S'Text'
p1
S'RT @UberFacts: George Hotz, a 17-year-old hacker, was the first to unlock a first generation iPhone\xe2\x80\x94he traded it for a Nissan 350z and 3 lo\xe2\x80\xa6'
p2
sS'Created At'
p3
S'2015-11-28 22:12:28'
p4
s.(dp0
S'Text'
p1
S'Hey Laura Mart\xc3\xadnez\xe2\x9d\xa4 : Laurama_110714 :D Wanna get FREE iPhone 6? Kindly check my bi0. Thx https://t.co/9NcK0QoNtb'
p2
sS'Created At'
p3
S'2015-11-28 22:12:28'
p4
s.(dp0
S'Text'
p1
S'Hey Lil Bit : LilBitHbb :D Wanna get FREE iPhone 6? Kindly check my bi0. Thx https://t.co/90AkK9qSCH'
p2
sS'Created At'
p3
S'2015-11-28 22:12:29'
p4
s.(dp0
S'Text'
p1
S'Hot Deals &gt; https://t.co/3GJvmxwEd7 Luxury Premium Chrome Brushed Aluminum Hard Case Cover for Apple iPhone 4 4s https://t.co/qbiXBJbTmc'
p2
sS'Created At'
p3
S'2015-11-28 22:12:29'
p4
s.(dp0
S'Text'
p1
S'Hey \xe2\x99\xa1 : JussGorgeous :D Wanna get FREE iPhone 6? Kindly check my bi0. Thx https://t.co/6yjvSP0yVP'
p2
sS'Created At'
p3
S'2015-11-28 22:12:29'
p4
s.(dp0
S'Text'
p1
S'Hot Cell Phones #842 : https://t.co/BltJSMiVqs Mophie Juice Pack Plus + for iPhone 4 4G 4S Rechargeable Battery &amp; \xe2\x80\xa6 https://t.co/GsgNJrfjvC'
p2
sS'Created At'
p3
S'2015-11-28 22:12:30'
p4
s.(dp0
S'Text'
p1
S'Hey Armahn\xe2\x9c\xa8\xe2\x99\x88 : 410_lionel :D Wanna get FREE iPhone 6? Kindly check my bi0. Thx https://t.co/QnZdEDKA1d'
p2
sS'Created At'
p3
S'2015-11-28 22:12:29'
p4
s.(dp0
S'Text'
p1
S'Hot Deals &gt; https://t.co/6GVG4VhDAI [Apple MFi Certified] Skiva\xc2\xae Lightning to USB cable 10ft for iPhone 5 5S 6 Plus https://t.co/pAa9f4cHOq'
p2
sS'Created At'
p3
S'2015-11-28 22:12:30'
p4
s.(dp0
S'Text'
p1
S'Apple Iphone Contract \xe2\x80\x93 Best Method To Buy A\xc2\xa0Smartphone https://t.co/ci57bUfgjB https://t.co/9RrL8YKKPB'
p2
sS'Created At'
p3
S'2015-11-28 22:12:30'
p4
s.(dp0
S'Text'
p1
S'Hot Deals &gt; https://t.co/hbzRNjT8YK Apple iPhone 4S A1387 3.5" Retina 32GB 3G GSM UNLOCKED Cell Phone https://t.co/Kbo9PMsPxp'
p2
sS'Created At'
p3
S'2015-11-28 22:12:30'
p4
s.(dp0
S'Text'
p1
S'Australia 91. Champagne Showers - LMFAO https://t.co/DcXDXprOfD #Music #Video #iTunes #iPhone #Apple #Mac'
p2
sS'Created At'
p3
S'2015-11-28 22:12:30'
p4
s.(dp0
S'Text'
p1
S'Hot Cell Phones #842 : https://t.co/LC6NcW1O1H Hot 3 in 1 Fisheye + Wide Angle + Micro Lens Kits For iPhone 6 6 5S\xe2\x80\xa6 https://t.co/QdiTLuNZnG'
p2
sS'Created At'
p3
S'2015-11-28 22:12:31'
p4
s.(dp0
S'Text'
p1
S'Australia 92. Tapestry - Carole King https://t.co/UqbWHXL7sU #Music #iTunes #iPhone #Apple'
p2
sS'Created At'
p3
S'2015-11-28 22:12:32'
p4
s.(dp0
S'Text'
p1
S'My iPhone always correct "food" to "good"... At least the two are interchangeable #nom #thisiswhyimfull'
p2
sS'Created At'
p3
S'2015-11-28 22:12:33'
p4
s.(dp0
S'Text'
p1
S'RT @OplaRahman: Jailbreak iOS 9 Guide - https://t.co/ta4AZ0KVJV https://t.co/RA0edTUs6k'
p2
sS'Created At'
p3
S'2015-11-28 22:12:33'
p4
s.(dp0
S'Text'
p1
S'RT @shros_ebooks: @AdhiRefli @3Mar9an1 @thykenan @happy2013guy @Malcolm_Torres @MediaRings @gerardfleck @stristus @kcef79 @tachan_san buy m\xe2\x80\xa6'
p2
sS'Created At'
p3
S'2015-11-28 22:12:34'
p4
s.(dp0
S'Text'
p1
S'RT @brigittexo_: yay apple replaced my iphone 6 plus for free even though my apple care expired 37 days ago. and they gave me a free $65 ph\xe2\x80\xa6'
p2
sS'Created At'
p3
S'2015-11-28 22:12:34'
p4
s.(dp0
S'Text'
p1
S"RT @Conciled: Unfollow me if PartyNextDoor isn't on your iPhone"
p2
sS'Created At'
p3
S'2015-11-28 22:12:34'
p4
s.(dp0
S'Text'
p1
S'when your friend gets an iPhone https://t.co/QsnHYTHoFz'
p2
sS'Created At'
p3
S'2015-11-28 22:12:34'
p4
s.(dp0
S'Text'
p1
S'Phones Offers &gt;&gt; https://t.co/U6vry1nVaw #034 Relax Series Slim SOFT TOUCH Case for iPhone 6S Plus/iPhone 6 Plus 5\xe2\x80\xa6 https://t.co/5uLk0qeQTy'
p2
sS'Created At'
p3
S'2015-11-28 22:12:35'
p4
s.(dp0
S'Text'
p1
S'2048 Puzzle - Pro #Games #Strategy #iPhone App ***** $2. \xe2\x80\xa6: ... https://t.co/0e9YWgqOLj'
p2
sS'Created At'
p3
S'2015-11-28 22:12:35'
p4
s.(dp0
S'Text'
p1
S'RT @free24apps: DefCom TD Games Action iPhone App **** $0.99 -&gt; FREE #Games #Action 9+ #iPhone #App #iOS https://t.co/9PtGQWiWbS https://t.\xe2\x80\xa6'
p2
sS'Created At'
p3
S'2015-11-28 22:12:35'
p4
s.(dp0
S'Text'
p1
S'RT @OplaRahman: Jailbreak iOS 9 Guide - https://t.co/ta4AZ0KVJV https://t.co/RA0edTUs6k'
p2
sS'Created At'
p3
S'2015-11-28 22:12:35'
p4
s.(dp0
S'Text'
p1
S'RT @free24apps: DefCom TD Games Action iPhone App **** $0.99 -&gt; FREE #Games #Action 9+ #iPhone #App #iOS https://t.co/9PtGQWiWbS https://t.\xe2\x80\xa6'
p2
sS'Created At'
p3
S'2015-11-28 22:12:37'
p4
s.(dp0
S'Text'
p1
S'RT @UberFacts: George Hotz, a 17-year-old hacker, was the first to unlock a first generation iPhone\xe2\x80\x94he traded it for a Nissan 350z and 3 lo\xe2\x80\xa6'
p2
sS'Created At'
p3
S'2015-11-28 22:12:37'
p4
s.(dp0
S'Text'
p1
S'Phones Offers &gt;&gt; https://t.co/PZBqBoUOmA #034 For iPhone 4 4S Ultra Thin Transparent Crystal Clear Hard TPU Back C\xe2\x80\xa6 https://t.co/t0Nof418sD'
p2
sS'Created At'
p3
S'2015-11-28 22:12:37'
p4
s.(dp0
S'Text'
p1
S'RT @free24apps: DefCom TD Games Action iPhone App **** $0.99 -&gt; FREE #Games #Action 9+ #iPhone #App #iOS https://t.co/9PtGQWiWbS https://t.\xe2\x80\xa6'
p2
sS'Created At'
p3
S'2015-11-28 22:12:37'
p4
s.(dp0
S'Text'
p1
S'RT @OplaRahman: Jailbreak iOS 9 Guide - https://t.co/ta4AZ0KVJV https://t.co/RA0edTUs6k'
p2
sS'Created At'
p3
S'2015-11-28 22:12:37'
p4
s.(dp0
S'Text'
p1
S'RT @free24apps: DefCom TD Games Action iPhone App **** $0.99 -&gt; FREE #Games #Action 9+ #iPhone #App #iOS https://t.co/9PtGQWiWbS https://t.\xe2\x80\xa6'
p2
sS'Created At'
p3
S'2015-11-28 22:12:38'
p4
s.(dp0
S'Text'
p1
S'RT @Cute_Cravings: \xf0\x9f\x8e\x84 SATURDAY SALE \xf0\x9f\x8e\x84\n\nOur Holiday Glitter Phone Cases are on Sale!!\n\nEnds TONIGHT! \xe2\x9b\x84\xef\xb8\x8f\xf0\x9f\x8e\x80\n\n\xf0\x9f\x91\x89\xf0\x9f\x8f\xbchttps://t.co/b6G9g6hAh5\xf0\x9f\x91\x88\xf0\x9f\x8f\xbc https:/\xe2\x80\xa6'
p2
sS'Created At'
p3
S'2015-11-28 22:12:38'
p4
s.(dp0
S'Text'
p1
S'RT @free24apps: DefCom TD Games Action iPhone App **** $0.99 -&gt; FREE #Games #Action 9+ #iPhone #App #iOS https://t.co/9PtGQWiWbS https://t.\xe2\x80\xa6'
p2
sS'Created At'
p3
S'2015-11-28 22:12:38'
p4
s.(dp0
S'Text'
p1
S'RT @OplaRahman: Jailbreak iOS 9 Guide - https://t.co/ta4AZ0KVJV https://t.co/RA0edTUs6k'
p2
sS'Created At'
p3
S'2015-11-28 22:12:39'
p4
s.(dp0
S'Text'
p1
S'How to deal with iPhone 6/6 Plus lag and stutter (iOS 9 tutorial) https://t.co/6IhNcGbazV'
p2
sS'Created At'
p3
S'2015-11-28 22:12:40'
p4
s.(dp0
S'Text'
p1
S'Recommend #VirtualTableTennis. iPhone:https://t.co/jy1L5YTxbJ Android:https://t.co/uHXNxKF8KZ https://t.co/y8OkirOlon'
p2
sS'Created At'
p3
S'2015-11-28 22:12:40'
p4
s.(dp0
S'Text'
p1
S'Does anyone know if this is legit? iPhone asking me to change my password. Gave me a 60 minute countdown. Weird. https://t.co/hP18iV5ILS'
p2
sS'Created At'
p3
S'2015-11-28 22:12:40'
p4
s.(dp0
S'Text'
p1
S"I like this new phone better than my iPhone I'm making the switch, iOS is boring as of now"
p2
sS'Created At'
p3
S'2015-11-28 22:12:41'
p4
s.(dp0
S'Text'
p1
S'Cell Phone Shop : https://t.co/gCWFqkzrxk #629 For Apple iPhone 5 5S Luxury Magnetic Leather Flip Wallet Credit Ca\xe2\x80\xa6 https://t.co/N0vlGAN1R2'
p2
sS'Created At'
p3
S'2015-11-28 22:12:41'
p4
s.(dp0
S'Text'
p1
S"Also unfollow me if you don't use an iPhone @Conciled"
p2
sS'Created At'
p3
S'2015-11-28 22:12:42'
p4
s.(dp0
S'Text'
p1
S'George Hotz, a 17-year-old hacker, was the first to unlock a first generation iPhone\xe2\x80\x94he traded it for a Nissan 350z and 3 locked iPhones.'
p2
sS'Created At'
p3
S'2015-11-28 22:12:43'
p4
s.(dp0
S'Text'
p1
S'RT @UberFacts: George Hotz, a 17-year-old hacker, was the first to unlock a first generation iPhone\xe2\x80\x94he traded it for a Nissan 350z and 3 lo\xe2\x80\xa6'
p2
sS'Created At'
p3
S'2015-11-28 22:12:43'
p4
s.(dp0
S'Text'
p1
S'Cell Phone Shop : https://t.co/BVvvxJJ2rk #629 2 Pack Belkin LEGO Case for Apple iPhone 5/5S Blue Pink Cover F8W28\xe2\x80\xa6 https://t.co/ZGeu1Nfiks'
p2
sS'Created At'
p3
S'2015-11-28 22:12:44'
p4
s.(dp0
S'Text'
p1
S'Mobile Shop &gt;&gt; https://t.co/l3LByhmbsH #301 [Apple MFi Certified] Skiva\xc2\xae Lightning to USB cable 10ft for iPhone 5 \xe2\x80\xa6 https://t.co/OFJbmKPXUU'
p2
sS'Created At'
p3
S'2015-11-28 22:12:45'
p4
s.(dp0
S'Text'
p1
S'IOS Farm Frenzy 2 HD V 1.1 IPA Free Download - https://t.co/dqMtVSenV2 https://t.co/7PHZpzVRP5'
p2
sS'Created At'
p3
S'2015-11-28 22:12:45'
p4
s.(dp0
S'Text'
p1
S'RT @UberFacts: George Hotz, a 17-year-old hacker, was the first to unlock a first generation iPhone\xe2\x80\x94he traded it for a Nissan 350z and 3 lo\xe2\x80\xa6'
p2
sS'Created At'
p3
S'2015-11-28 22:12:45'
p4
s.(dp0
S'Text'
p1
S'Mobile Shop &gt;&gt; https://t.co/yokmh7z1Lm #301 Apple iPhone 4S A1387 3.5" Retina 32GB 3G GSM UNLOCKED Cell Phone https://t.co/zutn7D3G0b'
p2
sS'Created At'
p3
S'2015-11-28 22:12:45'
p4
s.(dp0
S'Text'
p1
S'Cell Phone Shop : https://t.co/cjjeGs6Kzx #629 Apple iPhone 4 32GB Verizon Wireless Black and White Smartphone https://t.co/pDFhWsZE7g'
p2
sS'Created At'
p3
S'2015-11-28 22:12:45'
p4
s.(dp0
S'Text'
p1
S'Apple iPhone 5 - 16GB - Black &amp; Slate (Unlocked) Smartphone - Bid Now! Only $44.0 https://t.co/2adGpnVtke'
p2
sS'Created At'
p3
S'2015-11-28 22:12:45'
p4
s.(dp0
S'Text'
p1
S'#Iphone 7 Features\xc2\xa0News https://t.co/Nm6gKnNUAm'
p2
sS'Created At'
p3
S'2015-11-28 22:12:46'
p4
s.(dp0
S'Text'
p1
S'George Hotz, a 17-year-old hacker, was the first to unlock a first generation iPhone\xe2\x80\x94he traded it for a Nissan 350z and 3 locked iPhones.'
p2
sS'Created At'
p3
S'2015-11-28 22:12:46'
p4
s.(dp0
S'Text'
p1
S'So @ComedyCentral allows me to watch their shows on the iOS app but not on the @RokuPlayer channel because of my region\xe2\x80\xa6Get it together FFS!'
p2
sS'Created At'
p3
S'2015-11-28 22:12:46'
p4
s.(dp0
S'Text'
p1
S'Most Cleverly Used iPhone\xe2\x80\x99s Emojis - 17 People Who Took It One Step Further https://t.co/cWlpxnPc88'
p2
sS'Created At'
p3
S'2015-11-28 22:12:46'
p4
s.(dp0
S'Text'
p1
S'Apple iPhone 5 - 64GB - Black &amp; Slate (AT&amp;T) Smartphone Great Shape! - Bid Now! Only $56.0 https://t.co/linlybivtT'
p2
sS'Created At'
p3
S'2015-11-28 22:12:46'
p4
s.(dp0
S'Text'
p1
S"I've collected 35,940 gold coins! https://t.co/9AKpmZxgKa #iphone, #iphonegames, #gameinsight"
p2
sS'Created At'
p3
S'2015-11-28 22:12:46'
p4
s.(dp0
S'Text'
p1
S'Apple iPhone 5s - 64GB - Silver (AT&amp;T) Smartphone / with Many Extras! - Bid Now! Only $326.0 https://t.co/zUBJVEuCXJ'
p2
sS'Created At'
p3
S'2015-11-28 22:12:47'
p4
s.(dp0
S'Text'
p1
S'Unlocked Apple iPhone 5 - 32GB - White &amp; Silver (AT&amp;T) With Extras!!! - Bid Now! Only $135.67 https://t.co/s9iOlrSoZK'
p2
sS'Created At'
p3
S'2015-11-28 22:12:47'
p4
s.(dp0
S'Text'
p1
S'Best Black Friday deals 2015 UK live blog: Apple, Mac, iPad &amp; iPhone deals - Macworld UK https://t.co/kcWYIKs5r6'
p2
sS'Created At'
p3
S'2015-11-28 22:12:48'
p4
s.(dp0
S'Text'
p1
S'RT @flexibits: If you\xe2\x80\x99re getting the App Store error \xe2\x80\x9cThis item is being modified\xe2\x80\x9d, please contact Apple: https://t.co/oT2ELyt7A0 (click \xe2\x80\x9cG\xe2\x80\xa6'
p2
sS'Created At'
p3
S'2015-11-28 22:12:48'
p4
s.(dp0
S'Text'
p1
S'Apple iPhone 5c - 16GB - Green (Virgin Mobile) Smartphone - Bid Now! Only $327.0 https://t.co/hwzgYbX8nK'
p2
sS'Created At'
p3
S'2015-11-28 22:12:48'
p4
s.(dp0
S'Text'
p1
S'fwm got that iPhone 10 boi https://t.co/mk9qDT1TC2'
p2
sS'Created At'
p3
S'2015-11-28 22:12:48'
p4
s.(dp0
S'Text'
p1
S'Top Windows Mobile news of the week: Nokia Android leak, Lumias half off, Cortana iOS beta - https://t.co/UYnJowtoY7'
p2
sS'Created At'
p3
S'2015-11-28 22:12:49'
p4
s.(dp0
S'Text'
p1
S'RT @MobilePhoneNewz: Cortana for iOS is now available to eager beta testers https://t.co/omN14vCDLC https://t.co/7UsXcy6mwV'
p2
sS'Created At'
p3
S'2015-11-28 22:12:50'
p4
s.(dp0
S'Text'
p1
S'anyone know how to Jailbreak a iphone'
p2
sS'Created At'
p3
S'2015-11-28 22:12:50'
p4
s.(dp0
S'Text'
p1
S'Just sat to pee so I didnt have to go 15 seconds without staring at my iPhone.'
p2
sS'Created At'
p3
S'2015-11-28 22:12:50'
p4
s.(dp0
S'Text'
p1
S'I won a Campaign in Clash of Lords 2! What are you waiting? Join me now! https://t.co/iGrx47iNNK'
p2
sS'Created At'
p3
S'2015-11-28 22:12:50'
p4
s.(dp0
S'Text'
p1
S'https://t.co/jmF0tfYy7K #9680 Apple iPhone 4 8GB Factory Unlocked Smartphone AT&amp;T https://t.co/mkz0KGY11H'
p2
sS'Created At'
p3
S'2015-11-28 22:12:51'
p4
s.(dp0
S'Text'
p1
S'https://t.co/hxwKFErkZ7 #1239 Apple iPhone 5 Factory Unlocked 16GB Smartphone AT&amp;T https://t.co/tcoYQDcNEN'
p2
sS'Created At'
p3
S'2015-11-28 22:12:51'
p4
s.(dp0
S'Text'
p1
S'Feel As Being Celebrity With Apple Iphone\xc2\xa04 https://t.co/hfWtla45Ih https://t.co/KzsMRKs77P'
p2
sS'Created At'
p3
S'2015-11-28 22:12:51'
p4
s.(dp0
S'Text'
p1
S"@tashakeane00 I've an iPhone 5 the storage is good and it hasn't gotten slow yet"
p2
sS'Created At'
p3
S'2015-11-28 22:12:52'
p4
s.(dp0
S'Text'
p1
S'#workshop #Newport #musicislife #iphone The #social #strategies: Cure shyness and social anxiety with unique soci https://t.co/HXi85KarEh'
p2
sS'Created At'
p3
S'2015-11-28 22:12:52'
p4
s.(dp0
S'Text'
p1
S'RT @UberFacts: George Hotz, a 17-year-old hacker, was the first to unlock a first generation iPhone\xe2\x80\x94he traded it for a Nissan 350z and 3 lo\xe2\x80\xa6'
p2
sS'Created At'
p3
S'2015-11-28 22:12:53'
p4
s.(dp0
S'Text'
p1
S'3D Sculpture Design Rose Flower Hard Plastic Cover Case For iPhone 4 4S Pink Y#B - Bid Now\xe2\x80\xa6 https://t.co/cTZVuY9CbG https://t.co/g4PEppZ8JB'
p2
sS'Created At'
p3
S'2015-11-28 22:12:53'
p4
s.(dp0
S'Text'
p1
S'3D Sculpture Design Rose Flower Hard Plastic Cover Case For iPhone 4 4S Pink Y#B - Bid Now\xe2\x80\xa6 https://t.co/dus49Z6DjQ https://t.co/WN4OFPWfzJ'
p2
sS'Created At'
p3
S'2015-11-28 22:12:53'
p4
s.(dp0
S'Text'
p1
S'https://t.co/QI2BGBmSBT #8801 Apple iPhone 5S (Factory Unlocked) AT&amp;T T-Mobile Verizon Gold Silver Space Gray https://t.co/D9nSrLLRYQ'
p2
sS'Created At'
p3
S'2015-11-28 22:12:53'
p4
s.(dp0
S'Text'
p1
S"I've just finished A Specialist's Counsel! I'd love for you to come! https://t.co/4ht6obYi1p #iphone #iphonegames #gameinsight"
p2
sS'Created At'
p3
S'2015-11-28 22:12:54'
p4
s.(dp0
S'Text'
p1
S'Silk Leather Wallet Stand Case Cover For Apple iPhone 4 4G 4S Luxury Slot Slim - Bid Now! \xe2\x80\xa6 https://t.co/aEEcpKkoT7 https://t.co/OjUKAvakye'
p2
sS'Created At'
p3
S'2015-11-28 22:12:54'
p4
s.(dp0
S'Text'
p1
S'Silk Leather Wallet Stand Case Cover For Apple iPhone 4 4G 4S Luxury Slot Slim - Bid Now! \xe2\x80\xa6 https://t.co/V14mqgcNML https://t.co/Y81ZQA9tY6'
p2
sS'Created At'
p3
S'2015-11-28 22:12:54'
p4
s.(dp0
S'Text'
p1
S'https://t.co/5ugfj2XBxD #7550 AT&amp;T iPhone 5c 16GB Apple Factory Unlocked Smartphone Clean Esn https://t.co/JQHjiSHBqV'
p2
sS'Created At'
p3
S'2015-11-28 22:12:54'
p4
s.(dp0
S'Text'
p1
S'RT @Steffhdfifa_: Quick fire 250k giveaway! (IOS) \n\n-Follow me \n-RT this tweet \n-TAG mates \n\nWinner in 10-15mins https://t.co/zdqstLIAGe'
p2
sS'Created At'
p3
S'2015-11-28 22:12:54'
p4
s.(dp0
S'Text'
p1
S'iPhone 6 https://t.co/JgcWrB1sre'
p2
sS'Created At'
p3
S'2015-11-28 22:12:54'
p4
s.(dp0
S'Text'
p1
S'Hybrid Rugged Rubber Matte Hard Case Cover For iPhone 4 4S +Screen protector+Pen - Bid Now\xe2\x80\xa6 https://t.co/kaNJ2BM4PK https://t.co/sSo429pWEM'
p2
sS'Created At'
p3
S'2015-11-28 22:12:54'
p4
s.(dp0
S'Text'
p1
S'Hybrid Rugged Rubber Matte Hard Case Cover For iPhone 4 4S +Screen protector+Pen - Bid Now\xe2\x80\xa6 https://t.co/cke5vy4tlr https://t.co/ipplaTt2FS'
p2
sS'Created At'
p3
S'2015-11-28 22:12:54'
p4
s.(dp0
S'Text'
p1
S'My iPhone always correct "food" to "good"... At least the two are interchangeable #nom #thisiswhyimfull'
p2
sS'Created At'
p3
S'2015-11-28 22:12:55'
p4
s.(dp0
S'Text'
p1
S'**iPhone 4** Apocalypse Tuff-Grip case cover for Apple iPhone 4G / 4 - Black - Guardian https://t.co/9fmMZuJZGG  #iphone4'
p2
sS'Created At'
p3
S'2015-11-28 22:12:55'
p4
s.(dp0
S'Text'
p1
S'https://t.co/o3lxR01TL7 #4126 Apple iPhone 5S - 16 32 64GB GSM "Factory Unlocked" Smartphone Gold Gray Silver https://t.co/xwadnjq4XZ'
p2
sS'Created At'
p3
S'2015-11-28 22:12:55'
p4
s.(dp0
S'Text'
p1
S'Apple iPhone 4s 32gb AT&amp;T Unlocked With Many Extras - Bid Now! Only $102.5 https://t.co/DeTwfZCh9c https://t.co/25YT1FYCdc'
p2
sS'Created At'
p3
S'2015-11-28 22:12:55'
p4
s.(dp0
S'Text'
p1
S'https://t.co/Yd0EZ57Cb8 #7028 RAVPower 2800mAh External Battery w/ built-in Wall Charger for iPhone 5 4S 4G https://t.co/qpY7et9S2U'
p2
sS'Created At'
p3
S'2015-11-28 22:12:55'
p4
s.(dp0
S'Text'
p1
S'Apple iPhone 4s 32gb AT&amp;T Unlocked With Many Extras - Bid Now! Only $102.5 https://t.co/arYc5KbznR https://t.co/IHBBPCOVoI'
p2
sS'Created At'
p3
S'2015-11-28 22:12:55'
p4
s.(dp0
S'Text'
p1
S'https://t.co/mY0X57EvNE #3933 Apple iPhone 4S 16GB "Factory Unlocked" Black and White Smartphone https://t.co/D8DK0DBiV7'
p2
sS'Created At'
p3
S'2015-11-28 22:12:55'
p4
s.(dp0
S'Text'
p1
S'My mum got a new phone and its a HTC despite the shop assistant suggested Samsung Galaxy S5 or an iPhone 6S'
p2
sS'Created At'
p3
S'2015-11-28 22:12:56'
p4
s.(dp0
S'Text'
p1
S'@amycottrill LUV4LUV UKG VOL.1 Mixed by @DJPyro Android https://t.co/qy9o3hiGlW / Iphone https://t.co/j5XbUxJ02h https://t.co/0JoFL0g46d'
p2
sS'Created At'
p3
S'2015-11-28 22:12:56'
p4
s.(dp0
S'Text'
p1
S'Want https://t.co/t2ymxcRb1N'
p2
sS'Created At'
p3
S'2015-11-28 22:12:56'
p4
s.(dp0
S'Text'
p1
S'https://t.co/CjpcZ6DovD #5425 K13: Battery Replacement Kit w/ Tools  : Apple iPhone 3GS Smartphone A1303 A1325 https://t.co/k1IEHg2uxo'
p2
sS'Created At'
p3
S'2015-11-28 22:12:56'
p4
s.(dp0
S'Text'
p1
S'On Sale Now: #Iphone 6 Plus Case, oneCase\xe2\x84\xa2 3-piece 3 in 1 Combo Hybrid D ... \xe2\x80\x93 $15.99 \xe2\x80\x93 https://t.co/dJfFmocknS - https://t.co/1OrtaYRfwC'
p2
sS'Created At'
p3
S'2015-11-28 22:12:56'
p4
s.(dp0
S'Text'
p1
S'On Sale Now: iPhone 6 Case, Vofolen\xc2\xae Impact Resistant Protective Shell iPhone 6 Wallet Cover Sliding Card Holder... https://t.co/V9xpZuaIfS'
p2
sS'Created At'
p3
S'2015-11-28 22:12:56'
p4
s.(dp0
S'Text'
p1
S'RT @OplaRahman: Jailbreak iOS 9 Guide - https://t.co/ta4AZ0KVJV https://t.co/RA0edTUs6k'
p2
sS'Created At'
p3
S'2015-11-28 22:12:57'
p4
s.(dp0
S'Text'
p1
S"I've met Stewardess Jane in my Airport City!\nhttps://t.co/NMcx3FRAGa #iphone #iphonegames #gameinsight"
p2
sS'Created At'
p3
S'2015-11-28 22:12:57'
p4
s.(dp0
S'Text'
p1
S'#10BillionWives \nI married1,023,443,171,404Wives!\n\niOS: https://t.co/vdsf5CXXVM\nAndroid: https://t.co/OyXu4aHH8p https://t.co/iB3Aj8Y6UZ'
p2
sS'Created At'
p3
S'2015-11-28 22:12:58'
p4
s.(dp0
S'Text'
p1
S"I'm earning #mPLUSRewards in Office Jerk Holiday Edition iOS. https://t.co/m4itaPgncL"
p2
sS'Created At'
p3
S'2015-11-28 22:12:58'
p4
s.(dp0
S'Text'
p1
S'Mighty and Glory Kingdom War Hack Cydia Android/iOS https://t.co/bsji5LWXnl'
p2
sS'Created At'
p3
S'2015-11-28 22:12:59'
p4
s.(dp0
S'Text'
p1
S'RT @ShitChallenge: @ShitChallenge start the next step!\nGet an iPhone for free!*\nVisit: https://t.co/26lOKqRqLN https://t.co/A5ObkoNi5O'
p2
sS'Created At'
p3
S'2015-11-28 22:13:01'
p4
s.(dp0
S'Text'
p1
S'RT @HisRoyalDopenez: 17. As I dey tweet so, I dey watch NTA Channel 6 Aba with my iPhone 6S. \nPlease cry with me.\nTHE END. http://t.co/4Kih\xe2\x80\xa6'
p2
sS'Created At'
p3
S'2015-11-28 22:13:01'
p4
s.(dp0
S'Text'
p1
S'RT earthfalcon33: earthfalcon33: postplus_macapp: https://t.co/6Nl3gIdJ64; Advance your contacts in #iphone #ios #iphoneapp #appstore 15'
p2
sS'Created At'
p3
S'2015-11-28 22:13:02'
p4
s.(dp0
S'Text'
p1
S'RT earthfalcon33: earthfalcon33: appstoregames06: https://t.co/6Nl3gIdJ64; Advance your contacts in #iphone #ios #iphoneapp #appstore 15'
p2
sS'Created At'
p3
S'2015-11-28 22:13:02'
p4
s.(dp0
S'Text'
p1
S'Recently possibilities entrance iphone reading issue: sIPcwJ'
p2
sS'Created At'
p3
S'2015-11-28 22:13:02'
p4
s.(dp0
S'Text'
p1
S'iPhone 5c https://t.co/GElc0HO3sP'
p2
sS'Created At'
p3
S'2015-11-28 22:13:03'
p4
s.(dp0
S'Text'
p1
S'RT earthfalcon33: maxxpowerss8: RT earthfalcon33: postplus_macapp: https://t.co/6Nl3gIdJ64\xc2\xa0; Advance your contacts in #iphone #ios #ipho\xe2\x80\xa6'
p2
sS'Created At'
p3
S'2015-11-28 22:13:03'
p4
s.(dp0
S'Text'
p1
S'RT earthfalcon33: maxxpowerss8: RT earthfalcon33: appstoregames06: https://t.co/6Nl3gIdJ64\xc2\xa0; Advance your contacts in #iphone #ios #ipho\xe2\x80\xa6'
p2
sS'Created At'
p3
S'2015-11-28 22:13:03'
p4
s.(dp0
S'Text'
p1
S'RT @UberFacts: George Hotz, a 17-year-old hacker, was the first to unlock a first generation iPhone\xe2\x80\x94he traded it for a Nissan 350z and 3 lo\xe2\x80\xa6'
p2
sS'Created At'
p3
S'2015-11-28 22:13:03'
p4
s.(dp0
S'Text'
p1
S'#NowPlaying The Hauser Project - Second Date (Feat. Wade &amp; Tyler Alexis) #Link6 iOS &amp; Android App , Visit to https://t.co/fOMtgzgTXY'
p2
sS'Created At'
p3
S'2015-11-28 22:13:03'
p4
s.(dp0
S'Text'
p1
S'RT earthfalcon33: mobileappgames1: https://t.co/6Nl3gIdJ64; Advance your contacts in #iphone #ios #iphoneapp #appstore 15'
p2
sS'Created At'
p3
S'2015-11-28 22:13:03'
p4
s.(dp0
S'Text'
p1
S'RT earthfalcon33: mobileappgames1: postplus_macapp: https://t.co/6Nl3gIdJ64; Advance your contacts in #iphone #ios #iphoneapp #appstore 15'
p2
sS'Created At'
p3
S'2015-11-28 22:13:04'
p4
s.(dp0
S'Text'
p1
S'RT earthfalcon33: mobileappgames1: appstoregames06: https://t.co/6Nl3gIdJ64; Advance your contacts in #iphone #ios #iphoneapp #appstore 15'
p2
sS'Created At'
p3
S'2015-11-28 22:13:04'
p4
s.(dp0
S'Text'
p1
S'RT earthfalcon33: mobileappgames1: RT earthfalcon33: postplus_macapp: https://t.co/6Nl3gIdJ64\xc2\xa0; Advance your contacts in #iphone #ios #i\xe2\x80\xa6'
p2
sS'Created At'
p3
S'2015-11-28 22:13:04'
p4
s.(dp0
S'Text'
p1
S'Dude periscoping U2 live in Dublin. Me streaming that to TV from iPhone through appletv #winning #ilovetech https://t.co/38bjfSColX'
p2
sS'Created At'
p3
S'2015-11-28 22:13:04'
p4
s.(dp0
S'Text'
p1
S'RT @janinebucks: memHeaven+ : Progressive Memory Status Accelerator + Utilities... https://t.co/fh3iPlidN3'
p2
sS'Created At'
p3
S'2015-11-28 22:13:05'
p4
s.(dp0
S'Text'
p1
S'RT earthfalcon33: mobileappgames1: RT earthfalcon33: appstoregames06: https://t.co/6Nl3gIdJ64\xc2\xa0; Advance your contacts in #iphone #ios #i\xe2\x80\xa6'
p2
sS'Created At'
p3
S'2015-11-28 22:13:05'
p4
s.(dp0
S'Text'
p1
S"@xweeknd_  I would get iPhone 6s. Only if you could root it or jail break it. They still haven't fixed all the apps since the xcode hack"
p2
sS'Created At'
p3
S'2015-11-28 22:13:05'
p4
s.(dp0
S'Text'
p1
S'RT earthfalcon33: androidgames06: https://t.co/6Nl3gIdJ64; Advance your contacts in #iphone #ios #iphoneapp #appstore 15'
p2
sS'Created At'
p3
S'2015-11-28 22:13:05'
p4
s.(dp0
S'Text'
p1
S'RT earthfalcon33: androidgames06: postplus_macapp: https://t.co/6Nl3gIdJ64; Advance your contacts in #iphone #ios #iphoneapp #appstore 15'
p2
sS'Created At'
p3
S'2015-11-28 22:13:06'
p4
s.(dp0
S'Text'
p1
S'Veggies and Fruits Ios App https://t.co/L1shNvlTPe'
p2
sS'Created At'
p3
S'2015-11-28 22:13:05'
p4
s.(dp0
S'Text'
p1
S'RT @janinebucks: memHeaven+ : Progressive Memory Status Accelerator + Utilities... https://t.co/fh3iPlidN3'
p2
sS'Created At'
p3
S'2015-11-28 22:13:06'
p4
s.(dp0
S'Text'
p1
S'RT earthfalcon33: androidgames06: appstoregames06: https://t.co/6Nl3gIdJ64; Advance your contacts in #iphone #ios #iphoneapp #appstore 15'
p2
sS'Created At'
p3
S'2015-11-28 22:13:06'
p4
s.(dp0
S'Text'
p1
S'RT earthfalcon33: androidgames06: RT earthfalcon33: postplus_macapp: https://t.co/6Nl3gIdJ64\xc2\xa0; Advance your contacts in #iphone #ios #ip\xe2\x80\xa6'
p2
sS'Created At'
p3
S'2015-11-28 22:13:06'
p4
s.(dp0
S'Text'
p1
S'RT @UberFacts: George Hotz, a 17-year-old hacker, was the first to unlock a first generation iPhone\xe2\x80\x94he traded it for a Nissan 350z and 3 lo\xe2\x80\xa6'
p2
sS'Created At'
p3
S'2015-11-28 22:13:07'
p4
s.(dp0
S'Text'
p1
S'RT @techtube_au: Hey folks! Please take note that the iPhone 6s giveaway ends this coming Monday. #iphone6sgiveaway'
p2
sS'Created At'
p3
S'2015-11-28 22:13:07'
p4
s.(dp0
S'Text'
p1
S'@bluebearsoup @rickygervais @RichardDawkins if I drop this iPhone, it will fall....'
p2
sS'Created At'
p3
S'2015-11-28 22:13:07'
p4
s.(dp0
S'Text'
p1
S'RT earthfalcon33: androidgames06: RT earthfalcon33: appstoregames06: https://t.co/6Nl3gIdJ64\xc2\xa0; Advance your contacts in #iphone #ios #ip\xe2\x80\xa6'
p2
sS'Created At'
p3
S'2015-11-28 22:13:07'
p4
s.(dp0
S'Text'
p1
S'I just moved up to tier 3 in #CSRRacing for iOS! You should check it out for FREE!\nhttps://t.co/yUpMLpXbmd'
p2
sS'Created At'
p3
S'2015-11-28 22:13:08'
p4
s.(dp0
S'Text'
p1
S'Apple Iphone Contract \xe2\x80\x93 Best Method To Buy A\xc2\xa0Smartphone https://t.co/o3cPxnUEtG https://t.co/G346Nn51PB'
p2
sS'Created At'
p3
S'2015-11-28 22:13:07'
p4
s.(dp0
S'Text'
p1
S'APPLE iPhone 4 Black 8GB Clean IMEI (Factory Unlocked) WORKS, Will Not Turn Off - Bid Now!\xe2\x80\xa6 https://t.co/6NpuU9lceN https://t.co/GXGhEvYa2u'
p2
sS'Created At'
p3
S'2015-11-28 22:13:08'
p4
s.(dp0
S'Text'
p1
S'There goes another iPhone \xf0\x9f\x98\xab\xf0\x9f\x98\xad\xf0\x9f\x9a\xae\xf0\x9f\x93\xb4 ...cracked\xf0\x9f\x98\x92 AGAIN!!'
p2
sS'Created At'
p3
S'2015-11-28 22:13:08'
p4
s.(dp0
S'Text'
p1
S'(FOR PARTS) Apple iPhone 4 + case - 8GB, White, Factory Unlocked, AT&amp;T, T-Mobile - Bid Now\xe2\x80\xa6 https://t.co/aMa7e1kbnx https://t.co/zQmgRBu3JZ'
p2
sS'Created At'
p3
S'2015-11-28 22:13:08'
p4
s.(dp0
S'Text'
p1
S'RT @HisRoyalDopenez: 15. I just happened to travel to Aba with him. I dey house this afternoon, he came back with the iPhone 6S. http://t.c\xe2\x80\xa6'
p2
sS'Created At'
p3
S'2015-11-28 22:13:09'
p4
s.(dp0
S'Text'
p1
S'RT @janinebucks: memHeaven+ : Progressive Memory Status Accelerator + Utilities... https://t.co/fh3iPlidN3'
p2
sS'Created At'
p3
S'2015-11-28 22:13:09'
p4
s.(dp0
S'Text'
p1
S'iPhone 6 Screen Replacement Done in 4 Minutes https://t.co/9erZfAOZii'
p2
sS'Created At'
p3
S'2015-11-28 22:13:09'
p4
s.(dp0
S'Text'
p1
S'RT @UberFacts: George Hotz, a 17-year-old hacker, was the first to unlock a first generation iPhone\xe2\x80\x94he traded it for a Nissan 350z and 3 lo\xe2\x80\xa6'
p2
sS'Created At'
p3
S'2015-11-28 22:13:09'
p4
s.(dp0
S'Text'
p1
S'Apple iPhone 4s - 16GB - Black (Unlocked) Smartphone - Bid Now! Only $54.1 https://t.co/X8MbSdmTat https://t.co/QsaUMfMrDY'
p2
sS'Created At'
p3
S'2015-11-28 22:13:09'
p4
s.(dp0
S'Text'
p1
S'[iOS iPad] [Net Master HD] [$6.99 \xe2\x86\x92 Free] [Network analysis utility for IT administrators and profe\xe2\x80\xa6 https://t.co/Po6pCxtHi7'
p2
sS'Created At'
p3
S'2015-11-28 22:13:10'
p4
s.(dp0
S'Text'
p1
S'#Iphone 7 Features\xc2\xa0News https://t.co/Z2alXggHUV'
p2
sS'Created At'
p3
S'2015-11-28 22:13:10'
p4
s.(dp0
S'Text'
p1
S'Apple iPhone 4s - 32GB - Black (Unlocked) Smartphone - Bid Now! Only $74.0 https://t.co/nPRLRARwKi https://t.co/MUzYr11DeT'
p2
sS'Created At'
p3
S'2015-11-28 22:13:10'
p4
s.(dp0
S'Text'
p1
S'Apple iPhone 7 To Sport Waterproof Capability, 3 GB RAM; Release Expected September 2016 #expected https://t.co/1mUmL8i1fF'
p2
sS'Created At'
p3
S'2015-11-28 22:13:11'
p4
s.(dp0
S'Text'
p1
S"Bieber didn't have to put these two tracks back to back.. My iPhone almost overheated https://t.co/YdAytXNrGe"
p2
sS'Created At'
p3
S'2015-11-28 22:13:11'
p4
s.(dp0
S'Text'
p1
S'Z the People - Show Me The Moves\nNow Playing on #WhiteCubeRadio available on iPhone and Android'
p2
sS'Created At'
p3
S'2015-11-28 22:13:11'
p4
s.(dp0
S'Text'
p1
S'Apple iPhone 4s - 16GB - Black (Unlocked) Smartphone - Bid Now! Only $61.0 https://t.co/oPzmcscjgC https://t.co/G6POHR1pJX'
p2
sS'Created At'
p3
S'2015-11-28 22:13:11'
p4
s.(dp0
S'Text'
p1
S'IF RYAN RETWEETS THIS YOU GET A NEW IPHONE'
p2
sS'Created At'
p3
S'2015-11-28 22:13:12'
p4
s.(dp0
S'Text'
p1
S'RT @baermktg: Opera Mediaworks: iOS Tops Android for Mobile Ad Revenue https://t.co/iJQinBSCp3'
p2
sS'Created At'
p3
S'2015-11-28 22:13:12'
p4
s.(dp0
S'Text'
p1
S"Whoa you're typing in all caps? I'll just get rid of every apostrophe for you.\n\n-your iPhone"
p2
sS'Created At'
p3
S'2015-11-28 22:13:12'
p4
s.(dp0
S'Text'
p1
S'RT @thatwhatsheced_: iPhone  https://t.co/7hIx0W6K3D'
p2
sS'Created At'
p3
S'2015-11-28 22:13:13'
p4
s.(dp0
S'Text'
p1
S'RT @UberFacts: George Hotz, a 17-year-old hacker, was the first to unlock a first generation iPhone\xe2\x80\x94he traded it for a Nissan 350z and 3 lo\xe2\x80\xa6'
p2
sS'Created At'
p3
S'2015-11-28 22:13:13'
p4
s.(dp0
S'Text'
p1
S'(Thumbs up for poctets) I was trying to find a pox text to put my iPhone in and I found one'
p2
sS'Created At'
p3
S'2015-11-28 22:13:14'
p4
s.(dp0
S'Text'
p1
S'3D Sculpture Design Rose Flower Hard Plastic Cover Case For iPhone 4 4S Pink Y#B - Bid Now\xe2\x80\xa6 https://t.co/3J1ON1ZiLV https://t.co/RNLYVUk7gM'
p2
sS'Created At'
p3
S'2015-11-28 22:13:14'
p4
s.(dp0
S'Text'
p1
S'Silk Leather Wallet Stand Case Cover For Apple iPhone 4 4G 4S Luxury Slot Slim - Bid Now! \xe2\x80\xa6 https://t.co/g9pmxJQAGo https://t.co/4Qs4Fpv65i'
p2
sS'Created At'
p3
S'2015-11-28 22:13:15'
p4
s.(dp0
S'Text'
p1
S'RT @UberFacts: George Hotz, a 17-year-old hacker, was the first to unlock a first generation iPhone\xe2\x80\x94he traded it for a Nissan 350z and 3 lo\xe2\x80\xa6'
p2
sS'Created At'
p3
S'2015-11-28 22:13:15'
p4
s.(dp0
S'Text'
p1
S'RT @Cute_Cravings: \xf0\x9f\x8e\x84 SATURDAY SALE \xf0\x9f\x8e\x84\n\nOur Holiday Glitter Phone Cases are on Sale!!\n\nEnds TONIGHT! \xe2\x9b\x84\xef\xb8\x8f\xf0\x9f\x8e\x80\n\n\xf0\x9f\x91\x89\xf0\x9f\x8f\xbchttps://t.co/b6G9g6hAh5\xf0\x9f\x91\x88\xf0\x9f\x8f\xbc https:/\xe2\x80\xa6'
p2
sS'Created At'
p3
S'2015-11-28 22:13:15'
p4
s.(dp0
S'Text'
p1
S'RT @asymco: Online orders made using mobile phones or tablets jumped to 39% of all online sales on Thanksgiving (34% last yr) https://t.co/\xe2\x80\xa6'
p2
sS'Created At'
p3
S'2015-11-28 22:13:15'
p4
s.(dp0
S'Text'
p1
S'Hybrid Rugged Rubber Matte Hard Case Cover For iPhone 4 4S +Screen protector+Pen - Bid Now\xe2\x80\xa6 https://t.co/ntKYbcIh8s https://t.co/OmwhYLvrBc'
p2
sS'Created At'
p3
S'2015-11-28 22:13:15'
p4
s.(dp0
S'Text'
p1
S'Apple iPhone 4s 32gb AT&amp;T Unlocked With Many Extras - Bid Now! Only $102.5 https://t.co/vAb9mv1pbn https://t.co/USZ4mvsoHn'
p2
sS'Created At'
p3
S'2015-11-28 22:13:16'
p4
s.(dp0
S'Text'
p1
S'Ok wonky question yet serious. I love the new fish tail moving wallpaper on the new iPhone s phones. Does anyone... https://t.co/HEeLtXVGNV'
p2
sS'Created At'
p3
S'2015-11-28 22:13:16'
p4
s.(dp0
S'Text'
p1
S"RT @TheLiberal_ie: WIN #WIN #iPhone6 -We're giving away an iPhone 6 thanks to @Pursha_com To enter, re-tweet &amp; Follow us! #competition http\xe2\x80\xa6"
p2
sS'Created At'
p3
S'2015-11-28 22:13:18'
p4
s.(dp0
S'Text'
p1
S'Having fun playing #CSRRacing for iOS, why not join me for FREE?\nhttps://t.co/ahBVIuIfVy'
p2
sS'Created At'
p3
S'2015-11-28 22:13:18'
p4
s.(dp0
S'Text'
p1
S'@roslan_nadiah Thx for following! Check out our free iOS and Android app for games &amp; info on #biodiversity https://t.co/dXI7GAj6Fu'
p2
sS'Created At'
p3
S'2015-11-28 22:13:18'
p4
s.(dp0
S'Text'
p1
S'RT @UberFacts: George Hotz, a 17-year-old hacker, was the first to unlock a first generation iPhone\xe2\x80\x94he traded it for a Nissan 350z and 3 lo\xe2\x80\xa6'
p2
sS'Created At'
p3
S'2015-11-28 22:13:19'
p4
s.(dp0
S'Text'
p1
S'RT @ShitChallenge: @ShitChallenge start the next step!\nGet an iPhone for free!*\nVisit: https://t.co/26lOKqRqLN https://t.co/A5ObkoNi5O'
p2
sS'Created At'
p3
S'2015-11-28 22:13:19'
p4
s.(dp0
S'Text'
p1
S'https://t.co/w2dgWXmchD #9425 Apple iPhone 5C - 16gb - Factory GSM Unlocked Smartphone (C) https://t.co/BGjZTPLFOm'
p2
sS'Created At'
p3
S'2015-11-28 22:13:19'
p4
s.(dp0
S'Text'
p1
S'RT @Steffhdfifa_: Quick fire 250k giveaway! (IOS) \n\n-Follow me \n-RT this tweet \n-TAG mates \n\nWinner in 10-15mins https://t.co/zdqstLIAGe'
p2
sS'Created At'
p3
S'2015-11-28 22:13:20'
p4
s.(dp0
S'Text'
p1
S'https://t.co/i4XekImEnZ #9539 Apple iPhone 5 - 16GB - (Factory Unlocked) Smartphone - White or Black https://t.co/34DLSlOTot'
p2
sS'Created At'
p3
S'2015-11-28 22:13:20'
p4
s.(dp0
S'Text'
p1
S"I've collected 19,600 gold coins! https://t.co/9AKpmZxgKa #iphone, #iphonegames, #gameinsight"
p2
sS'Created At'
p3
S'2015-11-28 22:13:21'
p4
s.(dp0
S'Text'
p1
S'https://t.co/0HknGwatDY #8333 Apple iPhone 5s - 16GB (Factory Unlocked) Smartphone Space Gray - Silver - Gold https://t.co/MdHQYxhZwX'
p2
sS'Created At'
p3
S'2015-11-28 22:13:21'
p4
s.(dp0
S'Text'
p1
S"I've harvested 1,139 of food!  https://t.co/ptmersNqxZ #iphone, #iphonegames, #gameinsight"
p2
sS'Created At'
p3
S'2015-11-28 22:13:22'
p4
s.(dp0
S'Text'
p1
S'3D Sculpture Design Rose Flower Hard Plastic Cover Case For iPhone 4 4S Pink Y#B - Bid Now\xe2\x80\xa6 https://t.co/CqW788FEG5 https://t.co/crrhHDabB6'
p2
sS'Created At'
p3
S'2015-11-28 22:13:21'
p4
s.(dp0
S'Text'
p1
S'https://t.co/N3xuTX82z8 #9718 AT&amp;T iPhone 5c 16GB Apple Factory Unlocked Smartphone Clean Esn https://t.co/87IgwgXlxl'
p2
sS'Created At'
p3
S'2015-11-28 22:13:21'
p4
s.(dp0
S'Text'
p1
S'RT @OplaRahman: Jailbreak iOS 9 Guide - https://t.co/ta4AZ0KVJV https://t.co/RA0edTUs6k'
p2
sS'Created At'
p3
S'2015-11-28 22:13:22'
p4
s.(dp0
S'Text'
p1
S'The 5 Best Document Scanning Apps For iPhone (via https://t.co/OdtphlF4t7) https://t.co/JZH3eZN9zF https://t.co/fWGvwootF8'
p2
sS'Created At'
p3
S'2015-11-28 22:13:22'
p4
s.(dp0
S'Text'
p1
S'Silk Leather Wallet Stand Case Cover For Apple iPhone 4 4G 4S Luxury Slot Slim - Bid Now! \xe2\x80\xa6 https://t.co/Q9tFOp4tzs https://t.co/cQ7590N0ZK'
p2
sS'Created At'
p3
S'2015-11-28 22:13:22'
p4
s.(dp0
S'Text'
p1
S'https://t.co/U1ADOcEspZ #2439 Apple iPhone 5 -16GB- White &amp; Silver AT&amp;T Unlocked Smartphone https://t.co/5MCHAYVfoB'
p2
sS'Created At'
p3
S'2015-11-28 22:13:22'
p4
s.(dp0
S'Text'
p1
S'RT @norberto_davila: This nigga @StaticGlock needa stop using snapchat until he get an iPhone'
p2
sS'Created At'
p3
S'2015-11-28 22:13:23'
p4
s.(dp0
S'Text'
p1
S'Hybrid Rugged Rubber Matte Hard Case Cover For iPhone 4 4S +Screen protector+Pen - Bid Now\xe2\x80\xa6 https://t.co/b3D2Lucz44 https://t.co/0kgQCcouow'
p2
sS'Created At'
p3
S'2015-11-28 22:13:23'
p4
s.(dp0
S'Text'
p1
S'Apple iPhone 4s 32gb AT&amp;T Unlocked With Many Extras - Bid Now! Only $102.5 https://t.co/2xmGiOMnFR https://t.co/t5P1T0qtxy'
p2
sS'Created At'
p3
S'2015-11-28 22:13:23'
p4
s.(dp0
S'Text'
p1
S'@moisterrific I still need to replace my iPhone 6 headphones'
p2
sS'Created At'
p3
S'2015-11-28 22:13:24'
p4
s.(dp0
S'Text'
p1
S'RT @ShitChallenge: @ShitChallenge start the next step!\nGet an iPhone for free!*\nVisit: https://t.co/26lOKqRqLN https://t.co/A5ObkoNi5O'
p2
sS'Created At'
p3
S'2015-11-28 22:13:24'
p4
s.(dp0
S'Text'
p1
S'I got a reward: Master of Provisions in BigBusiness Deluxe for iOS https://t.co/OpcLgawWvd #GameInsight #iPhoneGames #iPhone'
p2
sS'Created At'
p3
S'2015-11-28 22:13:26'
p4
s.(dp0
S'Text'
p1
S'RT @UberFacts: George Hotz, a 17-year-old hacker, was the first to unlock a first generation iPhone\xe2\x80\x94he traded it for a Nissan 350z and 3 lo\xe2\x80\xa6'
p2
sS'Created At'
p3
S'2015-11-28 22:13:26'
p4
s.(dp0
S'Text'
p1
S'RT @UberFacts: George Hotz, a 17-year-old hacker, was the first to unlock a first generation iPhone\xe2\x80\x94he traded it for a Nissan 350z and 3 lo\xe2\x80\xa6'
p2
sS'Created At'
p3
S'2015-11-28 22:13:27'
p4
s.(dp0
S'Text'
p1
S'RT @ShitChallenge: @ShitChallenge start the next step!\nGet an iPhone for free!*\nVisit: https://t.co/26lOKqRqLN https://t.co/A5ObkoNi5O'
p2
sS'Created At'
p3
S'2015-11-28 22:13:26'
p4
s.(dp0
S'Text'
p1
S'3D Sculpture Design Rose Flower Hard Plastic Cover Case For iPhone 4 4S Pink Y#B - Bid Now\xe2\x80\xa6 https://t.co/6YavAJi8qS https://t.co/gmMsg4xTYF'
p2
sS'Created At'
p3
S'2015-11-28 22:13:28'
p4
s.(dp0
S'Text'
p1
S'Silk Leather Wallet Stand Case Cover For Apple iPhone 4 4G 4S Luxury Slot Slim - Bid Now! \xe2\x80\xa6 https://t.co/KBcMBbz3H4 https://t.co/ToHgWxYtSG'
p2
sS'Created At'
p3
S'2015-11-28 22:13:28'
p4
s.(dp0
S'Text'
p1
S'Australia 98. Bird Set Free - Sia https://t.co/wpPeDnpjnO #Music #iTunes #iPhone #Apple'
p2
sS'Created At'
p3
S'2015-11-28 22:13:29'
p4
s.(dp0
S'Text'
p1
S'Hybrid Rugged Rubber Matte Hard Case Cover For iPhone 4 4S +Screen protector+Pen - Bid Now\xe2\x80\xa6 https://t.co/K2lphLS9BI https://t.co/aC3T6WGtRv'
p2
sS'Created At'
p3
S'2015-11-28 22:13:29'
p4
s.(dp0
S'Text'
p1
S'Feel As Being Celebrity With Apple Iphone\xc2\xa04 https://t.co/GXhQ60L6II https://t.co/h3zqXAb6dD'
p2
sS'Created At'
p3
S'2015-11-28 22:13:30'
p4
s.(dp0
S'Text'
p1
S'Apple iPhone 4s 32gb AT&amp;T Unlocked With Many Extras - Bid Now! Only $102.5 https://t.co/KwEBxB03LP https://t.co/q8XsG9fN7y'
p2
sS'Created At'
p3
S'2015-11-28 22:13:30'
p4
s.(dp0
S'Text'
p1
S'iPhone 6 \xf0\x9f\x98\x8d'
p2
sS'Created At'
p3
S'2015-11-28 22:13:30'
p4
s.(dp0
S'Text'
p1
S'Australia 90. One Thing - One Direction https://t.co/yfdoF7DpcN #Music #Video #iTunes #iPhone #Apple #Mac'
p2
sS'Created At'
p3
S'2015-11-28 22:13:31'
p4
s.(dp0
S'Text'
p1
S"The best thing they've done for this iPhone 6s Plus is the front camera flash\xf0\x9f\x92\x9c"
p2
sS'Created At'
p3
S'2015-11-28 22:13:32'
p4
s.(dp0
S'Text'
p1
S'Australia 91. All the Hits Live - James Reyne https://t.co/AqaVspqVIt #Music #iTunes #iPhone #Apple'
p2
sS'Created At'
p3
S'2015-11-28 22:13:33'
p4
s.(dp0
S'Text'
p1
S'#Iphone 7 Features\xc2\xa0News https://t.co/UomNNfaDcP'
p2
sS'Created At'
p3
S'2015-11-28 22:13:33'
p4
s.(dp0
S'Text'
p1
S'RT @OplaRahman: Jailbreak iOS 9 Guide - https://t.co/ta4AZ0KVJV https://t.co/RA0edTUs6k'
p2
sS'Created At'
p3
S'2015-11-28 22:13:34'
p4
s.(dp0
S'Text'
p1
S'Great Deals #424 : https://t.co/wbwZRU1bCb Active Sport Series Hybrid Case Space Grey/Black for iPhone 6/6S Plus (\xe2\x80\xa6 https://t.co/DLPzKBwaO3'
p2
sS'Created At'
p3
S'2015-11-28 22:13:35'
p4
s.(dp0
S'Text'
p1
S'RT @UberFacts: George Hotz, a 17-year-old hacker, was the first to unlock a first generation iPhone\xe2\x80\x94he traded it for a Nissan 350z and 3 lo\xe2\x80\xa6'
p2
sS'Created At'
p3
S'2015-11-28 22:13:35'
p4
s.(dp0
S'Text'
p1
S'RT @ShitChallenge: @ShitChallenge start the next step!\nGet an iPhone for free!*\nVisit: https://t.co/26lOKqRqLN https://t.co/A5ObkoNi5O'
p2
sS'Created At'
p3
S'2015-11-28 22:13:35'
p4
s.(dp0
S'Text'
p1
S'#10BillionWives \nI married2,090,676,101,229,085Wives!\n\niOS: https://t.co/2br3KCXbgt\nAndroid: http://bit https://t.co/FfEoR2AlSc'
p2
sS'Created At'
p3
S'2015-11-28 22:13:35'
p4
s.(dp0
S'Text'
p1
S"We're Streaming iOS Games Live on Mobcrush [Hearthstone] https://t.co/O8ZSL4ACib"
p2
sS'Created At'
p3
S'2015-11-28 22:13:36'
p4
s.(dp0
S'Text'
p1
S'3D printer for kids looks like a helmet, cheaper than an iPhone: https://t.co/ipeCZw4D5H via @YouTube'
p2
sS'Created At'
p3
S'2015-11-28 22:13:36'
p4
s.(dp0
S'Text'
p1
S"Good indication that it's not new LOL #Iphone swap @AmyJacobson @NatalieFox32  https://t.co/9DHv8KxUw1"
p2
sS'Created At'
p3
S'2015-11-28 22:13:36'
p4
s.(dp0
S'Text'
p1
S'RT @ShitChallenge: @ShitChallenge start the next step!\nGet an iPhone for free!*\nVisit: https://t.co/26lOKqRqLN https://t.co/A5ObkoNi5O'
p2
sS'Created At'
p3
S'2015-11-28 22:13:36'
p4
s.(dp0
S'Text'
p1
S'RT @UnboxTherapy: New iPhone winner at midnight. Gonna do a Twitter exclusive for this one - RT and reply here to enter! https://t.co/t6vWu\xe2\x80\xa6'
p2
sS'Created At'
p3
S'2015-11-28 22:13:37'
p4
s.(dp0
S'Text'
p1
S'See who viewed your instagram profile recently with InstaView iPhone and Android app.. @instaviewapps: https://t.co/F12JA679OT'
p2
sS'Created At'
p3
S'2015-11-28 22:13:37'
p4
s.(dp0
S'Text'
p1
S'I have Cottage on my island! Now my island is even more awesome!  https://t.co/fPzpdaHSxA #iphone, #iphonegames, #gameinsight'
p2
sS'Created At'
p3
S'2015-11-28 22:13:37'
p4
s.(dp0
S'Text'
p1
S'Cell Phones #Deals &gt;&gt; https://t.co/7K5zwQu1DV #812 Apple iPhone 5s - 16GB (Factory Unlocked) Smartphone Space Gray\xe2\x80\xa6 https://t.co/Ra5xeIHJV8'
p2
sS'Created At'
p3
S'2015-11-28 22:13:37'
p4
s.(dp0
S'Text'
p1
S"iPhone mini, Galaxy Marshmallow updates comments &amp; more \xe2\x80\x93 Pocketnow Daily Recap: Watch today's Pocketnow Daily... https://t.co/9fqliWDJjl"
p2
sS'Created At'
p3
S'2015-11-28 22:13:38'
p4
s.(dp0
S'Text'
p1
S'#10BillionWives \nI married2,090,676,101,229,085Wives!\n\niOS: https://t.co/2br3KCXbgt\nAndroid: http:/ https://t.co/TAeF2s5CIx'
p2
sS'Created At'
p3
S'2015-11-28 22:13:38'
p4
s.(dp0
S'Text'
p1
S"iPhone mini, Galaxy Marshmallow updates comments &amp; more \xe2\x80\x93 Pocketnow Daily Recap: Watch today's Pocketnow Daily... https://t.co/xk010SznPR"
p2
sS'Created At'
p3
S'2015-11-28 22:13:38'
p4
s.(dp0
S'Text'
p1
S'Rumor: Apple to Kill Headphone Jack in iPhone 7: Apple would likely offer up some kind of 3.5mm-to... https://t.co/Lyri1guh5X #iphonenews'
p2
sS'Created At'
p3
S'2015-11-28 22:13:39'
p4
s.(dp0
S'Text'
p1
S'RT @AppleIncTpNews: Apple To Ditch 3.5mm Headphone Jack For A Thinner iPhone 7, Lightning-B... https://t.co/VmXiF7Al6G via @RedmondPie http\xe2\x80\xa6'
p2
sS'Created At'
p3
S'2015-11-28 22:13:40'
p4
s.(dp0
S'Text'
p1
S'@matejp23 @fplchips therefore try Sony Z3. If u never had IPhone it could be difficult to be fancy'
p2
sS'Created At'
p3
S'2015-11-28 22:13:41'
p4
s.(dp0
S'Text'
p1
S"I've met Madlen Airborn in my Airport City!\nhttps://t.co/NMcx3FRAGa #iphone #iphonegames #gameinsight"
p2
sS'Created At'
p3
S'2015-11-28 22:13:42'
p4
s.(dp0
S'Text'
p1
S"I've collected 5,831 gold coins! https://t.co/fPzpdaHSxA #iphone, #iphonegames, #gameinsight"
p2
sS'Created At'
p3
S'2015-11-28 22:13:43'
p4
s.(dp0
S'Text'
p1
S"I've harvested 200 of food!  https://t.co/fPzpdaHSxA #iphone, #iphonegames, #gameinsight"
p2
sS'Created At'
p3
S'2015-11-28 22:13:43'
p4
s.(dp0
S'Text'
p1
S'Tinker Tailor Soldier \n\n*iOS/Android/PC compatible*\n\nhttps://t.co/r3iL40NdkT\n\n*Problem viewing? Open in Safari/Chrome*\n\nRT &amp; Share!'
p2
sS'Created At'
p3
S'2015-11-28 22:13:43'
p4
s.(dp0
S'Text'
p1
S'RT @UberFacts: George Hotz, a 17-year-old hacker, was the first to unlock a first generation iPhone\xe2\x80\x94he traded it for a Nissan 350z and 3 lo\xe2\x80\xa6'
p2
sS'Created At'
p3
S'2015-11-28 22:13:43'
p4
s.(dp0
S'Text'
p1
S'100 Notable Books of 2015, via @nytimes https://t.co/KgxADl5Aog'
p2
sS'Created At'
p3
S'2015-11-28 22:13:44'
p4
s.(dp0
S'Text'
p1
S'Jeg likte en @YouTube-video \xe2\x80\x93 https://t.co/hBY03DVWMD iPhone mini, Galaxy Marshmallow updates comments &amp; more - Pocketnow Daily'
p2
sS'Created At'
p3
S'2015-11-28 22:13:44'
p4
s.(dp0
S'Text'
p1
S'RT @MCPE_News: MCPE QUESTION: What have you been playing the 0.13.0 update on?\n\nRT for iOS!\nLIKE for Android!'
p2
sS'Created At'
p3
S'2015-11-28 22:13:44'
p4
s.(dp0
S'Text'
p1
S'Back on team iPhone'
p2
sS'Created At'
p3
S'2015-11-28 22:13:45'
p4
s.(dp0
S'Text'
p1
S'Woman finds stranger\xe2\x80\x99s data on \xe2\x80\x98new\xe2\x80\x99 iPhone https://t.co/4nTib7Qimm'
p2
sS'Created At'
p3
S'2015-11-28 22:13:45'
p4
s.(dp0
S'Text'
p1
S'Computer Shop #1091 &gt; https://t.co/MOTbJXLyZl Apple Mac/iPad/iPhone Bluetooth Wireless Keyboard (Newest Version) -\xe2\x80\xa6 https://t.co/zsA5LeyXvC'
p2
sS'Created At'
p3
S'2015-11-28 22:13:46'
p4
s.(dp0
S'Text'
p1
S'Apple Iphone Contract \xe2\x80\x93 Best Method To Buy A\xc2\xa0Smartphone https://t.co/a2PxFOhyJG https://t.co/zEiuLJpXux'
p2
sS'Created At'
p3
S'2015-11-28 22:13:46'
p4
s.(dp0
S'Text'
p1
S'Woman finds stranger\xe2\x80\x99s data on \xe2\x80\x98new\xe2\x80\x99 iPhone https://t.co/7LfDCxU8BB'
p2
sS'Created At'
p3
S'2015-11-28 22:13:46'
p4
s.(dp0
S'Text'
p1
S"RT @TheLiberal_ie: WIN #WIN #iPhone6 -We're giving away an iPhone 6 thanks to @Pursha_com To enter, re-tweet &amp; Follow us! #competition http\xe2\x80\xa6"
p2
sS'Created At'
p3
S'2015-11-28 22:13:48'
p4
s.(dp0
S'Text'
p1
S'RT @ShitChallenge: @ShitChallenge start the next step!\nGet an iPhone for free!*\nVisit: https://t.co/26lOKqRqLN https://t.co/A5ObkoNi5O'
p2
sS'Created At'
p3
S'2015-11-28 22:13:48'
p4
s.(dp0
S'Text'
p1
S'Rumor: Apple to Kill Headphone Jack in iPhone 7 - PC Magazine https://t.co/QflDytHwgv'
p2
sS'Created At'
p3
S'2015-11-28 22:13:50'
p4
s.(dp0
S'Text'
p1
S"RT @ayanadanielle: can someone explain to me why I would get anything except the 16gb iPhone (it's cheaper) if I can just buy iCloud storag\xe2\x80\xa6"
p2
sS'Created At'
p3
S'2015-11-28 22:13:50'
p4
s.(dp0
S'Text'
p1
S'RT @UberFacts: George Hotz, a 17-year-old hacker, was the first to unlock a first generation iPhone\xe2\x80\x94he traded it for a Nissan 350z and 3 lo\xe2\x80\xa6'
p2
sS'Created At'
p3
S'2015-11-28 22:13:51'
p4
s.(dp0
S'Text'
p1
S'#london #iphone #futball #architecturelover Learn to #make #insane #beats: This Is The Best Converting Music Prod https://t.co/eqQqSYYRTB'
p2
sS'Created At'
p3
S'2015-11-28 22:13:51'
p4
s.(dp0
S'Text'
p1
S"The type of trades you'll see in my NHL fantasy league  https://t.co/LdFJcxCtHd"
p2
sS'Created At'
p3
S'2015-11-28 22:13:51'
p4
s.(dp0
S'Text'
p1
S'@Calzo will look see on eBay then. Now phone is on iOS 9 can\xe2\x80\x99t AirPlay to it and only jailbroken to stream from NAS which a apps can do now'
p2
sS'Created At'
p3
S'2015-11-28 22:13:52'
p4
s.(dp0
S'Text'
p1
S"Cortana for iOS beta arrives (but it isn't for everyone) - PCWorld https://t.co/AW2cwfJJNz"
p2
sS'Created At'
p3
S'2015-11-28 22:13:52'
p4
s.(dp0
S'Text'
p1
S'RT @PushnTheLimits: C/O Trynna Get A Dolla By:@9Gotti on @SmartPhoneRecs\nAndroid:https://t.co/lFZLtbx4ZV\niPhone:https://t.co/2MVp47OAQQ htt\xe2\x80\xa6'
p2
sS'Created At'
p3
S'2015-11-28 22:13:52'
p4
s.(dp0
S'Text'
p1
S'@yasmine_djazair iphone 5 ??'
p2
sS'Created At'
p3
S'2015-11-28 22:13:53'
p4
s.(dp0
S'Text'
p1
S'RT @vaipcrlhyah: IPhone https://t.co/7EizZLxwHz'
p2
sS'Created At'
p3
S'2015-11-28 22:13:54'
p4
s.(dp0
S'Text'
p1
S'RT @rtpubertygoals: iphone https://t.co/bGdZCvstQs'
p2
sS'Created At'
p3
S'2015-11-28 22:13:54'
p4
s.(dp0
S'Text'
p1
S'A 2004 Honda Civic was just scanned near Peachtree City, GA 30269 https://t.co/Pa268hmek6 #ios #apple #vinnyapp'
p2
sS'Created At'
p3
S'2015-11-28 22:13:55'
p4
s.(dp0
S'Text'
p1
S"mes parents: iPhone 6 c'est Samsung?"
p2
sS'Created At'
p3
S'2015-11-28 22:13:55'
p4
s.(dp0
S'Text'
p1
S'RT @PushnTheLimits: Checkout MLK \nBy: @9Gotti on @SmartPhoneRecs\nAndroid:https://t.co/lFZLtbx4ZV\niPhone:https://t.co/2MVp47OAQQ https://t.c\xe2\x80\xa6'
p2
sS'Created At'
p3
S'2015-11-28 22:13:55'
p4
s.(dp0
S'Text'
p1
S'@Leanne_jonesx LUV4LUV UKG VOL.1 Mixed by @DJPyro Android https://t.co/bKex7co7ts / Iphone https://t.co/lL9uIaK75D https://t.co/vLqRTMgVNh'
p2
sS'Created At'
p3
S'2015-11-28 22:13:55'
p4
s.(dp0
S'Text'
p1
S'#Iphone 7 Features\xc2\xa0News https://t.co/y51JzG7gUo'
p2
sS'Created At'
p3
S'2015-11-28 22:13:57'
p4
s.(dp0
S'Text'
p1
S'RT @JonyIveParody: Show of hands: Who thinks the iPhone should be even fucking thinner? https://t.co/PxVGeWmAU6'
p2
sS'Created At'
p3
S'2015-11-28 22:13:58'
p4
s.(dp0
S'Text'
p1
S'RT @OplaRahman: Jailbreak iOS 9 Guide - https://t.co/ta4AZ0KVJV https://t.co/RA0edTUs6k'
p2
sS'Created At'
p3
S'2015-11-28 22:13:58'
p4
s.(dp0
S'Text'
p1
S'RT @ShitChallenge: @ShitChallenge start the next step!\nGet an iPhone for free!*\nVisit: https://t.co/26lOKqRqLN https://t.co/A5ObkoNi5O'
p2
sS'Created At'
p3
S'2015-11-28 22:13:58'
p4
s.(dp0
S'Text'
p1
S'George Hotz, a 17-year-old hacker, was the first to unlock a first generation iPhone\xe2\x80\x94he traded it for a Nissan 350z and 3 locked iPhones.'
p2
sS'Created At'
p3
S'2015-11-28 22:13:58'
p4
s.(dp0
S'Text'
p1
S'Having fun playing #CSRRacing for iOS, why not join me for FREE?\nhttps://t.co/Gl4DW5mC7p'
p2
sS'Created At'
p3
S'2015-11-28 22:13:59'
p4
s.(dp0
S'Text'
p1
S'3D Sculpture Design Rose Flower Hard Plastic Cover Case For iPhone 4 4S Pink Y#B - Bid Now\xe2\x80\xa6 https://t.co/P6bkLm4pd6 https://t.co/aci763iDSz'
p2
sS'Created At'
p3
S'2015-11-28 22:13:59'
p4
s.(dp0
S'Text'
p1
S'Report: Apple plans to nix 3.5mm port on iPhone 7, require Lightning for wired headphones https://t.co/bGm8vtMhMQ'
p2
sS'Created At'
p3
S'2015-11-28 22:14:00'
p4
s.(dp0
S'Text'
p1
S'RT @UberFacts: George Hotz, a 17-year-old hacker, was the first to unlock a first generation iPhone\xe2\x80\x94he traded it for a Nissan 350z and 3 lo\xe2\x80\xa6'
p2
sS'Created At'
p3
S'2015-11-28 22:14:00'
p4
s.(dp0
S'Text'
p1
S'Silk Leather Wallet Stand Case Cover For Apple iPhone 4 4G 4S Luxury Slot Slim - Bid Now! \xe2\x80\xa6 https://t.co/srkfYYgCjd https://t.co/2jpd8ROiHZ'
p2
sS'Created At'
p3
S'2015-11-28 22:14:00'
p4
s.(dp0
S'Text'
p1
S"I've harvested 1,084 of food!  https://t.co/9AKpmZxgKa #iphone, #iphonegames, #gameinsight"
p2
sS'Created At'
p3
S'2015-11-28 22:14:00'
p4
s.(dp0
S'Text'
p1
S'Hybrid Rugged Rubber Matte Hard Case Cover For iPhone 4 4S +Screen protector+Pen - Bid Now\xe2\x80\xa6 https://t.co/pjy99g8M0p https://t.co/s77p3J776U'
p2
sS'Created At'
p3
S'2015-11-28 22:14:01'
p4
s.(dp0
S'Text'
p1
S'Ultra-thin TPU Gel Back Case Cover Fashion Patterned for Apple iPhone 4S HOT - Bid Now! On\xe2\x80\xa6 https://t.co/txo2sCyJRm https://t.co/QFI0fqLD4C'
p2
sS'Created At'
p3
S'2015-11-28 22:14:01'
p4
s.(dp0
S'Text'
p1
S'Apple iPhone 4s 32gb AT&amp;T Unlocked With Many Extras - Bid Now! Only $102.5 https://t.co/CUCtVTUayZ https://t.co/KyN2BsNpkr'
p2
sS'Created At'
p3
S'2015-11-28 22:14:01'
p4
s.(dp0
S'Text'
p1
S'RT @OplaRahman: Jailbreak iOS 9 Guide - https://t.co/ta4AZ0KVJV https://t.co/RA0edTUs6k'
p2
sS'Created At'
p3
S'2015-11-28 22:14:01'
p4
s.(dp0
S'Text'
p1
S'Apple iPhone 4s - 8GB - White (AT&amp;T) Smartphone - Bid Now! Only $51.0 https://t.co/98lUzirNIj https://t.co/HgHuuIvs9V'
p2
sS'Created At'
p3
S'2015-11-28 22:14:02'
p4
s.(dp0
S'Text'
p1
S'About to get this iPhone 6s cause a bih need some more storage to take baby pics \xf0\x9f\x98\x8d'
p2
sS'Created At'
p3
S'2015-11-28 22:14:02'
p4
s.(dp0
S'Text'
p1
S'iPhone 4s - 16GB - Black - Bid Now! Only $26.0 https://t.co/AUxMMfFuaH https://t.co/Nh5uBB1QwD'
p2
sS'Created At'
p3
S'2015-11-28 22:14:02'
p4
s.(dp0
S'Text'
p1
S'Who needs cable when u can watch your parents try to figure out an iPhone'
p2
sS'Created At'
p3
S'2015-11-28 22:14:03'
p4
s.(dp0
S'Text'
p1
S"If you're going to go against veganism bc of plant based industry worker exploration I suggest you throw away your iPhone"
p2
sS'Created At'
p3
S'2015-11-28 22:14:03'
p4
s.(dp0
S'Text'
p1
S'Apple iPhone 4s - 8GB - Black (Boost Mobile) Smartphone - Bid Now! Only $186.0 https://t.co/2aqAzND384 https://t.co/TIZVFHg2CY'
p2
sS'Created At'
p3
S'2015-11-28 22:14:03'
p4
s.(dp0
S'Text'
p1
S"Anyone got an iPhone stream for fury kltichscko? I'm on a date \xf0\x9f\x98\x8b"
p2
sS'Created At'
p3
S'2015-11-28 22:14:03'
p4
s.(dp0
S'Text'
p1
S'Apple iPhone 4s - 16GB - White (Unlocked) Smartphone - Bid Now! Only $115.0 https://t.co/QqEGfO6huF https://t.co/Id36N0RY3X'
p2
sS'Created At'
p3
S'2015-11-28 22:14:03'
p4
s.(dp0
S'Text'
p1
S'@SPG_JLee @WillisonKim @MYP81 6th P is how WE do it! Maria is a machine in the field!! #tmt #development #BFready https://t.co/LpVgIAYmso'
p2
sS'Created At'
p3
S'2015-11-28 22:14:04'
p4
s.(dp0
S'Text'
p1
S'@tiredlatina OMG THSNK YOU I TAKE THEM ON MG IPHONE AND IM GOOD HOW ARE YOU CUTIE?'
p2
sS'Created At'
p3
S'2015-11-28 22:14:04'
p4
s.(dp0
S'Text'
p1
S'Omg I want for the holidays  https://t.co/pTInjRdVrJ'
p2
sS'Created At'
p3
S'2015-11-28 22:14:05'
p4
s.(dp0
S'Text'
p1
S'Daddy Dino Rocks Games Strategy iPhone App **** $0. ... https://t.co/9HoCrnHaSz https://t.co/DpDGUGQtVX'
p2
sS'Created At'
p3
S'2015-11-28 22:14:06'
p4
s.(dp0
S'Text'
p1
S'StonePacker Classic #Games #Family #iPhone App $1. \xe2\x80\xa6: ... https://t.co/iOLJxTmAUy'
p2
sS'Created At'
p3
S'2015-11-28 22:14:06'
p4
s.(dp0
S'Text'
p1
S'Get ready to thrill your caller with KAI! (Caller tune) code be out soon + all the iPhone users get ready to also... https://t.co/7CvMvSdxw7'
p2
sS'Created At'
p3
S'2015-11-28 22:14:06'
p4
s.(dp0
S'Text'
p1
S'RT @JonyIveParody: Show of hands: Who thinks the iPhone should be even fucking thinner? https://t.co/PxVGeWmAU6'
p2
sS'Created At'
p3
S'2015-11-28 22:14:06'
p4
s.(dp0
S'Text'
p1
S"Can everyone text me. I'm trying out this iPhone bullshit"
p2
sS'Created At'
p3
S'2015-11-28 22:14:07'
p4
s.(dp0
S'Text'
p1
S'iphone https://t.co/QjYwqrz1HL'
p2
sS'Created At'
p3
S'2015-11-28 22:14:07'
p4
s.(dp0
S'Text'
p1
S'RT @ShitChallenge: @ShitChallenge start the next step!\nGet an iPhone for free!*\nVisit: https://t.co/26lOKqRqLN https://t.co/A5ObkoNi5O'
p2
sS'Created At'
p3
S'2015-11-28 22:14:07'
p4
s.(dp0
S'Text'
p1
S'BuzzKeys Utilities iPhone App *** $0.99 -&amp;gt; FREE #Utilities #... https://t.co/N4YGuZELfD'
p2
sS'Created At'
p3
S'2015-11-28 22:14:07'
p4
s.(dp0
S'Text'
p1
S"Can't find an iPhone 6S jailbroken on eBay...? https://t.co/I87cpTJp4D"
p2
sS'Created At'
p3
S'2015-11-28 22:14:07'
p4
s.(dp0
S'Text'
p1
S'Best Black Friday deals 2015 UK live blog: Apple, Mac, iPad &amp;amp;amp; iPhone deals * 66 https://t.co/2ypH3LXR2w'
p2
sS'Created At'
p3
S'2015-11-28 22:14:08'
p4
s.(dp0
S'Text'
p1
S'RT @Goals4Dudes: I need a matte black iPhone in my life https://t.co/JaQNiIP0PM'
p2
sS'Created At'
p3
S'2015-11-28 22:14:08'
p4
s.(dp0
S'Text'
p1
S'Feel As Being Celebrity With Apple Iphone\xc2\xa04 https://t.co/id7UTMJJVI https://t.co/Q9leLCdJhu'
p2
sS'Created At'
p3
S'2015-11-28 22:14:08'
p4
s.(dp0
S'Text'
p1
S'RT @bgolbourne: Does anyone know if this is legit? iPhone asking me to change my password. Gave me a 60 minute countdown. Weird. https://t.\xe2\x80\xa6'
p2
sS'Created At'
p3
S'2015-11-28 22:14:10'
p4
s.(dp0
S'Text'
p1
S"Think I'll get an iPhone just so I can randomly face time my best friend out of the blue lol"
p2
sS'Created At'
p3
S'2015-11-28 22:14:10'
p4
s.(dp0
S'Text'
p1
S'RT @ShitChallenge: @ShitChallenge start the next step!\nGet an iPhone for free!*\nVisit: https://t.co/26lOKqRqLN https://t.co/A5ObkoNi5O'
p2
sS'Created At'
p3
S'2015-11-28 22:14:11'
p4
s.(dp0
S'Text'
p1
S'https://t.co/KNsgMdzUUG #8643 Pink Full Body and Bumper Decal Sticker Skin Kit Compatible with iPhone 4 4s https://t.co/75lbr3ceuh'
p2
sS'Created At'
p3
S'2015-11-28 22:14:10'
p4
s.(dp0
S'Text'
p1
S'APPLE IPHONE 5 BLACK 64 GB iOS9 UNLOCKED SMARTPHONE BUNDLE TING claim yours now via https://t.co/Ct7pJyFPM5 #iphon\xe2\x80\xa6 https://t.co/EzIjzlRru3'
p2
sS'Created At'
p3
S'2015-11-28 22:14:11'
p4
s.(dp0
S'Text'
p1
S'@ohheygreat @kate_mckean @PJVogt The new Apple TV is incompatible with https://t.co/usqiLr1M62 for iOS. (Crazy, I know!)'
p2
sS'Created At'
p3
S'2015-11-28 22:14:12'
p4
s.(dp0
S'Text'
p1
S'RT @ShitChallenge: @ShitChallenge start the next step!\nGet an iPhone for free!*\nVisit: https://t.co/26lOKqRqLN https://t.co/A5ObkoNi5O'
p2
sS'Created At'
p3
S'2015-11-28 22:14:12'
p4
s.(dp0
S'Text'
p1
S'When your niece take all these selfies in your  i pad and phone  when she has her OWN iPHONE \xf0\x9f\x92\x81\xf0\x9f\x8f\xbe'
p2
sS'Created At'
p3
S'2015-11-28 22:14:13'
p4
s.(dp0
S'Text'
p1
S'A bunch of my stuff ends on eBay tomorrow. iPhone 6, iPad Air 2, bags, batteries. Check it out. https://t.co/UsYbAITFYa'
p2
sS'Created At'
p3
S'2015-11-28 22:14:13'
p4
s.(dp0
S'Text'
p1
S'Having fun playing #CSRRacing for iOS, why not join me for FREE?\nhttps://t.co/EruNfHeGej'
p2
sS'Created At'
p3
S'2015-11-28 22:14:13'
p4
s.(dp0
S'Text'
p1
S'https://t.co/TrcTxTTshs #0267 USA White LCD Display Screen Touch Digitizer Glass Assembly for Iphone 4 GSM https://t.co/88hjvfjflk'
p2
sS'Created At'
p3
S'2015-11-28 22:14:13'
p4
s.(dp0
S'Text'
p1
S'https://t.co/EaZe1jSwHH #2475 Skin for LifeProof Nuud iPhone 6 Plus - Conjure by FP - Sticker Decal https://t.co/BvH3r6OsF8'
p2
sS'Created At'
p3
S'2015-11-28 22:14:14'
p4
s.(dp0
S'Text'
p1
S'RT @jeffherb: How to Remotely Erase a Stolen iPhone or iPad https://t.co/f7wGEehbVL #edtech #edchat'
p2
sS'Created At'
p3
S'2015-11-28 22:14:14'
p4
s.(dp0
S'Text'
p1
S'Hey @_Caami19 @fireflye10, Meet THINO, the only iPhone and Android OTG charger worth getting excited about Do you ? https://t.co/6FTOR7Ns4S'
p2
sS'Created At'
p3
S'2015-11-28 22:14:14'
p4
s.(dp0
S'Text'
p1
S'@davidjoelhall I\xe2\x80\x99m happy they said it would be free for existing iOS owners.'
p2
sS'Created At'
p3
S'2015-11-28 22:14:15'
p4
s.(dp0
S'Text'
p1
S'https://t.co/VdH0B8nXxj #4794 Oregon Ducks Graphics case by Siskiyou Apple iPhone 4 4S NCAA Snapon case cover https://t.co/TivNFUmhfN'
p2
sS'Created At'
p3
S'2015-11-28 22:14:15'
p4
s.(dp0
S'Text'
p1
S'Felt Case for iPhone 6 and iPhone 6 Plus by F\xc5\xaaZ Designs, via @Kickstarter https://t.co/kW1T7dL6jE'
p2
sS'Created At'
p3
S'2015-11-28 22:14:15'
p4
s.(dp0
S'Text'
p1
S'Montage of minimalist #winter themed sketches #novembrrrr series made with @FiftyThree for iPhone https://t.co/OdStBdYe8e'
p2
sS'Created At'
p3
S'2015-11-28 22:14:15'
p4
s.(dp0
S'Text'
p1
S'https://t.co/tJCaZWlH0x #1316 US White LCD Display Touch Digitizer Screen Assembly for Verizon Sprint iphone 4 https://t.co/W3NlQnIeaK'
p2
sS'Created At'
p3
S'2015-11-28 22:14:15'
p4
s.(dp0
S'Text'
p1
S'I accidentally backed up my iPhone and all my pictures got deleted \xf0\x9f\x98\x94\xf0\x9f\x98\x94\xf0\x9f\x98\x94\xf0\x9f\x98\xaa\xf0\x9f\x98\xaa'
p2
sS'Created At'
p3
S'2015-11-28 22:14:16'
p4
s.(dp0
S'Text'
p1
S"I don't know why anyone would buy a Samsung, soooooo shit!! Where my new iPhone at!!!!"
p2
sS'Created At'
p3
S'2015-11-28 22:14:16'
p4
s.(dp0
S'Text'
p1
S'https://t.co/0FHq66Bz5A #1625 NFL Cover for Apple iPhone 4 4S Faceplate Protector Case Miami Dolphins https://t.co/UpzLXorSbs'
p2
sS'Created At'
p3
S'2015-11-28 22:14:16'
p4
s.(dp0
S'Text'
p1
S'3D Sculpture Design Rose Flower Hard Plastic Cover Case For iPhone 4 4S Pink Y#B - Bid Now\xe2\x80\xa6 https://t.co/zRjP4WjAjY https://t.co/BmzC841psH'
p2
sS'Created At'
p3
S'2015-11-28 22:14:17'
p4
s.(dp0
S'Text'
p1
S'George Hotz, a 17-year-old hacker, was the first to unlock a first generation iPhone\xe2\x80\x94he traded it for a Nissan 350z and 3 locked iPhones.'
p2
sS'Created At'
p3
S'2015-11-28 22:14:17'
p4
s.(dp0
S'Text'
p1
S'RT @OmarImranTweets: "Y dnt u Muslims tell ISIS to stop"\n\nOk hold up *pulls out iphone*\n\n"Yo ISIS habibi,its me plz stop"\n\nISIS:"ok habibi \xe2\x80\xa6'
p2
sS'Created At'
p3
S'2015-11-28 22:14:17'
p4
s.(dp0
S'Text'
p1
S'https://t.co/xTsKjegCXb #3155 Cellular Line Touch Case Momo Soft For Apple iPhone 4 4S White https://t.co/u2jTqyrHob'
p2
sS'Created At'
p3
S'2015-11-28 22:14:17'
p4
s.(dp0
S'Text'
p1
S'Silk Leather Wallet Stand Case Cover For Apple iPhone 4 4G 4S Luxury Slot Slim - Bid Now! \xe2\x80\xa6 https://t.co/IO3RwLvLdp https://t.co/7rMupW9QZE'
p2
sS'Created At'
p3
S'2015-11-28 22:14:17'
p4
s.(dp0
S'Text'
p1
S"When you realize you can't switch from iphone to android bc of your COC Account. \xf0\x9f\x98\xad\xf0\x9f\x92\x94"
p2
sS'Created At'
p3
S'2015-11-28 22:14:18'
p4
s.(dp0
S'Text'
p1
S'Dead ass? For how much? RT @ThoughtsByRambo: Extra iPhone if you neeed it.'
p2
sS'Created At'
p3
S'2015-11-28 22:14:18'
p4
s.(dp0
S'Text'
p1
S'RT @vibegifs: people are excited about the new iPhone but have yet to discover this little amazing gadget http://t.co/QcfWayUV7s'
p2
sS'Created At'
p3
S'2015-11-28 22:14:18'
p4
s.(dp0
S'Text'
p1
S'https://t.co/gPlb2jsx4m #9250 Matte Black Full Body and Bumper Decal Sticker Skin Kit Compatible w iPhone 4 4s https://t.co/0oaKPNmqpT'
p2
sS'Created At'
p3
S'2015-11-28 22:14:18'
p4
s.(dp0
S'Text'
p1
S'Hybrid Rugged Rubber Matte Hard Case Cover For iPhone 4 4S +Screen protector+Pen - Bid Now\xe2\x80\xa6 https://t.co/g4OLSZwxlP https://t.co/3u7B3XigcZ'
p2
sS'Created At'
p3
S'2015-11-28 22:14:18'
p4
s.(dp0
S'Text'
p1
S'Help the Smurfs build a village to call home! Play on iOS and Android. @BeelineGames #SmurfsVillage https://t.co/EMnzmELLQr'
p2
sS'Created At'
p3
S'2015-11-28 22:14:18'
p4
s.(dp0
S'Text'
p1
S'https://t.co/AmQbrFLzGF #9680 Skin for LifeProof Nuud iPhone 6 Plus - Traveler - Sticker Decal https://t.co/sPlI7qdP8R'
p2
sS'Created At'
p3
S'2015-11-28 22:14:19'
p4
s.(dp0
S'Text'
p1
S'Apple iPhone 4s 32gb AT&amp;T Unlocked With Many Extras - Bid Now! Only $102.5 https://t.co/IyKi3S7HQ0 https://t.co/nmtnJMcHhE'
p2
sS'Created At'
p3
S'2015-11-28 22:14:19'
p4
s.(dp0
S'Text'
p1
S"RT @yoifeellike: the iphone charger that doesn't quite reach"
p2
sS'Created At'
p3
S'2015-11-28 22:14:19'
p4
s.(dp0
S'Text'
p1
S'I finished the "The Best Houses" task in Big Business Deluxe for iOS! https://t.co/dnKliWVRaR #GameInsight #iPhone #iPhoneGames'
p2
sS'Created At'
p3
S'2015-11-28 22:14:19'
p4
s.(dp0
S'Text'
p1
S'RT @UberFacts: George Hotz, a 17-year-old hacker, was the first to unlock a first generation iPhone\xe2\x80\x94he traded it for a Nissan 350z and 3 lo\xe2\x80\xa6'
p2
sS'Created At'
p3
S'2015-11-28 22:14:19'
p4
s.(dp0
S'Text'
p1
S'https://t.co/FaOoHLCkFw #8595 Skin for LifeProof Nuud iPhone 6 Plus - Digital Urban Camo - Sticker Decal https://t.co/wbhki11ucs'
p2
sS'Created At'
p3
S'2015-11-28 22:14:19'
p4
s.(dp0
S'Text'
p1
S'RT @MadeManJama: I bought an IPhone in Somalia it looked like a Nokia 3210 as I was leaving some lady started following me I said Who Are Y\xe2\x80\xa6'
p2
sS'Created At'
p3
S'2015-11-28 22:14:20'
p4
s.(dp0
S'Text'
p1
S'Make the iOS SideDrawer Bounce with UIKitDynamics https://t.co/CcQ6MCXr9z #mobile #mobility'
p2
sS'Created At'
p3
S'2015-11-28 22:14:20'
p4
s.(dp0
S'Text'
p1
S'#Iphone 7 Features\xc2\xa0News https://t.co/sxP2wJ3mWO'
p2
sS'Created At'
p3
S'2015-11-28 22:14:21'
p4
s.(dp0
S'Text'
p1
S'I get home last night from work and my mom surprised me with my first iPhone. \xe2\x99\xa5'
p2
sS'Created At'
p3
S'2015-11-28 22:14:21'
p4
s.(dp0
S'Text'
p1
S"I've just received an achievement: Tireless https://t.co/oMeue6iKj6 #iphone #iphonegames #gameinsight"
p2
sS'Created At'
p3
S'2015-11-28 22:14:21'
p4
s.(dp0
S'Text'
p1
S'IOS DrumPerfect V 1.05.1 IPA Free Download - https://t.co/6LJjdKmZu7 https://t.co/4NzegFyAYb'
p2
sS'Created At'
p3
S'2015-11-28 22:14:21'
p4
s.(dp0
S'Text'
p1
S'RT @LexiWare: shoutout to my girl lex for finally getting rid of her iPhone 4!!!!!!!!'
p2
sS'Created At'
p3
S'2015-11-28 22:14:22'
p4
s.(dp0
S'Text'
p1
S'#10BillionWives \nI married104,091,833,175,88Wives!\n\niOS: https://t.co/smE7EWulGk\nAndroid: https://t.co/rzJE1abVSh https://t.co/r0NjvzEVho'
p2
sS'Created At'
p3
S'2015-11-28 22:14:22'
p4
s.(dp0
S'Text'
p1
S'Apple Iphone Contract \xe2\x80\x93 Best Method To Buy A\xc2\xa0Smartphone https://t.co/vvdJeeMj8j https://t.co/pxudjw2Kab'
p2
sS'Created At'
p3
S'2015-11-28 22:14:24'
p4
s.(dp0
S'Text'
p1
S'I have reached 14 level. I got $21000 and \xe2\x82\xac2! https://t.co/cdBcomYEfC #gameinsight #iphonegames #iphone'
p2
sS'Created At'
p3
S'2015-11-28 22:14:25'
p4
s.(dp0
S'Text'
p1
S'RT @imtreety_: iPhone 5c *Sprint for sale'
p2
sS'Created At'
p3
S'2015-11-28 22:14:25'
p4
s.(dp0
S'Text'
p1
S'#Official Endless Sniper (by By Daniel Abdel-Nour) Launch Trailer iOS / Android https://t.co/Mw1P7psN26 https://t.co/KJhiaN27x0'
p2
sS'Created At'
p3
S'2015-11-28 22:14:25'
p4
s.(dp0
S'Text'
p1
S'RT @OplaRahman: Jailbreak iOS 9 Guide - https://t.co/ta4AZ0KVJV https://t.co/RA0edTUs6k'
p2
sS'Created At'
p3
S'2015-11-28 22:14:25'
p4
s.(dp0
S'Text'
p1
S'https://t.co/xusZp67hT0 #7239 * NEW *** APPLE iPhone 4S - 16GB - White - GSM Factory Unlocked Smart Phone * https://t.co/nmIj66SMSs'
p2
sS'Created At'
p3
S'2015-11-28 22:14:27'
p4
s.(dp0
S'Text'
p1
S'https://t.co/xxqxQzOxGa #3916 Apple iPhone 4S 16GB "Factory Unlocked" Black and White Smartphone https://t.co/LDi1hsTxnu'
p2
sS'Created At'
p3
S'2015-11-28 22:14:28'
p4
s.(dp0
S'Text'
p1
S'Having fun playing #CSRRacing for iOS, why not join me for FREE?\nhttps://t.co/ylZJmMPyIB'
p2
sS'Created At'
p3
S'2015-11-28 22:14:28'
p4
s.(dp0
S'Text'
p1
S'Fuck with me next time, puta https://t.co/PGnF8Y28SQ'
p2
sS'Created At'
p3
S'2015-11-28 22:14:29'
p4
s.(dp0
S'Text'
p1
S'Any iPhone links for the fight?'
p2
sS'Created At'
p3
S'2015-11-28 22:14:29'
p4
s.(dp0
S'Text'
p1
S'Australia 97. Jealous - Labrinth https://t.co/hRdZGFTKcF #Music #iTunes #iPhone #Apple'
p2
sS'Created At'
p3
S'2015-11-28 22:14:30'
p4
s.(dp0
S'Text'
p1
S'RT @UberFacts: George Hotz, a 17-year-old hacker, was the first to unlock a first generation iPhone\xe2\x80\x94he traded it for a Nissan 350z and 3 lo\xe2\x80\xa6'
p2
sS'Created At'
p3
S'2015-11-28 22:14:31'
p4
s.(dp0
S'Text'
p1
S'Australia 89. Bad Romance - Lady Gaga https://t.co/I5UPF2cGcd #Music #Video #iTunes #iPhone #Apple #Mac'
p2
sS'Created At'
p3
S'2015-11-28 22:14:32'
p4
s.(dp0
S'Text'
p1
S'My dad now has the iPhone.. What has the world come to \xf0\x9f\x98\x82'
p2
sS'Created At'
p3
S'2015-11-28 22:14:32'
p4
s.(dp0
S'Text'
p1
S'RT @OplaRahman: Jailbreak iOS 9 Guide - https://t.co/ta4AZ0KVJV https://t.co/RA0edTUs6k'
p2
sS'Created At'
p3
S'2015-11-28 22:14:33'
p4
s.(dp0
S'Text'
p1
S'Australia 90. Hot Potatoes! The Best of the Wiggles - The Wiggles https://t.co/r7B3RJjARb #Music #iTunes #iPhone #Apple'
p2
sS'Created At'
p3
S'2015-11-28 22:14:33'
p4
s.(dp0
S'Text'
p1
S'Nice to meet Mrs. Thompson! Look for the new acquaintances in the streets of London! https://t.co/Au3YQ28no6 #iPhone #iPhoneG...'
p2
sS'Created At'
p3
S'2015-11-28 22:14:33'
p4
s.(dp0
S'Text'
p1
S'@Tyt4369 iPhone work? I know someone who got a brand new 5s'
p2
sS'Created At'
p3
S'2015-11-28 22:14:34'
p4
s.(dp0
S'Text'
p1
S"RT @fox32news: Woman finds stranger's photos &amp; messages on her 'new' iPhone https://t.co/SPuBsf2r6R https://t.co/tiBH9HNe9e"
p2
sS'Created At'
p3
S'2015-11-28 22:14:34'
p4
s.(dp0
S'Text'
p1
S'See who viewed your instagram profile recently with InstaView iPhone and Android app..@instaviewapps: https://t.co/F12JA679OT'
p2
sS'Created At'
p3
S'2015-11-28 22:14:35'
p4
s.(dp0
S'Text'
p1
S'Mom just offered me the iPhone 6 if I start wearing a bra again. This is actually a really hard decision'
p2
sS'Created At'
p3
S'2015-11-28 22:14:36'
p4
s.(dp0
S'Text'
p1
S'Giveaway: IPhone 6S giveaway(International) via /r/giveaways https://t.co/g205pG9gaJ'
p2
sS'Created At'
p3
S'2015-11-28 22:14:37'
p4
s.(dp0
S'Text'
p1
S"After Using Android for 5 Years, I've Finally Switched to iPhone https://t.co/EoB37pE5gv https://t.co/FBwHywFB23"
p2
sS'Created At'
p3
S'2015-11-28 22:14:38'
p4
s.(dp0
S'Text'
p1
S"Just not Canada's mortgage industry. Another tool we are years away from, if ever.  https://t.co/9L7GywT7gU"
p2
sS'Created At'
p3
S'2015-11-28 22:14:38'
p4
s.(dp0
S'Text'
p1
S'LIKE if u have an iPhone\xf0\x9f\x98\x8d\n\xe2\x95\xad\xe2\x94\x81\xe2\x94\x81\xe2\x94\x81\xe2\x94\x81\xe2\x94\x81\xe2\x95\xae\n\xe2\x94\x83 \xe2\x97\x8f \xe2\x95\x90\xe2\x95\x90 |\n\xe2\x94\x83\xe2\x96\x88\xe2\x96\x88\xe2\x96\x88\xe2\x96\x88\xe2\x96\x88\xe2\x94\x83\n\xe2\x94\x83\xe2\x96\x88\xe2\x96\x88\xe2\x96\x88\xe2\x96\x88\xe2\x96\x88\xe2\x94\x83\n\xe2\x94\x83\xe2\x96\x88\xe2\x96\x88\xe2\x96\x88\xe2\x96\x88\xe2\x96\x88\xe2\x94\x83 \n\xe2\x94\x83\xe2\x96\x88\xe2\x96\x88\xe2\x96\x88\xe2\x96\x88\xe2\x96\x88\xe2\x94\x83\n\xe2\x94\x83\xe2\x96\x88\xe2\x96\x88\xe2\x96\x88\xe2\x96\x88\xe2\x96\x88\xe2\x94\x83\n\xe2\x94\x83\xe2\x96\x88\xe2\x96\x88\xe2\x96\x88\xe2\x96\x88\xe2\x96\x88\xe2\x94\x83\n\xe2\x94\x83\xe3\x80\x80 \xe2\x97\x8b\xe3\x80\x80 \xe2\x94\x83\n\xe2\x95\xb0\xe2\x94\x81\xe2\x94\x81\xe2\x94\x81\xe2\x94\x81\xe2\x94\x81\xe2\x95\xaf\nComment what Phone you have\xf0\x9f\x98\x9c\xf0\x9f\x8d\x89'
p2
sS'Created At'
p3
S'2015-11-28 22:14:38'
p4
s.(dp0
S'Text'
p1
S'No way I hit that (iPhone record) https://t.co/nynZe1nWjO'
p2
sS'Created At'
p3
S'2015-11-28 22:14:39'
p4
s.(dp0
S'Text'
p1
S'RT @UberFacts: George Hotz, a 17-year-old hacker, was the first to unlock a first generation iPhone\xe2\x80\x94he traded it for a Nissan 350z and 3 lo\xe2\x80\xa6'
p2
sS'Created At'
p3
S'2015-11-28 22:14:39'
p4
s.(dp0
S'Text'
p1
S'The iPhone ditching its 3.5mm headphone port actually makes sense. Not just because of the thickness. https://t.co/TX9JFucyxE'
p2
sS'Created At'
p3
S'2015-11-28 22:14:41'
p4
s.(dp0
S'Text'
p1
S'RT @UberFacts: George Hotz, a 17-year-old hacker, was the first to unlock a first generation iPhone\xe2\x80\x94he traded it for a Nissan 350z and 3 lo\xe2\x80\xa6'
p2
sS'Created At'
p3
S'2015-11-28 22:14:41'
p4
s.(dp0
S'Text'
p1
S'RT @ShitChallenge: @ShitChallenge start the next step!\nGet an iPhone for free!*\nVisit: https://t.co/26lOKqRqLN https://t.co/A5ObkoNi5O'
p2
sS'Created At'
p3
S'2015-11-28 22:14:43'
p4
s.(dp0
S'Text'
p1
S'RT @UberFacts: George Hotz, a 17-year-old hacker, was the first to unlock a first generation iPhone\xe2\x80\x94he traded it for a Nissan 350z and 3 lo\xe2\x80\xa6'
p2
sS'Created At'
p3
S'2015-11-28 22:14:44'
p4
s.(dp0
S'Text'
p1
S'RT @MovylEnt: The preferred bubble shooter in the App Store! #8MonthsWithoutZayn\n\xf0\x9f\x94\xbbBubble Monsters! &gt; iOS: https://t.co/tSyxGiP9ho https://t\xe2\x80\xa6'
p2
sS'Created At'
p3
S'2015-11-28 22:14:44'
p4
s.(dp0
S'Text'
p1
S'#Iphone 7 Features\xc2\xa0News https://t.co/woFuftc0xz'
p2
sS'Created At'
p3
S'2015-11-28 22:14:45'
p4
s.(dp0
S'Text'
p1
S'I deleted my tweets with Tweet Cleaning IOS App. Try it https://t.co/O6YzzUbXnB #tweetcleaning'
p2
sS'Created At'
p3
S'2015-11-28 22:14:45'
p4
s.(dp0
S'Text'
p1
S'#losangeles - Funny Hashtag iPhone 5, 5s case cover, Rubber Red https://t.co/SYEKXd25Q9'
p2
sS'Created At'
p3
S'2015-11-28 22:14:45'
p4
s.(dp0
S'Text'
p1
S'Check out Words With Friends a 4.5 *star* iPhone app at the #42 spot in the charts by @WordsWFriends https://t.co/PsPUnc5psB'
p2
sS'Created At'
p3
S'2015-11-28 22:14:45'
p4
s.(dp0
S'Text'
p1
S'RT @OplaRahman: Jailbreak iOS 9 Guide - https://t.co/ta4AZ0KVJV https://t.co/RA0edTUs6k'
p2
sS'Created At'
p3
S'2015-11-28 22:14:46'
p4
s.(dp0
S'Text'
p1
S'Hmmm - Apple May Kill the 3.5mm Headphone Jack on iPhone 7 | Digital Trends https://t.co/rRXS6nLAib #SmartNews'
p2
sS'Created At'
p3
S'2015-11-28 22:14:46'
p4
s.(dp0
S'Text'
p1
S"The fight stream if you're looking.  https://t.co/VtHIJrEtDP"
p2
sS'Created At'
p3
S'2015-11-28 22:14:46'
p4
s.(dp0
S'Text'
p1
S'RT @morespaghetti: They should make the original runescape for iPhone'
p2
sS'Created At'
p3
S'2015-11-28 22:14:47'
p4
s.(dp0
S'Text'
p1
S'Feel As Being Celebrity With Apple Iphone\xc2\xa04 https://t.co/3gU0CIZoAw https://t.co/7y6Ii3JiNH'
p2
sS'Created At'
p3
S'2015-11-28 22:14:48'
p4
s.(dp0
S'Text'
p1
S'RT @ShitChallenge: @ShitChallenge start the next step!\nGet an iPhone for free!*\nVisit: https://t.co/26lOKqRqLN https://t.co/A5ObkoNi5O'
p2
sS'Created At'
p3
S'2015-11-28 22:14:48'
p4
s.(dp0
S'Text'
p1
S'HOT DEALS : https://t.co/CEAIcMelOB Apple iPhone 6S - 16GB - Rose Gold Unlocked Smartphone MKR22LL/A NEW\n\n$719.95 \xe2\x80\xa6 https://t.co/IxvOGVmsTh'
p2
sS'Created At'
p3
S'2015-11-28 22:14:50'
p4
s.(dp0
S'Text'
p1
S'RT @OplaRahman: Jailbreak iOS 9 Guide - https://t.co/ta4AZ0KVJV https://t.co/RA0edTUs6k'
p2
sS'Created At'
p3
S'2015-11-28 22:14:51'
p4
s.(dp0
S'Text'
p1
S'WOOOO! Gonna see JaiWolf/GTA tonight ANDDDD my new Iphone just came in the mail \xf0\x9f\x98\x8d'
p2
sS'Created At'
p3
S'2015-11-28 22:14:52'
p4
s.(dp0
S'Text'
p1
S'@snapchat please upload a fucking update to make your app stop freezing and making my iPhone restart every time I try to use it.'
p2
sS'Created At'
p3
S'2015-11-28 22:14:52'
p4
s.(dp0
S'Text'
p1
S'Apple may kill the 3.5mm headphone jack on the iPhone 7 in favor of Lightning or Bluetooth https://t.co/SaFhICq11J'
p2
sS'Created At'
p3
S'2015-11-28 22:14:53'
p4
s.(dp0
S'Text'
p1
S"#MovylGames: That's where fun is at! #app\n\xf0\x9f\x94\xb8Reflex Drive. &gt; iOS: https://t.co/EXisKhtKn4 https://t.co/w5ad0ZNadQ"
p2
sS'Created At'
p3
S'2015-11-28 22:14:53'
p4
s.(dp0
S'Text'
p1
S'Card Wallet Cases for iPhone 6s Plus https://t.co/07eQvlEWEZ'
p2
sS'Created At'
p3
S'2015-11-28 22:14:53'
p4
s.(dp0
S'Text'
p1
S'RT @ShitChallenge: @ShitChallenge start the next step!\nGet an iPhone for free!*\nVisit: https://t.co/26lOKqRqLN https://t.co/A5ObkoNi5O'
p2
sS'Created At'
p3
S'2015-11-28 22:14:53'
p4
s.(dp0
S'Text'
p1
S'RT @visionelie: Before / After \n\niPhone Shot https://t.co/MuWOSkKABe'
p2
sS'Created At'
p3
S'2015-11-28 22:14:54'
p4
s.(dp0
S'Text'
p1
S'Did you know that we have a #free #Motorz #app for #iPhone #iPad &amp; #iPod Touch? Visit https://t.co/fKIm1iGhXa #ios #apple #mobile'
p2
sS'Created At'
p3
S'2015-11-28 22:14:54'
p4
s.(dp0
S'Text'
p1
S'HOT DEALS : https://t.co/vBrXrZ5iia Hard Cover Case Skins Washable Snap On Holder Candy Color For Apple iPhone 5 5\xe2\x80\xa6 https://t.co/cgfmt9djg5'
p2
sS'Created At'
p3
S'2015-11-28 22:14:54'
p4
s.(dp0
S'Text'
p1
S'Card Wallet Cases for iPhone 6s https://t.co/mIKkuzMaeX'
p2
sS'Created At'
p3
S'2015-11-28 22:14:55'
p4
s.(dp0
S'Text'
p1
S"if you gotta iPhone go listen to Rihanna's Music of the Sun album"
p2
sS'Created At'
p3
S'2015-11-28 22:14:56'
p4
s.(dp0
S'Text'
p1
S'RT @OplaRahman: Jailbreak iOS 9 Guide - https://t.co/ta4AZ0KVJV https://t.co/RA0edTUs6k'
p2
sS'Created At'
p3
S'2015-11-28 22:14:56'
p4
s.(dp0
S'Text'
p1
S'#Endless Sniper (by Daniel Abdel-Nour) - iOS / Android - HD Gameplay Trailer https://t.co/2xFI0YEZQZ https://t.co/TvzkaWbI6q'
p2
sS'Created At'
p3
S'2015-11-28 22:14:56'
p4
s.(dp0
S'Text'
p1
S'11 Hacks Apple Doesn\xe2\x80\x99t Want You To Know About Your iPhone https://t.co/rZk8ToiZ7V https://t.co/yxCYnJPmHA'
p2
sS'Created At'
p3
S'2015-11-28 22:14:57'
p4
s.(dp0
S'Text'
p1
S"I'm now an E-List celebrity in Kim Kardashian: Hollywood. You can be famous too by playing on iPhone!  https://t.co/mgY042yHbs"
p2
sS'Created At'
p3
S'2015-11-28 22:14:58'
p4
s.(dp0
S'Text'
p1
S'RT earthfalcon33: postplus_macapp: https://t.co/J2uYaipWL0; Advance your contacts in #iphone #ios #iphoneapp #appstore 15'
p2
sS'Created At'
p3
S'2015-11-28 22:14:58'
p4
s.(dp0
S'Text'
p1
S"RT @yoifeellike: the iphone charger that doesn't quite reach"
p2
sS'Created At'
p3
S'2015-11-28 22:14:58'
p4
s.(dp0
S'Text'
p1
S"I've collected 10,002 gold coins! https://t.co/ptmersNqxZ #iphone, #iphonegames, #gameinsight"
p2
sS'Created At'
p3
S'2015-11-28 22:14:58'
p4
s.(dp0
S'Text'
p1
S'RT earthfalcon33: appstoregames06: https://t.co/J2uYaipWL0; Advance your contacts in #iphone #ios #iphoneapp #appstore 15'
p2
sS'Created At'
p3
S'2015-11-28 22:14:58'
p4
s.(dp0
S'Text'
p1
S'@StreamAce have you got the link for an iPhone please'
p2
sS'Created At'
p3
S'2015-11-28 22:14:59'
p4
s.(dp0
S'Text'
p1
S'earthfalcon33: postplus_macapp: https://t.co/9XpByZZCES Advance your contacts in #iphone #ios #iphoneapp #appstore 15'
p2
sS'Created At'
p3
S'2015-11-28 22:14:59'
p4
s.(dp0
S'Text'
p1
S'earthfalcon33: appstoregames06: https://t.co/9XpByZZCES Advance your contacts in #iphone #ios #iphoneapp #appstore 15'
p2
sS'Created At'
p3
S'2015-11-28 22:15:00'
p4
s.(dp0
S'Text'
p1
S'maxxpowerss8: RT earthfalcon33: postplus_macapp: https://t.co/J2uYaipWL0; Advance your contacts in #iphone #ios #iphoneapp #appstore 15'
p2
sS'Created At'
p3
S'2015-11-28 22:15:00'
p4
s.(dp0
S'Text'
p1
S'https://t.co/fGCW5lmCQV #3615 EK Neck It Lanyard W/ Detachable Buckle For iPhone, iPod Blk/Gray https://t.co/u0vfeQRMqj'
p2
sS'Created At'
p3
S'2015-11-28 22:15:00'
p4
s.(dp0
S'Text'
p1
S'maxxpowerss8: RT earthfalcon33: appstoregames06: https://t.co/J2uYaipWL0; Advance your contacts in #iphone #ios #iphoneapp #appstore 15'
p2
sS'Created At'
p3
S'2015-11-28 22:15:00'
p4
s.(dp0
S'Text'
p1
S'mobileappgames1: https://t.co/9XpByZZCES Advance your contacts in #iphone #ios #iphoneapp #appstore 15'
p2
sS'Created At'
p3
S'2015-11-28 22:15:00'
p4
s.(dp0
S'Text'
p1
S'mobileappgames1: postplus_macapp: https://t.co/9XpByZZCES Advance your contacts in #iphone #ios #iphoneapp #appstore 15'
p2
sS'Created At'
p3
S'2015-11-28 22:15:01'
p4
s.(dp0
S'Text'
p1
S"Broken #iPhone? Bring it in today and we'll give you cash for a trade in! https://t.co/u1lIlr37X0"
p2
sS'Created At'
p3
S'2015-11-28 22:15:01'
p4
s.(dp0
S'Text'
p1
S'mobileappgames1: appstoregames06: https://t.co/9XpByZZCES Advance your contacts in #iphone #ios #iphoneapp #appstore 15'
p2
sS'Created At'
p3
S'2015-11-28 22:15:01'
p4
s.(dp0
S'Text'
p1
S'mobileappgames1: RT earthfalcon33: postplus_macapp: https://t.co/J2uYaipWL0; Advance your contacts in #iphone #ios #iphoneapp #appstore 15'
p2
sS'Created At'
p3
S'2015-11-28 22:15:01'
p4
s.(dp0
S'Text'
p1
S'RT @Cute_Cravings: \xf0\x9f\x8e\x84 SATURDAY SALE \xf0\x9f\x8e\x84\n\nOur Holiday Glitter Phone Cases are on Sale!!\n\nEnds TONIGHT! \xe2\x9b\x84\xef\xb8\x8f\xf0\x9f\x8e\x80\n\n\xf0\x9f\x91\x89\xf0\x9f\x8f\xbchttps://t.co/b6G9g6hAh5\xf0\x9f\x91\x88\xf0\x9f\x8f\xbc https:/\xe2\x80\xa6'
p2
sS'Created At'
p3
S'2015-11-28 22:15:01'
p4
s.(dp0
S'Text'
p1
S'https://t.co/sF92RXwiCd #0561 KLOGI PU Leather Case Cover Strap for iPhone 6 Plus (Red) https://t.co/qVGufdPyrl'
p2
sS'Created At'
p3
S'2015-11-28 22:15:01'
p4
s.(dp0
S'Text'
p1
S'mobileappgames1: RT earthfalcon33: appstoregames06: https://t.co/J2uYaipWL0; Advance your contacts in #iphone #ios #iphoneapp #appstore 15'
p2
sS'Created At'
p3
S'2015-11-28 22:15:02'
p4
s.(dp0
S'Text'
p1
S'Apple Iphone Contract \xe2\x80\x93 Best Method To Buy A\xc2\xa0Smartphone https://t.co/I2J3YmxeoO https://t.co/mrh1GGmFSJ'
p2
sS'Created At'
p3
S'2015-11-28 22:15:01'
p4
s.(dp0
S'Text'
p1
S'RT @ShitChallenge: @ShitChallenge start the next step!\nGet an iPhone for free!*\nVisit: https://t.co/26lOKqRqLN https://t.co/A5ObkoNi5O'
p2
sS'Created At'
p3
S'2015-11-28 22:15:02'
p4
s.(dp0
S'Text'
p1
S'androidgames06: https://t.co/9XpByZZCES Advance your contacts in #iphone #ios #iphoneapp #appstore 15'
p2
sS'Created At'
p3
S'2015-11-28 22:15:02'
p4
s.(dp0
S'Text'
p1
S'60 seconds for winner https://t.co/BQDnxYkYo8'
p2
sS'Created At'
p3
S'2015-11-28 22:15:02'
p4
s.(dp0
S'Text'
p1
S'androidgames06: postplus_macapp: https://t.co/9XpByZZCES Advance your contacts in #iphone #ios #iphoneapp #appstore 15'
p2
sS'Created At'
p3
S'2015-11-28 22:15:02'
p4
s.(dp0
S'Text'
p1
S'RT @smtm_LFC: Added some new ones just now.\n\nhttps://t.co/6LHi9elEak https://t.co/1Z9lVN8wFu'
p2
sS'Created At'
p3
S'2015-11-28 22:15:02'
p4
s.(dp0
S'Text'
p1
S'Ending Today: Panorama 360 for iPhone/iPad is free (increasing to $0.99) https://t.co/DtzCDy04pb'
p2
sS'Created At'
p3
S'2015-11-28 22:15:02'
p4
s.(dp0
S'Text'
p1
S'HOT DEALS : https://t.co/VDNHDyQ2ZE Apple iPhone 4 8GB Sprint Black and White Smartphone\n\n$174.95 \xc2\xa0 $449.00 \xc2\xa0 (46 \xe2\x80\xa6 https://t.co/M0WfJ99gkA'
p2
sS'Created At'
p3
S'2015-11-28 22:15:02'
p4
s.(dp0
S'Text'
p1
S'https://t.co/nGVHaPv2Nm #2812 Pazdora- Puzzle and Dragons x Su-Pen Touch Pen for iPhone/iPad/iPod New https://t.co/6qup7NKdjx'
p2
sS'Created At'
p3
S'2015-11-28 22:15:02'
p4
s.(dp0
S'Text'
p1
S'androidgames06: appstoregames06: https://t.co/9XpByZZCES Advance your contacts in #iphone #ios #iphoneapp #appstore 15'
p2
sS'Created At'
p3
S'2015-11-28 22:15:02'
p4
s.(dp0
S'Text'
p1
S'androidgames06: RT earthfalcon33: postplus_macapp: https://t.co/J2uYaipWL0; Advance your contacts in #iphone #ios #iphoneapp #appstore 15'
p2
sS'Created At'
p3
S'2015-11-28 22:15:03'
p4
s.(dp0
S'Text'
p1
S'https://t.co/qzMI03J0PN #9061 Hamee MFi Lightning Cable 65cm Earphone Set for iPhone 5 5s 6 6 Plus (Silver) https://t.co/D5sV5Egfyq'
p2
sS'Created At'
p3
S'2015-11-28 22:15:03'
p4
s.(dp0
S'Text'
p1
S'androidgames06: RT earthfalcon33: appstoregames06: https://t.co/J2uYaipWL0; Advance your contacts in #iphone #ios #iphoneapp #appstore 15'
p2
sS'Created At'
p3
S'2015-11-28 22:15:03'
p4
s.(dp0
S'Text'
p1
S'APPLE iPhone 4 Black 8GB Clean IMEI (Factory Unlocked) WORKS, Will Not Turn Off - Bid Now!\xe2\x80\xa6 https://t.co/QAzr9ZR6ZV https://t.co/lXwqfcahWq'
p2
sS'Created At'
p3
S'2015-11-28 22:15:03'
p4
s.(dp0
S'Text'
p1
S'RT @UberFacts: George Hotz, a 17-year-old hacker, was the first to unlock a first generation iPhone\xe2\x80\x94he traded it for a Nissan 350z and 3 lo\xe2\x80\xa6'
p2
sS'Created At'
p3
S'2015-11-28 22:15:03'
p4
s.(dp0
S'Text'
p1
S'RT earthfalcon33: earthfalcon33: postplus_macapp: https://t.co/J2uYaipWL0; Advance your contacts in #iphone #ios #iphoneapp #appstore 15'
p2
sS'Created At'
p3
S'2015-11-28 22:15:03'
p4
s.(dp0
S'Text'
p1
S'RT @Steffhdfifa_: Quick fire 250k giveaway! (IOS) \n\n-Follow me \n-RT this tweet \n-TAG mates \n\nWinner in 10-15mins https://t.co/zdqstLIAGe'
p2
sS'Created At'
p3
S'2015-11-28 22:15:03'
p4
s.(dp0
S'Text'
p1
S'#technology Rumor: Apple to Kill Headphone Jack in iPhone 7 - PC Magazine https://t.co/a0R6LVuBcw'
p2
sS'Created At'
p3
S'2015-11-28 22:15:03'
p4
s.(dp0
S'Text'
p1
S'RT @janinebucks: memHeaven+ : Progressive Memory Status Accelerator + Utilities... https://t.co/fh3iPlidN3'
p2
sS'Created At'
p3
S'2015-11-28 22:15:04'
p4
s.(dp0
S'Text'
p1
S'RT earthfalcon33: earthfalcon33: appstoregames06: https://t.co/J2uYaipWL0; Advance your contacts in #iphone #ios #iphoneapp #appstore 15'
p2
sS'Created At'
p3
S'2015-11-28 22:15:03'
p4
s.(dp0
S'Text'
p1
S'https://t.co/pAkxH3Efn0 #8925 Armbrand by Belkin For IPhone 5/5S https://t.co/TEFjHZJxLD'
p2
sS'Created At'
p3
S'2015-11-28 22:15:03'
p4
s.(dp0
S'Text'
p1
S'(FOR PARTS) Apple iPhone 4 + case - 8GB, White, Factory Unlocked, AT&amp;T, T-Mobile - Bid Now\xe2\x80\xa6 https://t.co/7mgGcv437d https://t.co/hmBGAuyugy'
p2
sS'Created At'
p3
S'2015-11-28 22:15:03'
p4
s.(dp0
S'Text'
p1
S'RT earthfalcon33: mobileappgames1: https://t.co/J2uYaipWL0; Advance your contacts in #iphone #ios #iphoneapp #appstore 15'
p2
sS'Created At'
p3
S'2015-11-28 22:15:04'
p4
s.(dp0
S'Text'
p1
S"Looking for a Xmas app for Xmas gifts &amp; planning? Check out Santa's Bag for iOS, for budgeting &amp; more! #xmasgifts  https://t.co/DnhDAquNNG"
p2
sS'Created At'
p3
S'2015-11-28 22:15:04'
p4
s.(dp0
S'Text'
p1
S'Having fun playing #CSRRacing for iOS, why not join me for FREE?\nhttps://t.co/i5CyE8KSBl'
p2
sS'Created At'
p3
S'2015-11-28 22:15:04'
p4
s.(dp0
S'Text'
p1
S'RT earthfalcon33: mobileappgames1: postplus_macapp: https://t.co/J2uYaipWL0; Advance your contacts in #iphone #ios #iphoneapp #appstore 15'
p2
sS'Created At'
p3
S'2015-11-28 22:15:04'
p4
s.(dp0
S'Text'
p1
S'@wjp_racing\xc2\xa1\xc2\xa1 Sign up FREE from your mobile to WIN a iPhone 6S !! Click here : https://t.co/RLlY9q59MM  GOOD LUCK!!'
p2
sS'Created At'
p3
S'2015-11-28 22:15:04'
p4
s.(dp0
S'Text'
p1
S'IOS Offers price charts and new languages: We recently made some updates to our mobile apps\xe2\x80\xa6 https://t.co/GajRyLebgs https://t.co/aqABulH3Dh'
p2
sS'Created At'
p3
S'2015-11-28 22:15:04'
p4
s.(dp0
S'Text'
p1
S'RT earthfalcon33: mobileappgames1: appstoregames06: https://t.co/J2uYaipWL0; Advance your contacts in #iphone #ios #iphoneapp #appstore 15'
p2
sS'Created At'
p3
S'2015-11-28 22:15:04'
p4
s.(dp0
S'Text'
p1
S'Apple iPhone 4s - 16GB - Black (Unlocked) Smartphone - Bid Now! Only $54.1 https://t.co/Rd3uZ9C28c https://t.co/qr5GN0Jau4'
p2
sS'Created At'
p3
S'2015-11-28 22:15:04'
p4
s.(dp0
S'Text'
p1
S'RT @janinebucks: memHeaven+ : Progressive Memory Status Accelerator + Utilities... https://t.co/fh3iPlidN3'
p2
sS'Created At'
p3
S'2015-11-28 22:15:04'
p4
s.(dp0
S'Text'
p1
S'@Jack_Coulter\xc2\xa1\xc2\xa1 Sign up FREE from your mobile to WIN a iPhone 6S !! Click here : https://t.co/LzStTlJcSF GOOD LUCK!!'
p2
sS'Created At'
p3
S'2015-11-28 22:15:04'
p4
s.(dp0
S'Text'
p1
S'RT earthfalcon33: androidgames06: https://t.co/J2uYaipWL0; Advance your contacts in #iphone #ios #iphoneapp #appstore 15'
p2
sS'Created At'
p3
S'2015-11-28 22:15:05'
p4
s.(dp0
S'Text'
p1
S'@ellie_taylor13\xc2\xa1\xc2\xa1 Sign up FREE from your mobile to WIN a iPhone 6S !! Click here : https://t.co/Va1SKQh0Jh GOOD LUCK!!'
p2
sS'Created At'
p3
S'2015-11-28 22:15:05'
p4
s.(dp0
S'Text'
p1
S'RT @OplaRahman: Jailbreak iOS 9 Guide - https://t.co/ta4AZ0KVJV https://t.co/RA0edTUs6k'
p2
sS'Created At'
p3
S'2015-11-28 22:15:05'
p4
s.(dp0
S'Text'
p1
S'RT earthfalcon33: androidgames06: postplus_macapp: https://t.co/J2uYaipWL0; Advance your contacts in #iphone #ios #iphoneapp #appstore 15'
p2
sS'Created At'
p3
S'2015-11-28 22:15:05'
p4
s.(dp0
S'Text'
p1
S'APPLE iPhone 4 Black 8GB Clean IMEI (Factory Unlocked) WORKS, Will Not Turn Off - Bid Now!\xe2\x80\xa6 https://t.co/KfGUWeOYAU https://t.co/tm4chRhuXo'
p2
sS'Created At'
p3
S'2015-11-28 22:15:05'
p4
s.(dp0
S'Text'
p1
S'https://t.co/b23uYUA7jj #1143 simasima ZOOPY Plush Doll Mobile Case Cover Stand for iPhone 6 (Panda) https://t.co/CzOqedQ6ZL'
p2
sS'Created At'
p3
S'2015-11-28 22:15:05'
p4
s.(dp0
S'Text'
p1
S'RT earthfalcon33: androidgames06: appstoregames06: https://t.co/J2uYaipWL0; Advance your contacts in #iphone #ios #iphoneapp #appstore 15'
p2
sS'Created At'
p3
S'2015-11-28 22:15:05'
p4
s.(dp0
S'Text'
p1
S'https://t.co/K3IG5EMLjS #4081 Bury S8 System 8 Take&amp;Talk Complete Bluetooth Hands-Free Car Kit for iPhone 4 4S https://t.co/BWwJRcE3xu'
p2
sS'Created At'
p3
S'2015-11-28 22:15:05'
p4
s.(dp0
S'Text'
p1
S'Apple iPhone 4s - 32GB - Black (Unlocked) Smartphone - Bid Now! Only $74.0 https://t.co/rcYgsR97sX https://t.co/C8UFERzTG7'
p2
sS'Created At'
p3
S'2015-11-28 22:15:05'
p4
s.(dp0
S'Text'
p1
S'(FOR PARTS) Apple iPhone 4 + case - 8GB, White, Factory Unlocked, AT&amp;T, T-Mobile - Bid Now\xe2\x80\xa6 https://t.co/klB1UF9EUl https://t.co/rwNhmA1dEY'
p2
sS'Created At'
p3
S'2015-11-28 22:15:05'
p4
s.(dp0
S'Text'
p1
S'RT @janinebucks: memHeaven+ : Progressive Memory Status Accelerator + Utilities... https://t.co/fh3iPlidN3'
p2
sS'Created At'
p3
S'2015-11-28 22:15:06'
p4
s.(dp0
S'Text'
p1
S'https://t.co/ov8np9ZsCM #3280 Gama Go Phoney Fox iPhone Mobile Cell Phone Charm fits iOS iPad Kitsch 3.5mm https://t.co/l8BAtA19je'
p2
sS'Created At'
p3
S'2015-11-28 22:15:05'
p4
s.(dp0
S'Text'
p1
S'CASINO APP\n\nDownload the fantastic Casino App for Android iPhone &amp; iPad! \n\nSign up at https://t.co/f0QFD7C6x4 https://t.co/89Dz6Hx0eo'
p2
sS'Created At'
p3
S'2015-11-28 22:15:05'
p4
s.(dp0
S'Text'
p1
S'RT @Fut_Neymar7: Crazy 1 mil iOS giveaway!\xf0\x9f\x8e\x8a\xf0\x9f\x8e\x89\n-Must Follow me and @RnBGaming_ and @thapilla \n-Retweet\n-Winner at 75-80 RT\nGl boys \xf0\x9f\x91\x8d https://\xe2\x80\xa6'
p2
sS'Created At'
p3
S'2015-11-28 22:15:06'
p4
s.(dp0
S'Text'
p1
S'George Hotz, a 17-year-old hacker, was the first to unlock a first generation iPhone\xe2\x80\x94he traded it for a Nissan 350z and 3 locked iPhones.'
p2
sS'Created At'
p3
S'2015-11-28 22:15:06'
p4
s.(dp0
S'Text'
p1
S'Apple iPhone 4s - 16GB - Black (Unlocked) Smartphone - Bid Now! Only $61.0 https://t.co/hlmL65VeVM https://t.co/MKQ3GmGeiF'
p2
sS'Created At'
p3
S'2015-11-28 22:15:06'
p4
s.(dp0
S'Text'
p1
S'Apple iPhone 4s - 16GB - Black (Unlocked) Smartphone - Bid Now! Only $54.1 https://t.co/RoW69kOgAJ https://t.co/CS5aZutYHW'
p2
sS'Created At'
p3
S'2015-11-28 22:15:06'
p4
s.(dp0
S'Text'
p1
S'https://t.co/Iv6QFAYJWb #9999 Lot Of 100 Belkin 8-Pin Lightning USB Sync Cable Charger for iPad/iPhone 5/5S/6 https://t.co/79p7ZVBW8A'
p2
sS'Created At'
p3
S'2015-11-28 22:15:06'
p4
s.(dp0
S'Text'
p1
S"RT @MunirSmith: iPhone 4's are no longer acceptable in 2016"
p2
sS'Created At'
p3
S'2015-11-28 22:15:06'
p4
s.(dp0
S'Text'
p1
S'RT @janinebucks: memHeaven+ : Progressive Memory Status Accelerator + Utilities... https://t.co/fh3iPlidN3'
p2
sS'Created At'
p3
S'2015-11-28 22:15:06'
p4
s.(dp0
S'Text'
p1
S'POKER APP FREE $5 DEAL\n\nDownload Poker App for Android, iPhone &amp; the iPad! \n\nRegister https://t.co/wGkp5ti44p https://t.co/esvBvBn7Vo'
p2
sS'Created At'
p3
S'2015-11-28 22:15:06'
p4
s.(dp0
S'Text'
p1
S'@UnboxTherapy hey lew, I really want a iphone as a Christmas gift for my father. I hope I can win one next time you make a draw.'
p2
sS'Created At'
p3
S'2015-11-28 22:15:06'
p4
s.(dp0
S'Text'
p1
S'https://t.co/E4eKajMxxr #2881 Apple iPhone 5s - 16GB - Space Gray (Factory Unlocked) Smartphone https://t.co/mPDcofrSsY'
p2
sS'Created At'
p3
S'2015-11-28 22:15:06'
p4
s.(dp0
S'Text'
p1
S'https://t.co/Gb6raB4O3Z #0694 Simplism Fabric Strap Hard Case Cover for iPhone 6s Plus / 6 Plus (Denim 2) https://t.co/CVVNmOAWrz'
p2
sS'Created At'
p3
S'2015-11-28 22:15:06'
p4
s.(dp0
S'Text'
p1
S'Apple iPhone 4s - 32GB - Black (Unlocked) Smartphone - Bid Now! Only $74.0 https://t.co/OSYD14Jwtd https://t.co/mUH5VFXBJC'
p2
sS'Created At'
p3
S'2015-11-28 22:15:06'
p4
s.(dp0
S'Text'
p1
S'https://t.co/mDM3EfwKWe #0034 100pcs 2600mAh Power Bank Backup Battery Charger +USB Cable For iPhone Samsung https://t.co/VYV9j6yjcZ'
p2
sS'Created At'
p3
S'2015-11-28 22:15:06'
p4
s.(dp0
S'Text'
p1
S'Black Friday Deals: 17 iPhone and iPad Games Available at Amazing Prices - NDTV https://t.co/YjwjktYR50'
p2
sS'Created At'
p3
S'2015-11-28 22:15:07'
p4
s.(dp0
S'Text'
p1
S'RT @janinebucks: memHeaven+ : Progressive Memory Status Accelerator + Utilities... https://t.co/fh3iPlidN3'
p2
sS'Created At'
p3
S'2015-11-28 22:15:07'
p4
s.(dp0
S'Text'
p1
S'Castle Dungeon has been explored. Are you able to reach it too? https://t.co/aFbnaSQaJ6 #iphone,#iphonegames,#gameinsight'
p2
sS'Created At'
p3
S'2015-11-28 22:15:07'
p4
s.(dp0
S'Text'
p1
S'https://t.co/HTkvDPNt5r #3348 Apple iPhone 4S 16GB "Factory Unlocked" Black and White Smartphone https://t.co/uvvtLt6qeq'
p2
sS'Created At'
p3
S'2015-11-28 22:15:07'
p4
s.(dp0
S'Text'
p1
S'Apple iPhone 4s - 16GB - Black (Unlocked) Smartphone - Bid Now! Only $61.0 https://t.co/BTci5iZkjM https://t.co/AFd3SQ1E4D'
p2
sS'Created At'
p3
S'2015-11-28 22:15:07'
p4
s.(dp0
S'Text'
p1
S'Claim your FREE "Samsung Galaxy S5 SM-G900A - 16GB - White Smartphone" here https://t.co/Ct7pJyFPM5 #iphone #samsu\xe2\x80\xa6 https://t.co/Ekr0lwkaBW'
p2
sS'Created At'
p3
S'2015-11-28 22:15:08'
p4
s.(dp0
S'Text'
p1
S'https://t.co/Iv6QFAYJWb #9073 Lot Of 100 Belkin 8-Pin Lightning USB Sync Cable Charger for iPad/iPhone 5/5S/6 https://t.co/oUtaInkzX5'
p2
sS'Created At'
p3
S'2015-11-28 22:15:07'
p4
s.(dp0
S'Text'
p1
S'https://t.co/6Ft5Jzweks #0271 Apple iPhone 5 - 16GB - (Factory Unlocked) Smartphone - White or Black https://t.co/gC7DIrx3Qw'
p2
sS'Created At'
p3
S'2015-11-28 22:15:08'
p4
s.