(dp0
S'Text'
p1
S'https://t.co/kgguyefveu #9887 htc one mini - 16gb - silver at&amp;t unlocked gsm android smartphone ---used--\n\n$79.99\nend date: monday nov-30-\xe2\x80\xa6'
p2
sS'Created At'
p3
S'2015-11-29 02:42:15'
p4
s.(dp0
S'Text'
p1
S'#lenovo #motorola \xe2\x80\x93 lenovo discontinues vibe brand to make way for motorola\xe2\x80\xa6 https://t.co/w5d1u7t9tc #android https://t.co/80yodxnjch'
p2
sS'Created At'
p3
S'2015-11-29 02:42:16'
p4
s.(dp0
S'Text'
p1
S"i'm earning #mplusrewards in https://t.co/vr08i07zzg for android. https://t.co/311dbzmxa1 @dictionarycom"
p2
sS'Created At'
p3
S'2015-11-29 02:42:16'
p4
s.(dp0
S'Text'
p1
S'#lenovo #motorola \xe2\x80\x93 lenovo discontinues vibe brand to make way for motorola\xe2\x80\xa6 https://t.co/tw3pndkyfp #android https://t.co/o4lanelxot'
p2
sS'Created At'
p3
S'2015-11-29 02:42:17'
p4
s.(dp0
S'Text'
p1
S'#top3apps for #edmvspit\n\ntwitter for iphone 46%\ntwitter web client 21%\ntwitter for android 14%'
p2
sS'Created At'
p3
S'2015-11-29 02:42:18'
p4
s.(dp0
S'Text'
p1
S'#lenovo #motorola \xe2\x80\x93 lenovo discontinues vibe brand to make way for motorola\xe2\x80\xa6 https://t.co/hn2o0zrdus #android https://t.co/haw1couddk'
p2
sS'Created At'
p3
S'2015-11-29 02:42:18'
p4
s.(dp0
S'Text'
p1
S'samsung galaxy s4 mini gt-i9192 purple factory unlocked dual sim android phone - bid now! \xe2\x80\xa6 https://t.co/jmb4jiqgmd https://t.co/ewbvkdfqfe'
p2
sS'Created At'
p3
S'2015-11-29 02:42:19'
p4
s.(dp0
S'Text'
p1
S'#lenovo #motorola \xe2\x80\x93 lenovo discontinues vibe brand to make way for motorola\xe2\x80\xa6 https://t.co/ah8qrddsnl #android https://t.co/0qa7l4zrtm'
p2
sS'Created At'
p3
S'2015-11-29 02:42:19'
p4
s.(dp0
S'Text'
p1
S'@blackpeairl yep, android'
p2
sS'Created At'
p3
S'2015-11-29 02:42:20'
p4
s.(dp0
S'Text'
p1
S'#lenovo #motorola \xe2\x80\x93 lenovo discontinues vibe brand to make way for motorola\xe2\x80\xa6 https://t.co/3kne9hupso #android https://t.co/brcfgyn3lq'
p2
sS'Created At'
p3
S'2015-11-29 02:42:21'
p4
s.(dp0
S'Text'
p1
S"i'm playing the @reflexgamingltd app, available on android! https://t.co/ul8nwoktx8"
p2
sS'Created At'
p3
S'2015-11-29 02:42:21'
p4
s.(dp0
S'Text'
p1
S'#lenovo #motorola \xe2\x80\x93 lenovo discontinues vibe brand to make way for motorola\xe2\x80\xa6 https://t.co/tscsd73vvj #android https://t.co/lvzmdvjhvi'
p2
sS'Created At'
p3
S'2015-11-29 02:42:22'
p4
s.(dp0
S'Text'
p1
S'#lenovo #motorola \xe2\x80\x93 lenovo discontinues vibe brand to make way for motorola\xe2\x80\xa6 https://t.co/uruv7evk7f #android https://t.co/veto1vyblv'
p2
sS'Created At'
p3
S'2015-11-29 02:42:23'
p4
s.(dp0
S'Text'
p1
S'yes please, thank you! @instagram reportedly testing multiple account support on #android:https://t.co/k88fycpy5k #socialmedia #instagram'
p2
sS'Created At'
p3
S'2015-11-29 02:42:24'
p4
s.(dp0
S'Text'
p1
S'bonnygame completed the tea time quest https://t.co/4nlqy8wgfd'
p2
sS'Created At'
p3
S'2015-11-29 02:42:26'
p4
s.(dp0
S'Text'
p1
S'save $100 on black friday weekend @nvidia get a free remote +50% off when you buy a shield android tv https://t.co/uozi6earbl'
p2
sS'Created At'
p3
S'2015-11-29 02:42:26'
p4
s.(dp0
S'Text'
p1
S"i'm earning #mplusrewards in flip da coin android. https://t.co/po6qf76nkb"
p2
sS'Created At'
p3
S'2015-11-29 02:42:29'
p4
s.(dp0
S'Text'
p1
S"i'm earning #mplusrewards in name da flag android. https://t.co/iyqcqcgg9d"
p2
sS'Created At'
p3
S'2015-11-29 02:42:30'
p4
s.(dp0
S'Text'
p1
S'#10billionwives \ni married5,942,429wives!\n\nios: https://t.co/jc8wxo2ty6\nandroid: https://t.co/cdcubygike https://t.co/3svctoc9g2'
p2
sS'Created At'
p3
S'2015-11-29 02:42:31'
p4
s.(dp0
S'Text'
p1
S'blossom blast saga hd: blossom blast saga hd by mart corp 616% sales rank in appstore for android: 338 (was 2,421\xe2\x80\xa6 https://t.co/hmrt8kufag'
p2
sS'Created At'
p3
S'2015-11-29 02:42:32'
p4
s.(dp0
S'Text'
p1
S'ultimate dragon simulator: ultimate dragon simulator by gluten free games sales rank in appstore for android: 197\xe2\x80\xa6 https://t.co/yw3757glpt'
p2
sS'Created At'
p3
S'2015-11-29 02:42:33'
p4
s.(dp0
S'Text'
p1
S'hi ... the original \xe2\x9d\xa4 : _meegnasty.. do u want to get free iphone 6? please check my bi0 :) thx https://t.co/8dqod7egxa'
p2
sS'Created At'
p3
S'2015-11-29 02:42:36'
p4
s.(dp0
S'Text'
p1
S'deals:https://t.co/qxtz8xttek expro x2s 7" 2g/3g phablet android 4.4 kitkat dual sim 8gb bt gps tablet https://t.co/2ppsmtv1fh'
p2
sS'Created At'
p3
S'2015-11-29 02:42:37'
p4
s.(dp0
S'Text'
p1
S"i'm earning #mplusrewards in family feud 2 android. https://t.co/lkuettedm3"
p2
sS'Created At'
p3
S'2015-11-29 02:42:40'
p4
s.(dp0
S'Text'
p1
S'deals:https://t.co/laycefzwlg tablet android 4.2 7.9" wifi dual core 1.2 ghz camera 8gb bluetooth m7850 https://t.co/smcm0yde73'
p2
sS'Created At'
p3
S'2015-11-29 02:42:40'
p4
s.(dp0
S'Text'
p1
S'alcodroid android app is now available at https://t.co/xqd0fun7n1 repository. https://t.co/lyxo9drbhs'
p2
sS'Created At'
p3
S'2015-11-29 02:42:41'
p4
s.(dp0
S'Text'
p1
S"din't they already ? strange this project even survived till now ! https://t.co/qvsi1nwank"
p2
sS'Created At'
p3
S'2015-11-29 02:42:42'
p4
s.(dp0
S'Text'
p1
S'check out slidejoy, a brand new android app that pays you for unlocking your phone! sign up here! \nhttps://t.co/rvfjw6dwwg'
p2
sS'Created At'
p3
S'2015-11-29 02:42:43'
p4
s.(dp0
S'Text'
p1
S'i need iphone with android battery life'
p2
sS'Created At'
p3
S'2015-11-29 02:42:46'
p4
s.(dp0
S'Text'
p1
S"i'm earning #mplusrewards in da daily compliment android. https://t.co/al4czhbssw"
p2
sS'Created At'
p3
S'2015-11-29 02:42:46'
p4
s.(dp0
S'Text'
p1
S'get #wildwallet on android - https://t.co/kzpje02msw to earn amazing rewards for trying free apps. use code 2335665 for 200 bonus credits!'
p2
sS'Created At'
p3
S'2015-11-29 02:42:48'
p4
s.(dp0
S'Text'
p1
S'i asked the lady that i want a c2 then she asked what do you have android os or a apple os....i said both'
p2
sS'Created At'
p3
S'2015-11-29 02:42:52'
p4
s.(dp0
S'Text'
p1
S'emgoj7t2x0a9tx9: check out free android app for wi-fi security and unblocking websites! https://t.co/vklu0ezfzt'
p2
sS'Created At'
p3
S'2015-11-29 02:42:54'
p4
s.(dp0
S'Text'
p1
S'#doogee x5 android 5.1 1gb+8gb 5mp hd mt6580 quad core 5" unlocked\xe2\x80\xa6 https://t.co/74qjk8q9sc on ebay #cybermonday https://t.co/mgz5gugkck'
p2
sS'Created At'
p3
S'2015-11-29 02:42:54'
p4
s.(dp0
S'Text'
p1
S'terpilowskigreg: check out free android app for wi-fi security and unblocking websites! https://t.co/vklu0ezfzt'
p2
sS'Created At'
p3
S'2015-11-29 02:42:54'
p4
s.(dp0
S'Text'
p1
S'oyashirazutai: check out free android app for wi-fi security and unblocking websites! https://t.co/vklu0ezfzt'
p2
sS'Created At'
p3
S'2015-11-29 02:42:55'
p4
s.(dp0
S'Text'
p1
S'9" google android 4.4 tablet pc quad core 8gb dual cam bluetooth wi-fi touch pad - bid now\xe2\x80\xa6 https://t.co/qyq80qptyb https://t.co/vmjbsuiqr0'
p2
sS'Created At'
p3
S'2015-11-29 02:42:55'
p4
s.(dp0
S'Text'
p1
S'toniannepalmer: check out free android app for wi-fi security and unblocking websites! https://t.co/vklu0ezfzt'
p2
sS'Created At'
p3
S'2015-11-29 02:42:55'
p4
s.(dp0
S'Text'
p1
S'i really love this handy #flashlight! get the brightest &amp; fastest light for android by rv appstudios. https://t.co/rxfwhf9r1w'
p2
sS'Created At'
p3
S'2015-11-29 02:42:55'
p4
s.(dp0
S'Text'
p1
S'coldfury91: check out free android app for wi-fi security and unblocking websites! https://t.co/vklu0ezfzt'
p2
sS'Created At'
p3
S'2015-11-29 02:42:55'
p4
s.(dp0
S'Text'
p1
S'android emojis so childish \xf0\x9f\x98\x82'
p2
sS'Created At'
p3
S'2015-11-29 02:42:55'
p4
s.(dp0
S'Text'
p1
S'used   samsung galaxy tab s 8.4" 16gb android tablet sm-t700ntsaxac - bid now! only $121.96 https://t.co/o3jumdtauc https://t.co/l6qnjvxbcv'
p2
sS'Created At'
p3
S'2015-11-29 02:42:55'
p4
s.(dp0
S'Text'
p1
S'fkoffke: check out free android app for wi-fi security and unblocking websites! https://t.co/vklu0ezfzt'
p2
sS'Created At'
p3
S'2015-11-29 02:42:56'
p4
s.(dp0
S'Text'
p1
S'rhiahanjewon123: check out free android app for wi-fi security and unblocking websites! https://t.co/vklu0ezfzt'
p2
sS'Created At'
p3
S'2015-11-29 02:42:56'
p4
s.(dp0
S'Text'
p1
S'new 16gb irulu 7" android 4.4 pink tablet pc quad core dual cameras capacitive  - bid now!\xe2\x80\xa6 https://t.co/njp6vmz3fu https://t.co/qjavxcsz29'
p2
sS'Created At'
p3
S'2015-11-29 02:42:56'
p4
s.(dp0
S'Text'
p1
S'abrxawuk20dkc8z: check out free android app for wi-fi security and unblocking websites! https://t.co/vklu0ezfzt'
p2
sS'Created At'
p3
S'2015-11-29 02:42:57'
p4
s.(dp0
S'Text'
p1
S'samsung galaxy tab pro sm-t520 10.1" 16gb android tablet - bid now! only $101.38 https://t.co/sbtrfznjjy https://t.co/qtz3gtyp2q'
p2
sS'Created At'
p3
S'2015-11-29 02:42:57'
p4
s.(dp0
S'Text'
p1
S'#lenovo #motorola \xe2\x80\x93 lenovo discontinues vibe brand to make way for motorola\xe2\x80\xa6 https://t.co/hudrbueh95 #android https://t.co/aymd5srkat'
p2
sS'Created At'
p3
S'2015-11-29 02:42:57'
p4
s.(dp0
S'Text'
p1
S'irulu 10.1" tablet pc 8gb quad core android 5.1 10 inch bt wifi 1024*600 gms new - bid now\xe2\x80\xa6 https://t.co/t1rebpxur0 https://t.co/q6gtaghuhf'
p2
sS'Created At'
p3
S'2015-11-29 02:42:57'
p4
s.(dp0
S'Text'
p1
S'ferryherjanto: check out free android app for wi-fi security and unblocking websites! https://t.co/vklu0ezfzt'
p2
sS'Created At'
p3
S'2015-11-29 02:42:58'
p4
s.(dp0
S'Text'
p1
S'unlocked white 5.7" samsung galaxy note 3 4g lte android gsm smartphone 32gb dhl - bid now\xe2\x80\xa6 https://t.co/qftfbazuif https://t.co/bvy2uid75w'
p2
sS'Created At'
p3
S'2015-11-29 02:42:57'
p4
s.(dp0
S'Text'
p1
S'iamglor: check out free android app for wi-fi security and unblocking websites! https://t.co/vklu0ezfzt'
p2
sS'Created At'
p3
S'2015-11-29 02:42:58'
p4
s.(dp0
S'Text'
p1
S'#lenovo #motorola \xe2\x80\x93 lenovo discontinues vibe brand to make way for motorola\xe2\x80\xa6 https://t.co/r8junpa265 #android https://t.co/4my7cwp3p5'
p2
sS'Created At'
p3
S'2015-11-29 02:42:58'
p4
s.(dp0
S'Text'
p1
S'angelh2b: check out free android app for wi-fi security and unblocking websites! https://t.co/vklu0ezfzt'
p2
sS'Created At'
p3
S'2015-11-29 02:42:58'
p4
s.(dp0
S'Text'
p1
S'join chamcash \nit is frist income android app\ndownload it\ncchampcash\nrefer id me 413421 dale puche jane par https://t.co/m0kh55cxqm'
p2
sS'Created At'
p3
S'2015-11-29 02:42:58'
p4
s.(dp0
S'Text'
p1
S'amahuron: check out free android app for wi-fi security and unblocking websites! https://t.co/vklu0ezfzt'
p2
sS'Created At'
p3
S'2015-11-29 02:42:59'
p4
s.(dp0
S'Text'
p1
S'oyashirazutai: check out free android app for wi-fi security and unblocking websites! https://t.co/vklu0ehebj'
p2
sS'Created At'
p3
S'2015-11-29 02:42:59'
p4
s.(dp0
S'Text'
p1
S"hey, @favor would be super cool if you'd fix the android runners app. 1 in 4 runners can't read my orders! #saidwithlove"
p2
sS'Created At'
p3
S'2015-11-29 02:42:59'
p4
s.(dp0
S'Text'
p1
S'pedro170898: check out free android app for wi-fi security and unblocking websites! https://t.co/vklu0ezfzt'
p2
sS'Created At'
p3
S'2015-11-29 02:42:59'
p4
s.(dp0
S'Text'
p1
S'#lenovo #motorola \xe2\x80\x93 lenovo discontinues vibe brand to make way for motorola\xe2\x80\xa6 https://t.co/ie8jih1qst #android https://t.co/mhusfjbgks'
p2
sS'Created At'
p3
S'2015-11-29 02:42:59'
p4
s.(dp0
S'Text'
p1
S'8gb 7" google android 4.4 a33 dual cameras wifi kids child tablet pc pink - bid now! only \xe2\x80\xa6 https://t.co/dbgrmxydhh https://t.co/oomivkj0qw'
p2
sS'Created At'
p3
S'2015-11-29 02:42:59'
p4
s.(dp0
S'Text'
p1
S'bonnygame reached new skill level in exploring the "blocks" picture https://t.co/4nlqy8wgfd'
p2
sS'Created At'
p3
S'2015-11-29 02:43:00'
p4
s.(dp0
S'Text'
p1
S'#lenovo #motorola \xe2\x80\x93 lenovo discontinues vibe brand to make way for motorola\xe2\x80\xa6 https://t.co/mp0dlvqaat #android https://t.co/agnzvgefcd'
p2
sS'Created At'
p3
S'2015-11-29 02:43:01'
p4
s.(dp0
S'Text'
p1
S"why do android snapchats look like they're from the 1800's https://t.co/awmykruqc1"
p2
sS'Created At'
p3
S'2015-11-29 02:43:03'
p4
s.(dp0
S'Text'
p1
S"'the smart thing for google should be to ditch android one altogether'\n  https://t.co/hien6twkhe"
p2
sS'Created At'
p3
S'2015-11-29 02:43:05'
p4
s.(dp0
S'Text'
p1
S'there\xe2\x80\x99s a stan lee cameo hidden in \xe2\x80\x98jessi https://t.co/fcuaopxdij #app #hot #trending #news #startups #howto #diy #android #howto #apps'
p2
sS'Created At'
p3
S'2015-11-29 02:43:06'
p4
s.(dp0
S'Text'
p1
S'\xf0\x9f\x98\x82\nborn to feel... https://t.co/kn9wdianlb'
p2
sS'Created At'
p3
S'2015-11-29 02:43:06'
p4
s.(dp0
S'Text'
p1
S'android 4.4 7" in dash car stereo dvd player gps bluetooth b for chevrolet gmc https://t.co/zeqpirdjnz https://t.co/gujq35g458'
p2
sS'Created At'
p3
S'2015-11-29 02:43:07'
p4
s.(dp0
S'Text'
p1
S"what's going on today? all of a sudden i can't send messages to android users from my iphone was fine this morning\xf0\x9f\xa4\x94"
p2
sS'Created At'
p3
S'2015-11-29 02:43:07'
p4
s.(dp0
S'Text'
p1
S"i'm earning #mplusrewards in splat da bat android. https://t.co/smopp5futv"
p2
sS'Created At'
p3
S'2015-11-29 02:43:09'
p4
s.(dp0
S'Text'
p1
S'no logs kept gigabit speed #vpn https://t.co/q2gbmcki8k \n#ios #android #apple #mac #windows #windows10 #microsoft\nhttps://t.co/6hsqseuufq'
p2
sS'Created At'
p3
S'2015-11-29 02:43:09'
p4
s.(dp0
S'Text'
p1
S'samsung galaxy s4 mini gt-i9192 purple factory unlocked dual sim android phone - bid now! \xe2\x80\xa6 https://t.co/l2liabgbex https://t.co/vebggk8skx'
p2
sS'Created At'
p3
S'2015-11-29 02:43:09'
p4
s.(dp0
S'Text'
p1
S"i'm earning #mplusrewards in cut da deck android. https://t.co/ahuboc3nud"
p2
sS'Created At'
p3
S'2015-11-29 02:43:12'
p4
s.(dp0
S'Text'
p1
S"i'm into you! https://t.co/dy6xddeckq 100% yo."
p2
sS'Created At'
p3
S'2015-11-29 02:43:13'
p4
s.(dp0
S'Text'
p1
S'unlocked white 5.7" samsung galaxy note 3 4g lte android gsm smartphone 32gb dhl - bid now\xe2\x80\xa6 https://t.co/u1fvfayprh https://t.co/xi3xhsxhxo'
p2
sS'Created At'
p3
S'2015-11-29 02:43:15'
p4
s.(dp0
S'Text'
p1
S'#top3apps for #runlike4g\n\ntwitter for android 45%\ntwitter web client 17%\nadobe\xc2\xae social 12%'
p2
sS'Created At'
p3
S'2015-11-29 02:43:16'
p4
s.(dp0
S'Text'
p1
S'jeanzancan completed the dark hallways quest https://t.co/wttvt0caa2'
p2
sS'Created At'
p3
S'2015-11-29 02:43:16'
p4
s.(dp0
S'Text'
p1
S'the pepsi phone: curiosity or great china android marketing wheeze? #selfpublishing https://t.co/p2iyv7e3ak'
p2
sS'Created At'
p3
S'2015-11-29 02:43:19'
p4
s.(dp0
S'Text'
p1
S'austrian map android app is now available at https://t.co/xqd0fun7n1 repository. https://t.co/al7xvce4aw'
p2
sS'Created At'
p3
S'2015-11-29 02:43:21'
p4
s.(dp0
S'Text'
p1
S'@samsungmobilein when will android 5 update for note 3 neo come ?'
p2
sS'Created At'
p3
S'2015-11-29 02:43:21'
p4
s.(dp0
S'Text'
p1
S"people with android phones act like they have gotten every phone for free and like they don't have to replace them every few months. ok."
p2
sS'Created At'
p3
S'2015-11-29 02:43:23'
p4
s.(dp0
S'Text'
p1
S"i'm earning #mplusrewards in dragons: rise of berk android. https://t.co/vruxfijnq0"
p2
sS'Created At'
p3
S'2015-11-29 02:43:23'
p4
s.(dp0
S'Text'
p1
S'9" google android 4.4 tablet pc quad core 8gb dual cam bluetooth wi-fi touch pad - bid now\xe2\x80\xa6 https://t.co/fkf34qshpk https://t.co/vr5trgkldp'
p2
sS'Created At'
p3
S'2015-11-29 02:43:24'
p4
s.(dp0
S'Text'
p1
S'used   samsung galaxy tab s 8.4" 16gb android tablet sm-t700ntsaxac - bid now! only $121.96 https://t.co/nakkugltve https://t.co/ptb4abcxyd'
p2
sS'Created At'
p3
S'2015-11-29 02:43:25'
p4
s.(dp0
S'Text'
p1
S'@htpcbeginner is giving away wireless ac routers, android tv boxs, and amazon fire tv to its forum participants. https://t.co/61ccinzeon'
p2
sS'Created At'
p3
S'2015-11-29 02:43:25'
p4
s.(dp0
S'Text'
p1
S"apple's ios clenches 78.3% of u.s. mobile online shopping over thanksgiving, 360% more than android https://t.co/1xik8cz2t9"
p2
sS'Created At'
p3
S'2015-11-29 02:43:25'
p4
s.(dp0
S'Text'
p1
S'new 16gb irulu 7" android 4.4 pink tablet pc quad core dual cameras capacitive  - bid now!\xe2\x80\xa6 https://t.co/sdw6qsicbf https://t.co/elklokfpde'
p2
sS'Created At'
p3
S'2015-11-29 02:43:25'
p4
s.(dp0
S'Text'
p1
S'irulu 10.1" tablet pc 8gb quad core android 5.1 10 inch bt wifi 1024*600 gms new - bid now\xe2\x80\xa6 https://t.co/yta9dd31qy https://t.co/s9r5ps9apf'
p2
sS'Created At'
p3
S'2015-11-29 02:43:26'
p4
s.(dp0
S'Text'
p1
S'nowplaying : sp.ace &amp; panikowsky - artist drive\n\ntune in https://t.co/opfsd3gfno\n #android app https://t.co/mfyw7heajd\n#peripouwebradio'
p2
sS'Created At'
p3
S'2015-11-29 02:43:26'
p4
s.(dp0
S'Text'
p1
S'samsung galaxy s4 mini gt-i9192 purple factory unlocked dual sim android phone - bid now! \xe2\x80\xa6 https://t.co/x8kfru265w https://t.co/hvokyijamm'
p2
sS'Created At'
p3
S'2015-11-29 02:43:27'
p4
s.(dp0
S'Text'
p1
S"i'm now an e-list celebrity in kim kardashian: hollywood. you can be famous too by playing on android! https://t.co/kalojel4ef"
p2
sS'Created At'
p3
S'2015-11-29 02:43:31'
p4
s.(dp0
S'Text'
p1
S'younow | live stream video chat | free apps on web, ios and android https://t.co/ihysremlu3'
p2
sS'Created At'
p3
S'2015-11-29 02:43:32'
p4
s.(dp0
S'Text'
p1
S'5.2" lg g2 d800 quadcore android os gsm at&amp;t smartphone - 13mp 32gb- black  $107.50 with 2m left https://t.co/m5ccdu2qle #android'
p2
sS'Created At'
p3
S'2015-11-29 02:43:33'
p4
s.(dp0
S'Text'
p1
S'irulu expro x2s 7" 2g/3g phablet android 4.4 kitkat dual sim 8gb bt gps tablet https://t.co/sc3us2vpxy #1028 https://t.co/nktq49pub4'
p2
sS'Created At'
p3
S'2015-11-29 02:43:33'
p4
s.(dp0
S'Text'
p1
S'this is so true https://t.co/2wfprgyzyz'
p2
sS'Created At'
p3
S'2015-11-29 02:43:35'
p4
s.(dp0
S'Text'
p1
S'#9721 irulu expro x2s 7" 2g/3g phablet android 4.4 kitkat dual sim 8gb bt gps tablet https://t.co/klzbo4lx6k https://t.co/c7wjzsxaqc'
p2
sS'Created At'
p3
S'2015-11-29 02:43:36'
p4
s.(dp0
S'Text'
p1
S'apple https://t.co/zhzx2udjg3'
p2
sS'Created At'
p3
S'2015-11-29 02:43:36'
p4
s.(dp0
S'Text'
p1
S'kocaso tablet android 4.2 7.9" wifi dual core 1.2 ghz camera 8gb bluetooth m7850 https://t.co/vxjtgalquo #1028 https://t.co/lf5vsd47mi'
p2
sS'Created At'
p3
S'2015-11-29 02:43:36'
p4
s.(dp0
S'Text'
p1
S'cell phones #deals &gt;&gt; https://t.co/15xhqfn4ur #812 unlocked 5.5" 3g gps dual sim t-mobile straight talk android sm\xe2\x80\xa6 https://t.co/yrpnosut2j'
p2
sS'Created At'
p3
S'2015-11-29 02:43:37'
p4
s.(dp0
S'Text'
p1
S"i'm earning #mplusrewards in da daily insult android. https://t.co/tznesq04sw"
p2
sS'Created At'
p3
S'2015-11-29 02:43:38'
p4
s.(dp0
S'Text'
p1
S'#9721 kocaso tablet android 4.2 7.9" wifi dual core 1.2 ghz camera 8gb bluetooth m7850 https://t.co/dbzizntfou https://t.co/kvjvbjsdpm'
p2
sS'Created At'
p3
S'2015-11-29 02:43:39'
p4
s.(dp0
S'Text'
p1
S'enter to win "the great android holiday giveaway" from https://t.co/7tcp2rxahw https://t.co/kqvvty2r7p ,  over 25 #android prizes to be won!'
p2
sS'Created At'
p3
S'2015-11-29 02:43:40'
p4
s.(dp0
S'Text'
p1
S'phones &amp; deals : https://t.co/dyraubfikx #819 lg g watch r w110 1.3" oled smart watch 4 android smartphone n\n\n$299\xe2\x80\xa6 https://t.co/ogbmi1x6th'
p2
sS'Created At'
p3
S'2015-11-29 02:43:40'
p4
s.(dp0
S'Text'
p1
S'#10billionwives \ni married476,156,919,443,183wives!\n\nios: https://t.co/v4jhckbj3v\nandroid: https://t.co/r6cku1b69n https://t.co/jbv2iaw3lo'
p2
sS'Created At'
p3
S'2015-11-29 02:43:40'
p4
s.(dp0
S'Text'
p1
S'phones &amp; deals : https://t.co/g6dao38cpl #819 motorola xt912 droid razr 16gb verizon wireless 4g lte android wifi \xe2\x80\xa6 https://t.co/0nitlvhosh'
p2
sS'Created At'
p3
S'2015-11-29 02:43:41'
p4
s.(dp0
S'Text'
p1
S'@2minuteandroid news #android is out! https://t.co/pojexuq2og stories via @f1android @stadium @truthfed'
p2
sS'Created At'
p3
S'2015-11-29 02:43:42'
p4
s.(dp0
S'Text'
p1
S'i just moved up to level 59 in for android! you should check it out for'
p2
sS'Created At'
p3
S'2015-11-29 02:43:42'
p4
s.(dp0
S'Text'
p1
S'cell phones #deals &gt;&gt; https://t.co/i326ddwpvm #812 samsung i747 galaxy s3 at&amp;t 16gb android camera cell phone https://t.co/cqkgxnnejf'
p2
sS'Created At'
p3
S'2015-11-29 02:43:41'
p4
s.(dp0
S'Text'
p1
S'pro darts 2014 full apk android (mod unlocked) game features: \xef\xbf\xbd localized to english, french, german, spa https://t.co/w3uorkkefv'
p2
sS'Created At'
p3
S'2015-11-29 02:43:42'
p4
s.(dp0
S'Text'
p1
S'no logs kept gigabit speed #vpn https://t.co/q2gbmcki8k\n#ios #android #apple #mac #windows\n#windows10 #vpnmaster\nhttps://t.co/6hsqseuufq'
p2
sS'Created At'
p3
S'2015-11-29 02:43:43'
p4
s.(dp0
S'Text'
p1
S'phones &amp; deals :https://t.co/sasag2vblw #2324 unlocked htc 6525 one m8 32gb android smartphone https://t.co/lncmyknjzk'
p2
sS'Created At'
p3
S'2015-11-29 02:43:45'
p4
s.(dp0
S'Text'
p1
S"i'm earning #mplusrewards in spin da slots android. https://t.co/wmezf5jfua"
p2
sS'Created At'
p3
S'2015-11-29 02:43:46'
p4
s.(dp0
S'Text'
p1
S'check out the "ultimate holiday tech gift guide 2015 \xe2\x80\x93 2016" tons of #android and tech gift ideas https://t.co/xrdzvvgezk #christmas #xmas'
p2
sS'Created At'
p3
S'2015-11-29 02:43:46'
p4
s.(dp0
S'Text'
p1
S"combine those two images together and what do you get?? iwaterphone 3g!! put your android in water, it's good for it https://t.co/bgdpk02ilq"
p2
sS'Created At'
p3
S'2015-11-29 02:43:46'
p4
s.(dp0
S'Text'
p1
S'windows tablet shipments gaining momentum at expense of android - https://t.co/7mwlqvbac2'
p2
sS'Created At'
p3
S'2015-11-29 02:43:47'
p4
s.(dp0
S'Text'
p1
S'token black friend https://t.co/o83bjkbk4f'
p2
sS'Created At'
p3
S'2015-11-29 02:43:48'
p4
s.(dp0
S'Text'
p1
S'mobile shop &gt;&gt; https://t.co/qmlm9djmea #301 lg g watch r w110 1.3" oled smart watch 4 android smartphone n https://t.co/jctmitjtg2'
p2
sS'Created At'
p3
S'2015-11-29 02:43:49'
p4
s.(dp0
S'Text'
p1
S'i managed to finish the the hopping sunny bunny assignment! try it for yourself! https://t.co/rxxdpco22m #gameinsight #android'
p2
sS'Created At'
p3
S'2015-11-29 02:43:49'
p4
s.(dp0
S'Text'
p1
S'mobile shop &gt;&gt; https://t.co/gcvabzybqw #301 motorola xt912 droid razr 16gb verizon wireless 4g lte android wifi sm\xe2\x80\xa6 https://t.co/zucwpfxcqo'
p2
sS'Created At'
p3
S'2015-11-29 02:43:49'
p4
s.(dp0
S'Text'
p1
S"i'm earning #mplusrewards in cut da deck android. https://t.co/ued0bn1fel"
p2
sS'Created At'
p3
S'2015-11-29 02:43:51'
p4
s.(dp0
S'Text'
p1
S'phones offers &gt;&gt; https://t.co/mmaszepgf2 #034 lg g stylo lte android 5.7" smartphone works with virgin mobile - new https://t.co/9lxbyfpmxh'
p2
sS'Created At'
p3
S'2015-11-29 02:43:53'
p4
s.(dp0
S'Text'
p1
S'cell phone shop : https://t.co/lrljapinwu #629 lg g stylo lte android 5.7" smartphone works with virgin mobile - n\xe2\x80\xa6 https://t.co/gahppxjqs8'
p2
sS'Created At'
p3
S'2015-11-29 02:43:53'
p4
s.(dp0
S'Text'
p1
S'claim your free "samsung galaxy s iii unlocked pebble blue 4.8" lcd 16gb 8mp android smartphone" here \xe2\x80\xa6 https://t.co/wjfmshezxk'
p2
sS'Created At'
p3
S'2015-11-29 02:43:53'
p4
s.(dp0
S'Text'
p1
S'check out my photo of #clumsyninja for android! try it for free! https://t.co/a7yf1vma2d https://t.co/2fxeceewpf'
p2
sS'Created At'
p3
S'2015-11-29 02:43:53'
p4
s.(dp0
S'Text'
p1
S'phones &amp; deals :https://t.co/dafo59qj7t #2324 alcatel one touch evolve 2 4037t - black - (t-mobile) android smart\xe2\x80\xa6 https://t.co/dxrxulvcxr'
p2
sS'Created At'
p3
S'2015-11-29 02:43:53'
p4
s.(dp0
S'Text'
p1
S"what it's like to order restaurant food with deliveroo's ap https://t.co/kzcbexufjc #apps #news #startups #howto #diy #android #howto #apps"
p2
sS'Created At'
p3
S'2015-11-29 02:43:55'
p4
s.(dp0
S'Text'
p1
S'https://t.co/cg5yl2eakr https://t.co/ksgiesy9be #2517 300x iphone android bulk wholesale - wall/car charger - ca\xe2\x80\xa6 https://t.co/uwpbbzmlcs'
p2
sS'Created At'
p3
S'2015-11-29 02:43:56'
p4
s.(dp0
S'Text'
p1
S"i'm earning #mplusrewards in light da fuse android. https://t.co/pymgk6yrun"
p2
sS'Created At'
p3
S'2015-11-29 02:43:57'
p4
s.(dp0
S'Text'
p1
S"i'm playing the @reflexgamingltd app, available on android! https://t.co/go9x2ug5x1"
p2
sS'Created At'
p3
S'2015-11-29 02:43:58'
p4
s.(dp0
S'Text'
p1
S'luis from catano https://t.co/x4aty5s9ga \n\n#catano  #laptop #android #unitedkingdom'
p2
sS'Created At'
p3
S'2015-11-29 02:44:00'
p4
s.(dp0
S'Text'
p1
S'#iphone #ebay brand new iphone 5 16gb black factory unlocked!  with ios 6 (sealed) md2938z/a https://t.co/qxwkfsbqxr #phones #android'
p2
sS'Created At'
p3
S'2015-11-29 02:44:00'
p4
s.(dp0
S'Text'
p1
S'iphone \xf0\x9f\x93\xb1 https://t.co/c5nutsl5wf'
p2
sS'Created At'
p3
S'2015-11-29 02:44:00'
p4
s.(dp0
S'Text'
p1
S'@forevr_blushing nope my android'
p2
sS'Created At'
p3
S'2015-11-29 02:44:00'
p4
s.(dp0
S'Text'
p1
S'#iphone #ebay brand new iphone 5 16gb black factory unlocked!  with ios 6 (sealed) md2938z/a https://t.co/plcqzirrwj #phones #android'
p2
sS'Created At'
p3
S'2015-11-29 02:44:01'
p4
s.(dp0
S'Text'
p1
S'#oneclickroot: how-to safely #root #samsung gt-n8013 (build: jzo54k\xe2\x80\xa4n8013ueucma3) running #android 4.1.2 https://t.co/mckex7cjg2'
p2
sS'Created At'
p3
S'2015-11-29 02:44:02'
p4
s.(dp0
S'Text'
p1
S'#oneclickroot: how-to safely #root #samsung sm-g313hy (build: kot49h\xe2\x80\xa4g313hyxxu0ank1) running #android 4.4.2 https://t.co/utycspwmr7'
p2
sS'Created At'
p3
S'2015-11-29 02:44:02'
p4
s.(dp0
S'Text'
p1
S'7" irulu 16gb tablet pc google android 4.4 kitkat quad core dual cam w/ keyboard - bid now\xe2\x80\xa6 https://t.co/ehgxtixy4m https://t.co/cgxmr757xq'
p2
sS'Created At'
p3
S'2015-11-29 02:44:02'
p4
s.(dp0
S'Text'
p1
S'#oneclickroot: how-to safely #root #sony st23i (build: 11\xe2\x80\xa40\xe2\x80\xa4a\xe2\x80\xa45\xe2\x80\xa48) running #android 4.0.4 https://t.co/pe1bt5zxq5'
p2
sS'Created At'
p3
S'2015-11-29 02:44:02'
p4
s.(dp0
S'Text'
p1
S'iphone vs. android: which is better? - cnnmoney\n\nhttps://t.co/oruh1rhk90'
p2
sS'Created At'
p3
S'2015-11-29 02:44:03'
p4
s.(dp0
S'Text'
p1
S"i'm earning #mplusrewards in guess da number android. https://t.co/jriravkgmj"
p2
sS'Created At'
p3
S'2015-11-29 02:44:03'
p4
s.(dp0
S'Text'
p1
S'irulu tablet 7" 8gb/1gb google android 4.4 quad core wifi w/ white keyboard - bid now! onl\xe2\x80\xa6 https://t.co/jp0est0eey https://t.co/xtpnd2fzu4'
p2
sS'Created At'
p3
S'2015-11-29 02:44:03'
p4
s.(dp0
S'Text'
p1
S'8gb irulu 7" android 4.4 a33 tablet pc quad core dual camera w/ black keyboard - bid now! \xe2\x80\xa6 https://t.co/6pavt5quvc https://t.co/b5qen4bzi2'
p2
sS'Created At'
p3
S'2015-11-29 02:44:04'
p4
s.(dp0
S'Text'
p1
S'irulu 9" tablet pc 8gb google android 4.4 kitkat quad core bluetooth w/ keyboard - bid now\xe2\x80\xa6 https://t.co/lfquy0emxt https://t.co/4broowv6rg'
p2
sS'Created At'
p3
S'2015-11-29 02:44:05'
p4
s.(dp0
S'Text'
p1
S'#smartwatch best red u8 smart watch #bluetooth phone mate for ios #android #iphone samsung ob https://t.co/hlv9do2zij #smartwatches'
p2
sS'Created At'
p3
S'2015-11-29 02:44:06'
p4
s.(dp0
S'Text'
p1
S'unlocked white 5.7" samsung galaxy note 3 4g lte android gsm smartphone 32gb dhl - bid now\xe2\x80\xa6 https://t.co/78luphu9kd https://t.co/xi5hydfgxm'
p2
sS'Created At'
p3
S'2015-11-29 02:44:07'
p4
s.(dp0
S'Text'
p1
S'irulu 7" 16gb tablet pc google android 4.2 dual core dual camera 1.5ghz wifi - bid now! on\xe2\x80\xa6 https://t.co/pr4vf2rt0y https://t.co/z0864ncdod'
p2
sS'Created At'
p3
S'2015-11-29 02:44:07'
p4
s.(dp0
S'Text'
p1
S"i'm earning #mplusrewards in guess da number android. https://t.co/zpmutyok7k"
p2
sS'Created At'
p3
S'2015-11-29 02:44:09'
p4
s.(dp0
S'Text'
p1
S"i'm earning #mplusrewards in https://t.co/ikufjflwjf for android. https://t.co/sisor7jeyy @dictionarycom"
p2
sS'Created At'
p3
S'2015-11-29 02:44:10'
p4
s.(dp0
S'Text'
p1
S'younow | live stream video chat | free apps on web, ios and android https://t.co/76v5xjui4c'
p2
sS'Created At'
p3
S'2015-11-29 02:44:10'
p4
s.(dp0
S'Text'
p1
S'unlocked white 5.7" samsung galaxy note 3 4g lte android gsm smartphone 32gb dhl - bid now\xe2\x80\xa6 https://t.co/zxhuboc3x3 https://t.co/w8jokjqyfs'
p2
sS'Created At'
p3
S'2015-11-29 02:44:12'
p4
s.(dp0
S'Text'
p1
S'we all spend money on phones. period. lets not turn this into some ignorant small minded apple vs android shit. its old. its played out.'
p2
sS'Created At'
p3
S'2015-11-29 02:44:13'
p4
s.(dp0
S'Text'
p1
S"i'm earning #mplusrewards in roll da dice android. https://t.co/v9rkwdqlxu"
p2
sS'Created At'
p3
S'2015-11-29 02:44:17'
p4
s.(dp0
S'Text'
p1
S'gottes tod #atrocity #metal download android rnrplayer &amp; free listen us.!... https://t.co/0zjzq3egvx'
p2
sS'Created At'
p3
S'2015-11-29 02:44:18'
p4
s.(dp0
S'Text'
p1
S'bonnygame completed the roll with it quest https://t.co/4nlqy8wgfd'
p2
sS'Created At'
p3
S'2015-11-29 02:44:19'
p4
s.(dp0
S'Text'
p1
S'iphone  https://t.co/ufw9hy92gq'
p2
sS'Created At'
p3
S'2015-11-29 02:44:22'
p4
s.(dp0
S'Text'
p1
S'ex-navy seals: incredibly thankful to be americans https://t.co/mmskgfxutn via the @foxnews android app'
p2
sS'Created At'
p3
S'2015-11-29 02:44:25'
p4
s.(dp0
S'Text'
p1
S'iphone \xe2\x98\xba\xef\xb8\x8f https://t.co/qdezzg2gun'
p2
sS'Created At'
p3
S'2015-11-29 02:44:27'
p4
s.(dp0
S'Text'
p1
S"i'm now an e-list celebrity in kim kardashian: hollywood. you can be famous too by playing on android! https://t.co/o53x3bernb"
p2
sS'Created At'
p3
S'2015-11-29 02:44:28'
p4
s.(dp0
S'Text'
p1
S'iphone  https://t.co/wc5ipnpxlb'
p2
sS'Created At'
p3
S'2015-11-29 02:44:31'
p4
s.(dp0
S'Text'
p1
S"i'm earning #mplusrewards in family feud 2 android. https://t.co/knzh7je1q6"
p2
sS'Created At'
p3
S'2015-11-29 02:44:32'
p4
s.(dp0
S'Text'
p1
S'morning android operating system on war\nhttps://t.co/f7gdg4gje5'
p2
sS'Created At'
p3
S'2015-11-29 02:44:34'
p4
s.(dp0
S'Text'
p1
S"#android #download 'paper toss' @ https://t.co/eehoo06hob #apkfiles #free #game #apk #new #play #apkfiles https://t.co/lgi9bc8vgb"
p2
sS'Created At'
p3
S'2015-11-29 02:44:38'
p4
s.(dp0
S'Text'
p1
S"#android #download 'candy crush saga' @ https://t.co/mrtmk7apfb #apkfiles #free #game #apk #new #play #apkfiles https://t.co/fbzagihthc"
p2
sS'Created At'
p3
S'2015-11-29 02:44:39'
p4
s.(dp0
S'Text'
p1
S'#android #littlerock #photoshop #thank learn #english or #russian #with rocket. cb s no.1 at language learning... https://t.co/elexxncbbh'
p2
sS'Created At'
p3
S'2015-11-29 02:44:40'
p4
s.(dp0
S'Text'
p1
S'who are the investors in @lyft? do they know how lame the payments interface in the android app are?'
p2
sS'Created At'
p3
S'2015-11-29 02:44:43'
p4
s.(dp0
S'Text'
p1
S'ends 12/28! enter daily in the great android holiday #giveaway to win 1 of 25 devices - https://t.co/p3ub9ivxri https://t.co/cmwelxj060'
p2
sS'Created At'
p3
S'2015-11-29 02:44:43'
p4
s.(dp0
S'Text'
p1
S"i'm now a c-list celebrity in kim kardashian: hollywood. you can be famous too by playing on android! https://t.co/izfkzyfqyy"
p2
sS'Created At'
p3
S'2015-11-29 02:44:47'
p4
s.(dp0
S'Text'
p1
S'7" irulu 16gb tablet pc google android 4.4 kitkat quad core dual cam w/ keyboard - bid now\xe2\x80\xa6 https://t.co/hcx4fkx9wz https://t.co/h9vdajtmgy'
p2
sS'Created At'
p3
S'2015-11-29 02:44:50'
p4
s.(dp0
S'Text'
p1
S'irulu tablet 7" 8gb/1gb google android 4.4 quad core wifi w/ white keyboard - bid now! onl\xe2\x80\xa6 https://t.co/74brd4lhfv https://t.co/suyxfs5n5d'
p2
sS'Created At'
p3
S'2015-11-29 02:44:53'
p4
s.(dp0
S'Text'
p1
S'https://t.co/xxq09cisoc of duty gameplay, sign in the channel and let that favorite like to support https://t.co/7zgmbepi6u'
p2
sS'Created At'
p3
S'2015-11-29 02:44:53'
p4
s.(dp0
S'Text'
p1
S'8gb irulu 7" android 4.4 a33 tablet pc quad core dual camera w/ black keyboard - bid now! \xe2\x80\xa6 https://t.co/kogstnqdnn https://t.co/h0h8xlbvp4'
p2
sS'Created At'
p3
S'2015-11-29 02:44:53'
p4
s.(dp0
S'Text'
p1
S'irulu 9" tablet pc 8gb google android 4.4 kitkat quad core bluetooth w/ keyboard - bid now\xe2\x80\xa6 https://t.co/p1fk5nstak https://t.co/r0e7nm7rrr'
p2
sS'Created At'
p3
S'2015-11-29 02:44:54'
p4
s.(dp0
S'Text'
p1
S'irulu 7" 16gb tablet pc google android 4.2 dual core dual camera 1.5ghz wifi - bid now! on\xe2\x80\xa6 https://t.co/bokhaib7fk https://t.co/0ocldp2d8t'
p2
sS'Created At'
p3
S'2015-11-29 02:44:54'
p4
s.(dp0
S'Text'
p1
S'lg g pad f 7.0 lk430 8gb 7-inch quad-core android 5.0 lollipop tablet pc 5mp cam #7482 https://t.co/5r9zklzkwp https://t.co/peg0eqkmh5'
p2
sS'Created At'
p3
S'2015-11-29 02:44:55'
p4
s.(dp0
S'Text'
p1
S"i'm earning #mplusrewards in https://t.co/rxevv6hcwz for android. https://t.co/lwwrlsxwz4 @dictionarycom"
p2
sS'Created At'
p3
S'2015-11-29 02:44:58'
p4
s.(dp0
S'Text'
p1
S'kash from greaterlondon https://t.co/lzqsizqwxh \n\n#greaterlondon  #datingsite #android #tablet'
p2
sS'Created At'
p3
S'2015-11-29 02:45:00'
p4
s.(dp0
S'Text'
p1
S"...were not. if you are using an android device then my recommendation would be to use #bet365's .. https://t.co/g7nevlwzw7"
p2
sS'Created At'
p3
S'2015-11-29 02:45:01'
p4
s.(dp0
S'Text'
p1
S'mobiles : https://t.co/h1vyhnzj9b #4092 new blu star 4.0 s410a (white) gsm unlocked dual sim android smartphone\n\n$\xe2\x80\xa6 https://t.co/2nti5gqhui'
p2
sS'Created At'
p3
S'2015-11-29 02:45:02'
p4
s.(dp0
S'Text'
p1
S"i'm earning #mplusrewards in ask da ball android. https://t.co/bdabkmizzl"
p2
sS'Created At'
p3
S'2015-11-29 02:45:02'
p4
s.(dp0
S'Text'
p1
S'@shinydiamondcat watch this pokemon game for android and tell me what you think, its very good! download here: https://t.co/kt6louzz0n'
p2
sS'Created At'
p3
S'2015-11-29 02:45:02'
p4
s.(dp0
S'Text'
p1
S"i'm earning #mplusrewards in name da president (android). https://t.co/zjpp5gnd7k"
p2
sS'Created At'
p3
S'2015-11-29 02:45:03'
p4
s.(dp0
S'Text'
p1
S's365 smart watch g-sensor automatic light screen mtk2502 sos dialer sport for android/ios wwt-434973 https://t.co/s9vhv03uow'
p2
sS'Created At'
p3
S'2015-11-29 02:45:05'
p4
s.(dp0
S'Text'
p1
S'the new chefsfeed on @android is on fleek af. you can say that right? #millenial #marketing https://t.co/uld1s9mz5v https://t.co/nxxv85he8a'
p2
sS'Created At'
p3
S'2015-11-29 02:45:05'
p4
s.(dp0
S'Text'
p1
S"i'm earning #mplusrewards in grumpy bears android. https://t.co/kz3y8ucbzm"
p2
sS'Created At'
p3
S'2015-11-29 02:45:10'
p4
s.(dp0
S'Text'
p1
S'nice game #shred! #mtb #downhill #bicycle #android https://t.co/pmeprov7lv'
p2
sS'Created At'
p3
S'2015-11-29 02:45:10'
p4
s.(dp0
S'Text'
p1
S'@lundiekye also if you have an android download google surveys and do them and get play credits'
p2
sS'Created At'
p3
S'2015-11-29 02:45:13'
p4
s.(dp0
S'Text'
p1
S'#10billionwives \ni married2,928,083wives!\n\nios: https://t.co/a2wz7huypy\nandroid: https://t.co/zrakrmgfmk https://t.co/knqvpgdt0x'
p2
sS'Created At'
p3
S'2015-11-29 02:45:13'
p4
s.(dp0
S'Text'
p1
S"how one facebook engineer became 'the zombie mayor https://t.co/rwnhlgeb9w #hot #trending #news #startups #howto #diy #android #howto #apps"
p2
sS'Created At'
p3
S'2015-11-29 02:45:15'
p4
s.(dp0
S'Text'
p1
S"i'm now a b-list celebrity in kim kardashian: hollywood. you can be famous too by playing on android! https://t.co/2wmvtzifi4"
p2
sS'Created At'
p3
S'2015-11-29 02:45:16'
p4
s.(dp0
S'Text'
p1
S'android dialers, ranked  https://t.co/utiibc68n3'
p2
sS'Created At'
p3
S'2015-11-29 02:45:16'
p4
s.(dp0
S'Text'
p1
S'android dialers, ranked  https://t.co/zwsz15rqmw'
p2
sS'Created At'
p3
S'2015-11-29 02:45:18'
p4
s.(dp0
S'Text'
p1
S'huawei mediapad honor x1 mobile phone tablet 7" android 2g+16gb+cases - bid now! only $320\xe2\x80\xa6 https://t.co/tsodt7drij https://t.co/vtgk4ylf9u'
p2
sS'Created At'
p3
S'2015-11-29 02:45:18'
p4
s.(dp0
S'Text'
p1
S'\xe2\x98\x80all\xe2\x98\x80who\xe2\x98\x80retweets\xe2\x98\x80want\xe2\x98\x80new\xe2\x98\x80followers\xe2\x98\x80 #teamfairyrose #tfbjp #follow #followback #android #rt2club'
p2
sS'Created At'
p3
S'2015-11-29 02:45:19'
p4
s.(dp0
S'Text'
p1
S'lepan mini 8 inch android tablet pc silver and red. model: tc802a (no reserve) - bid now! \xe2\x80\xa6 https://t.co/veav4uo0u2 https://t.co/yqxrj9ccm4'
p2
sS'Created At'
p3
S'2015-11-29 02:45:19'
p4
s.(dp0
S'Text'
p1
S'dell venue 8 7000 series (7840) android tablet - bid now! only $180.0 https://t.co/iic2drmlko https://t.co/u1dnwb4kbe'
p2
sS'Created At'
p3
S'2015-11-29 02:45:20'
p4
s.(dp0
S'Text'
p1
S'ovtech android 4.4 10.1 inch tablet pc a33 quad core 1g/8g bluetooth wifi white  - bid now\xe2\x80\xa6 https://t.co/rkahslkc5g https://t.co/2ny41e9jdn'
p2
sS'Created At'
p3
S'2015-11-29 02:45:21'
p4
s.(dp0
S'Text'
p1
S'envizen cosmos v917g 1gb ram, 1.5ghz dual core 8gb memory 9 inch android tablet  - bid now\xe2\x80\xa6 https://t.co/10b3lyitny https://t.co/qikc2aer11'
p2
sS'Created At'
p3
S'2015-11-29 02:45:22'
p4
s.(dp0
S'Text'
p1
S'@quason107_rblx here is the alternative ways , if you had a apple or android in your mobile device..\nhttps://t.co/lgq9h9brly'
p2
sS'Created At'
p3
S'2015-11-29 02:45:22'
p4
s.(dp0
S'Text'
p1
S'lg g2 starts receiving android lollipop update in korea https://t.co/s90ulbgiix #news'
p2
sS'Created At'
p3
S'2015-11-29 02:45:24'
p4
s.(dp0
S'Text'
p1
S'#10billionwives \ni married2,928,055wives!\n\nios: https://t.co/a2wz7huypy\nandroid: https://t.co/zrakrmgfmk https://t.co/hscmbjyl7e'
p2
sS'Created At'
p3
S'2015-11-29 02:45:23'
p4
s.(dp0
S'Text'
p1
S"i've finished the visit baron de albert's castle quest! are you able to fulfil the same task? https://t.co/jnuu2imzrq #android,#androi..."
p2
sS'Created At'
p3
S'2015-11-29 02:45:26'
p4
s.(dp0
S'Text'
p1
S'apply first: jr software engineer (android) in carlsbad, ca https://t.co/dtyqczon2z #job'
p2
sS'Created At'
p3
S'2015-11-29 02:45:26'
p4
s.(dp0
S'Text'
p1
S'android can kiss my ass i went through fucking 4 android phones all shitty'
p2
sS'Created At'
p3
S'2015-11-29 02:45:31'
p4
s.(dp0
S'Text'
p1
S"https://t.co/3z9zdfz6id available on netflix, let's not forget who is responsible for the fall of the republic chaney, bush, rumsfeld"
p2
sS'Created At'
p3
S'2015-11-29 02:45:32'
p4
s.(dp0
S'Text'
p1
S"i'm earning #mplusrewards in cut da deck android. https://t.co/4mlwgzhh3y"
p2
sS'Created At'
p3
S'2015-11-29 02:45:33'
p4
s.(dp0
S'Text'
p1
S'lg g2 starts receiving android lollipop update in korea https://t.co/dfh0vwzvxz #news https://t.co/pc3emhprqj'
p2
sS'Created At'
p3
S'2015-11-29 02:45:36'
p4
s.(dp0
S'Text'
p1
S'asus transformer pad tf103c-a1-bundle 10.1" android tablet + keyboard 16gb 2in1u https://t.co/3rrnumernh'
p2
sS'Created At'
p3
S'2015-11-29 02:45:38'
p4
s.(dp0
S'Text'
p1
S'pampered chef (@pamperedchef) is hiring https://t.co/oxgpsc6iln #java #android'
p2
sS'Created At'
p3
S'2015-11-29 02:45:39'
p4
s.(dp0
S'Text'
p1
S'#mobile #app developer (ios/android)  - contract  - auckland https://t.co/fk9sx8eco2'
p2
sS'Created At'
p3
S'2015-11-29 02:45:41'
p4
s.(dp0
S'Text'
p1
S"#10billionwives \ni married818,510wives!\n\nios: https://t.co/5t4jwqgnp4\nandroid: https://t.co/t4wvjv54hs it's cute https://t.co/urtuaheadq"
p2
sS'Created At'
p3
S'2015-11-29 02:45:42'
p4
s.(dp0
S'Text'
p1
S"i'm earning #mplusrewards in https://t.co/myncfhxybw for android. https://t.co/ozq8sqfesj @dictionarycom"
p2
sS'Created At'
p3
S'2015-11-29 02:45:43'
p4
s.(dp0
S'Text'
p1
S'#gpt download #free #ios or #android apps. $5-$10 daily. instant cashout! invite: https://t.co/esvg52yrfp https://t.co/znaandotqt'
p2
sS'Created At'
p3
S'2015-11-29 02:45:43'
p4
s.(dp0
S'Text'
p1
S"i'm earning #mplusrewards in roll da dice android. https://t.co/urincsjyux"
p2
sS'Created At'
p3
S'2015-11-29 02:45:44'
p4
s.(dp0
S'Text'
p1
S"i'm earning #mplusrewards in tap da cookie android. https://t.co/ywdrychdof"
p2
sS'Created At'
p3
S'2015-11-29 02:45:45'
p4
s.(dp0
S'Text'
p1
S"i'm earning #mplusrewards in name da flag android. https://t.co/lqs7rnjky5"
p2
sS'Created At'
p3
S'2015-11-29 02:45:45'
p4
s.(dp0
S'Text'
p1
S'@e_and_t_beauty luv4luv ukg vol.1 mixed by @djpyro android https://t.co/ddhmpa05om / iphone https://t.co/vh380mztbb https://t.co/2uxw5chen7'
p2
sS'Created At'
p3
S'2015-11-29 02:45:47'
p4
s.(dp0
S'Text'
p1
S'get dancehall link radio free app. android blackberry iphone ready!!- free free- https://t.co/2aj6oww8kx https://t.co/zoouo6bgtq'
p2
sS'Created At'
p3
S'2015-11-29 02:45:49'
p4
s.(dp0
S'Text'
p1
S'#10billionwives \ni married146,934,602,360,398wives!\n\nis: https://t.co/jidzwofuk1\nandroid: https://t.co/dknomexvle https://t.co/kinpetv7mg'
p2
sS'Created At'
p3
S'2015-11-29 02:45:51'
p4
s.(dp0
S'Text'
p1
S"i'm earning #mplusrewards in office zombie - android. https://t.co/trmjwz6bxd"
p2
sS'Created At'
p3
S'2015-11-29 02:45:56'
p4
s.(dp0
S'Text'
p1
S'tough #mobilegame #googleplayapp #googleplay #games #gameshare gamerrter #gamersunite #mobile #android  https://t.co/8tqyktu37q'
p2
sS'Created At'
p3
S'2015-11-29 02:45:59'
p4
s.(dp0
S'Text'
p1
S'jay from greaterlondon https://t.co/amsl50xa9j \n\n#greaterlondon  #datehotmen #dance #android'
p2
sS'Created At'
p3
S'2015-11-29 02:46:00'
p4
s.(dp0
S'Text'
p1
S"i'm earning #mplusrewards in tap da cookie android. https://t.co/ybru7gvmu8"
p2
sS'Created At'
p3
S'2015-11-29 02:46:02'
p4
s.(dp0
S'Text'
p1
S'#oneclickroot: how-to safely #root #samsung sgh-i317m (build: jss15j\xe2\x80\xa4i317mvlucmk5\xe2\x80\xa4dm) running #android 4.3 https://t.co/fmcs3wcx1u'
p2
sS'Created At'
p3
S'2015-11-29 02:46:02'
p4
s.(dp0
S'Text'
p1
S'7" irulu 16gb tablet pc google android 4.4 kitkat quad core dual cam w/ keyboard - bid now\xe2\x80\xa6 https://t.co/ywvtarl7gg https://t.co/gaf2acks0a'
p2
sS'Created At'
p3
S'2015-11-29 02:46:02'
p4
s.(dp0
S'Text'
p1
S'#oneclickroot: how-to safely #root #sony c5303 (build: 12\xe2\x80\xa41\xe2\x80\xa4a\xe2\x80\xa40\xe2\x80\xa4266) running #android 4.3 https://t.co/dfjmxmau0j'
p2
sS'Created At'
p3
S'2015-11-29 02:46:03'
p4
s.(dp0
S'Text'
p1
S'#oneclickroot: how-to safely #root #samsung shw-m250s (build: jzo54k\xe2\x80\xa4m250sksjmj1) running #android 4.1.2 https://t.co/9wbahddpfi'
p2
sS'Created At'
p3
S'2015-11-29 02:46:03'
p4
s.(dp0
S'Text'
p1
S'irulu tablet 7" 8gb/1gb google android 4.4 quad core wifi w/ white keyboard - bid now! onl\xe2\x80\xa6 https://t.co/o5iubn7kmm https://t.co/uiflmbmhyg'
p2
sS'Created At'
p3
S'2015-11-29 02:46:03'
p4
s.(dp0
S'Text'
p1
S'novedades de android 6.0 marshmallow [video] https://t.co/x5ucf21wuf | #tecnolog\xc3\xada'
p2
sS'Created At'
p3
S'2015-11-29 02:46:04'
p4
s.(dp0
S'Text'
p1
S'8gb irulu 7" android 4.4 a33 tablet pc quad core dual camera w/ black keyboard - bid now! \xe2\x80\xa6 https://t.co/owl0rs6lew https://t.co/xzlv1mku5u'
p2
sS'Created At'
p3
S'2015-11-29 02:46:04'
p4
s.(dp0
S'Text'
p1
S"i'm earning #mplusrewards in the price is right\xe2\x84\xa2 slots - android. https://t.co/y0btiorspt"
p2
sS'Created At'
p3
S'2015-11-29 02:46:04'
p4
s.(dp0
S'Text'
p1
S"i'm now a d-list celebrity in kim kardashian: hollywood. you can be famous too by playing on android! https://t.co/4hwxzikqap"
p2
sS'Created At'
p3
S'2015-11-29 02:46:04'
p4
s.(dp0
S'Text'
p1
S"i'm earning #mplusrewards in cut da deck android. https://t.co/cayflcols5"
p2
sS'Created At'
p3
S'2015-11-29 02:46:05'
p4
s.(dp0
S'Text'
p1
S'get #wildwallet on android - https://t.co/n38vxrjslg to earn amazing rewards for trying free apps. use code 2335593 for 200 bonus credits!'
p2
sS'Created At'
p3
S'2015-11-29 02:46:05'
p4
s.(dp0
S'Text'
p1
S'irulu 9" tablet pc 8gb google android 4.4 kitkat quad core bluetooth w/ keyboard - bid now\xe2\x80\xa6 https://t.co/4fl2i9tvzf https://t.co/t8zbak0dde'
p2
sS'Created At'
p3
S'2015-11-29 02:46:05'
p4
s.(dp0
S'Text'
p1
S"it's been at least 13 minutes since the last treat... https://t.co/xnt8tzxoug"
p2
sS'Created At'
p3
S'2015-11-29 02:46:06'
p4
s.(dp0
S'Text'
p1
S'irulu 7" 16gb tablet pc google android 4.2 dual core dual camera 1.5ghz wifi - bid now! on\xe2\x80\xa6 https://t.co/e5psrofmnh https://t.co/l9ug0goi7w'
p2
sS'Created At'
p3
S'2015-11-29 02:46:06'
p4
s.(dp0
S'Text'
p1
S'beat my 516m in #miniracingadventures [ios]: https://t.co/pea0cmkom5 [android]: https://t.co/nna50xjwlj'
p2
sS'Created At'
p3
S'2015-11-29 02:46:06'
p4
s.(dp0
S'Text'
p1
S'android can kiss my ass i went through fucking 4 android phones all shitty plus a fucking nexus tablet that died ugh'
p2
sS'Created At'
p3
S'2015-11-29 02:46:07'
p4
s.(dp0
S'Text'
p1
S'tough #mobilegame #googleplayapp #googleplay #games #gameshare gamerrter #gamersunite #mobile #android  https://t.co/kyljomh6tv'
p2
sS'Created At'
p3
S'2015-11-29 02:46:08'
p4
s.(dp0
S'Text'
p1
S'man i need a iphone bad android so shit water'
p2
sS'Created At'
p3
S'2015-11-29 02:46:09'
p4
s.(dp0
S'Text'
p1
S'https://t.co/t9vxatypea #6881 #4819 bluetooth smart watch phone gsm sim card for android... https://t.co/s6wg4lmcvb'
p2
sS'Created At'
p3
S'2015-11-29 02:46:10'
p4
s.(dp0
S'Text'
p1
S"i'm earning #mplusrewards in https://t.co/8cxq2w6fwf for android. https://t.co/nutnrjr37l @dictionarycom"
p2
sS'Created At'
p3
S'2015-11-29 02:46:11'
p4
s.(dp0
S'Text'
p1
S'https://t.co/uqdhvpcl5k #5078 #4968 unlocked bluetooth wrist smart sim phone watch for android... https://t.co/bawwdoc7jw'
p2
sS'Created At'
p3
S'2015-11-29 02:46:11'
p4
s.(dp0
S'Text'
p1
S'@sarahsidway luv4luv ukg vol.1 mixed by @djpyro android https://t.co/9so2lhvw4g / iphone https://t.co/9or3qbxmgi https://t.co/dkz4plvqad'
p2
sS'Created At'
p3
S'2015-11-29 02:46:11'
p4
s.(dp0
S'Text'
p1
S'this force touch thingy is really nothing new on android. but if the case was reversed, apple had long time sued an android oem.'
p2
sS'Created At'
p3
S'2015-11-29 02:46:12'
p4
s.(dp0
S'Text'
p1
S'save $100 on black friday weekend @nvidia get a free remote +50% off when you buy a shield android tv https://t.co/uozi6earbl'
p2
sS'Created At'
p3
S'2015-11-29 02:46:13'
p4
s.(dp0
S'Text'
p1
S'put.io android app is now available at https://t.co/xqd0fun7n1 repository. https://t.co/wxazof1yej'
p2
sS'Created At'
p3
S'2015-11-29 02:46:14'
p4
s.(dp0
S'Text'
p1
S'11 actionable ways to increase android app and ios app downloads: complete guide on app promotion by @shane_barker https://t.co/ufucf7om3s'
p2
sS'Created At'
p3
S'2015-11-29 02:46:16'
p4
s.(dp0
S'Text'
p1
S"listen to ' zion antoni (@ariblack16) - hunded ' on your android https://t.co/iqhl0iixec\ntunein player @ https://t.co/prgoxohh6j"
p2
sS'Created At'
p3
S'2015-11-29 02:46:17'
p4
s.(dp0
S'Text'
p1
S"now playing #summertimeshootout by @myfabolouslife via @datpiff's android app https://t.co/m2debmtfeg https://t.co/bgb9g7ryrz"
p2
sS'Created At'
p3
S'2015-11-29 02:46:18'
p4
s.(dp0
S'Text'
p1
S'#create https://t.co/o8f7kz4nry e_and_t_beauty luv4luv ukg vol.1 mixed by djpyro android https://t.co/hzhl8ujnku\xe2\x80\xa6 https://t.co/kgihftm0rc'
p2
sS'Created At'
p3
S'2015-11-29 02:46:21'
p4
s.(dp0
S'Text'
p1
S'#10billionwives \ni married86,741,339,086,523wives!\n\nios: https://t.co/gevbogn3ur\nandroid: https://t.co/qn9fxfwaby https://t.co/gdltusmtat'
p2
sS'Created At'
p3
S'2015-11-29 02:46:21'
p4
s.(dp0
S'Text'
p1
S'highly considering going back to an android just for the free music.'
p2
sS'Created At'
p3
S'2015-11-29 02:46:23'
p4
s.(dp0
S'Text'
p1
S'help the smurfs build a village to call home! play on ios and android. @beelinegames #smurfsvillage https://t.co/kdfsvqf0hj'
p2
sS'Created At'
p3
S'2015-11-29 02:46:24'
p4
s.(dp0
S'Text'
p1
S"i've finished the visit baron de albert's castle quest! are you able to fulfil the same task? https://t.co/sdgxxdjcwc #android,#androi..."
p2
sS'Created At'
p3
S'2015-11-29 02:46:24'
p4
s.(dp0
S'Text'
p1
S'get #wildwallet on android - https://t.co/mvfrgnzr6r to earn amazing rewards for trying free apps. use code 2335482 for 200 bonus credits!h'
p2
sS'Created At'
p3
S'2015-11-29 02:46:32'
p4
s.(dp0
S'Text'
p1
S"i'm now a c-list celebrity in kim kardashian: hollywood. you can be famous too by playing on android! https://t.co/hdzmk4cjd4"
p2
sS'Created At'
p3
S'2015-11-29 02:46:40'
p4
s.(dp0
S'Text'
p1
S'@pizzar0ll why he got an android ..... .....'
p2
sS'Created At'
p3
S'2015-11-29 02:46:41'
p4
s.(dp0
S'Text'
p1
S'https://t.co/rzpe4znvkq #0417 ibuffalo iphone android smartphone and ps4 winding usb cable black bsmpc07u75bk https://t.co/ubygdaigx1'
p2
sS'Created At'
p3
S'2015-11-29 02:46:42'
p4
s.(dp0
S'Text'
p1
S'i liked a @youtube video from @cocopuffshd https://t.co/lheovljey2 fifa 15 ios/android | how to make easy coins on ultimate team |'
p2
sS'Created At'
p3
S'2015-11-29 02:46:44'
p4
s.(dp0
S'Text'
p1
S'get #wildwallet on android - https://t.co/zrjs9jgh7c to earn amazing rewards for trying free apps. use code 2294376 for 200 bonus credits!'
p2
sS'Created At'
p3
S'2015-11-29 02:46:46'
p4
s.(dp0
S'Text'
p1
S'help the smurfs build a village to call home! play on ios and android. @beelinegames #smurfsvillage https://t.co/xvfvemqctk'
p2
sS'Created At'
p3
S'2015-11-29 02:46:46'
p4
s.(dp0
S'Text'
p1
S"i'm earning #mplusrewards in family feud 2 android. https://t.co/ulwvngnuzn"
p2
sS'Created At'
p3
S'2015-11-29 02:46:50'
p4
s.(dp0
S'Text'
p1
S'how to hack a webcam on a  android phone kali linux: android (operating system),gnu/linux (operating system),h... https://t.co/1gpprsrc3h'
p2
sS'Created At'
p3
S'2015-11-29 02:46:52'
p4
s.(dp0
S'Text'
p1
S"@nimphina jfc if used iphone 6's become hard to find in the future i'm switching to android. i don't want special headphones just 4 my phone"
p2
sS'Created At'
p3
S'2015-11-29 02:46:52'
p4
s.(dp0
S'Text'
p1
S"i'm earning #mplusrewards in da daily compliment android. https://t.co/tah0aey7ho"
p2
sS'Created At'
p3
S'2015-11-29 02:46:54'
p4
s.(dp0
S'Text'
p1
S'here are our samsung galaxy s6 and nexus 6p contest winners! https://t.co/ts9au9jzpy'
p2
sS'Created At'
p3
S'2015-11-29 02:46:56'
p4
s.(dp0
S'Text'
p1
S"i'm earning #mplusrewards in what's the phrase android. https://t.co/jv3abg40iy"
p2
sS'Created At'
p3
S'2015-11-29 02:46:58'
p4
s.(dp0
S'Text'
p1
S"i'm earning #mplusrewards in tap da cookie android. https://t.co/vplq1fymbm"
p2
sS'Created At'
p3
S'2015-11-29 02:46:58'
p4
s.(dp0
S'Text'
p1
S'n from greaterlondon https://t.co/5m0g9t0lav \n\n#greaterlondon  #android #laptop #socialnetwork'
p2
sS'Created At'
p3
S'2015-11-29 02:47:00'
p4
s.(dp0
S'Text'
p1
S"i'm now a d-list celebrity in kim kardashian: hollywood. you can be famous too by playing on android! https://t.co/mehtydqrql"
p2
sS'Created At'
p3
S'2015-11-29 02:47:02'
p4
s.(dp0
S'Text'
p1
S"i'm earning #mplusrewards in da daily compliment android. https://t.co/8qbkregtpo"
p2
sS'Created At'
p3
S'2015-11-29 02:47:03'
p4
s.(dp0
S'Text'
p1
S"i'm earning #mplusrewards in trailer addict (android). https://t.co/8fjxjadqw5"
p2
sS'Created At'
p3
S'2015-11-29 02:47:16'
p4
s.(dp0
S'Text'
p1
S"expensify founder: please don't call us 'cock https://t.co/yx7fybvudn #app #hot #trending #news #startups #howto #diy #android #howto #apps"
p2
sS'Created At'
p3
S'2015-11-29 02:47:21'
p4
s.(dp0
S'Text'
p1
S"i'm earning #mplusrewards in tap da cookie android. https://t.co/nuwobwving"
p2
sS'Created At'
p3
S'2015-11-29 02:47:22'
p4
s.(dp0
S'Text'
p1
S'10 muddle apps parce que your in style android listen in!: xfcnvf'
p2
sS'Created At'
p3
S'2015-11-29 02:47:25'
p4
s.(dp0
S'Text'
p1
S"i'm earning #mplusrewards in punchcard for android. https://t.co/w6baduyn6f @mypunchcard"
p2
sS'Created At'
p3
S'2015-11-29 02:47:26'
p4
s.(dp0
S'Text'
p1
S"@lyft you can't delete or update @paypal in the android app unless you add another payment method. i guess on ios you can do it. :-("
p2
sS'Created At'
p3
S'2015-11-29 02:47:27'
p4
s.(dp0
S'Text'
p1
S"i'm earning #mplusrewards in name da state android. https://t.co/vyct8aumao"
p2
sS'Created At'
p3
S'2015-11-29 02:47:28'
p4
s.(dp0
S'Text'
p1
S'#blackfriday: irulu 7 inch kids tablet, gms certified by google, android 4.4 kitkat, pink https://t.co/4js3pgmjzd \xe2\x80\xa6 https://t.co/ocr7rlif10'
p2
sS'Created At'
p3
S'2015-11-29 02:47:29'
p4
s.(dp0
S'Text'
p1
S"i'm earning #mplusrewards in puff da fish android. https://t.co/ugv0kpnb7j"
p2
sS'Created At'
p3
S'2015-11-29 02:47:29'
p4
s.(dp0
S'Text'
p1
S'#googleplay android app crash, fatal exception: java.lang.nullpointerexception at and... https://t.co/lkct9x1nzk - https://t.co/1ya1f1rwkj'
p2
sS'Created At'
p3
S'2015-11-29 02:47:30'
p4
s.(dp0
S'Text'
p1
S"i'm earning #mplusrewards in flip da coin android. https://t.co/lebv1kvlhi"
p2
sS'Created At'
p3
S'2015-11-29 02:47:32'
p4
s.(dp0
S'Text'
p1
S'boss fight and a nice combo in one finger death punch! #android #youtubegaming #onefingerdeathpunch #new https://t.co/jxirvjgimj'
p2
sS'Created At'
p3
S'2015-11-29 02:47:33'
p4
s.(dp0
S'Text'
p1
S'i need your help on this level of #whatsthepic! play on ios or android: https://t.co/2i2lypf2dh https://t.co/qbhhzfdnr5'
p2
sS'Created At'
p3
S'2015-11-29 02:47:33'
p4
s.(dp0
S'Text'
p1
S"mlb's jose reyes \xe2\x80\x94 pleads not guilty \xe2\x80\xa6 i didn't att https://t.co/swjfocojjn #trending #news #startups #howto #diy #android #howto #apps"
p2
sS'Created At'
p3
S'2015-11-29 02:47:34'
p4
s.(dp0
S'Text'
p1
S"i'm earning #mplusrewards in swap da gem android. https://t.co/mmwpzrb3ml"
p2
sS'Created At'
p3
S'2015-11-29 02:47:36'
p4
s.(dp0
S'Text'
p1
S'johnny strange \xe2\x80\x94 famed adventurer dies at age 23 \xe2\x80\xa6w https://t.co/nnbjhq86xm #trending #news #startups #howto #diy #android #howto #apps'
p2
sS'Created At'
p3
S'2015-11-29 02:47:37'
p4
s.(dp0
S'Text'
p1
S'hot in /r/android: nvidia shield tablet x1 scores 134000 in antutu benchmark https://t.co/iiqgr1hick'
p2
sS'Created At'
p3
S'2015-11-29 02:47:41'
p4
s.(dp0
S'Text'
p1
S'"the app is available on ios. android users will have to wait." \nfuck yooouuuuu.'
p2
sS'Created At'
p3
S'2015-11-29 02:47:42'
p4
s.(dp0
S'Text'
p1
S'latest android phone in the market is samsung behold ii -  https://t.co/noyowphno0'
p2
sS'Created At'
p3
S'2015-11-29 02:47:43'
p4
s.(dp0
S'Text'
p1
S"@xoo_nicolee android ms don't count"
p2
sS'Created At'
p3
S'2015-11-29 02:47:43'
p4
s.(dp0
S'Text'
p1
S'check out my photo of #clumsyninja for android! try it for free! https://t.co/75ellhqxgv https://t.co/jypmlgnig0'
p2
sS'Created At'
p3
S'2015-11-29 02:47:43'
p4
s.(dp0
S'Text'
p1
S'nein gag ftw https://t.co/baw4c6wnw7'
p2
sS'Created At'
p3
S'2015-11-29 02:47:46'
p4
s.(dp0
S'Text'
p1
S"49 of my followings haven't tweeted in the last 5 days! #twstats for android https://t.co/fm2nkekjp5"
p2
sS'Created At'
p3
S'2015-11-29 02:47:46'
p4
s.(dp0
S'Text'
p1
S'electro #deals : https://t.co/gd6lots10w new pioneer fhx720bt in-dash cd/mp3/iphone/android bluetooth car stereo r\xe2\x80\xa6 https://t.co/xyzk994sim'
p2
sS'Created At'
p3
S'2015-11-29 02:47:46'
p4
s.(dp0
S'Text'
p1
S'@iloveitashley i got an android \xf0\x9f\x98\xad\xf0\x9f\x98\xad\xf0\x9f\x98\xad\xf0\x9f\x98\xad'
p2
sS'Created At'
p3
S'2015-11-29 02:47:49'
p4
s.(dp0
S'Text'
p1
S'check out the "ultimate holiday tech gift guide 2015 \xe2\x80\x93 2016" tons of #android and tech gift ideas https://t.co/iki6mgcqcc #christmas #xmas'
p2
sS'Created At'
p3
S'2015-11-29 02:47:53'
p4
s.(dp0
S'Text'
p1
S'enter to win "the great android holiday giveaway" from https://t.co/vg2ibn1im0 https://t.co/jlcc4i6kag ,  over 25 #android prizes to be won!'
p2
sS'Created At'
p3
S'2015-11-29 02:47:53'
p4
s.(dp0
S'Text'
p1
S'note 5 firmware port to s6 merges some marshmallow features from recent leak: submitted by  b... https://t.co/xqucowbexo #reddit #android'
p2
sS'Created At'
p3
S'2015-11-29 02:47:53'
p4
s.(dp0
S'Text'
p1
S'the trustzone vulnerability that unlocked the motorola droid turbo: submitted by  cunninglogi... https://t.co/nit2bu3zhl #reddit #android'
p2
sS'Created At'
p3
S'2015-11-29 02:47:53'
p4
s.(dp0
S'Text'
p1
S'iphone  https://t.co/6b77gckvib'
p2
sS'Created At'
p3
S'2015-11-29 02:47:53'
p4
s.(dp0
S'Text'
p1
S'download #joyrewards ! earn money &amp; gift cards for trying android apps. get 200 extra coins by promo code 2329602 - https://t.co/1cczboeute'
p2
sS'Created At'
p3
S'2015-11-29 02:47:54'
p4
s.(dp0
S'Text'
p1
S'the best game of 2015? https://t.co/aatclsdmjd #videogames'
p2
sS'Created At'
p3
S'2015-11-29 02:48:00'
p4
s.(dp0
S'Text'
p1
S"i'm earning #mplusrewards in flip da coin android. https://t.co/nzjtzmjdun"
p2
sS'Created At'
p3
S'2015-11-29 02:48:01'
p4
s.(dp0
S'Text'
p1
S'#tablets lenovo yoga tablet 10 16gb, wi-fi, 10.1in - silver:  $104.75 (0 bids)end date: saturday nov-... https://t.co/0jeaztd5wf #android'
p2
sS'Created At'
p3
S'2015-11-29 02:48:01'
p4
s.(dp0
S'Text'
p1
S'#tablets apple ipad 4th generation 16gb, wi-fi, 9.7in - black:  $179.00 (5 bids)end date: saturday no... https://t.co/wepopcor0s #android'
p2
sS'Created At'
p3
S'2015-11-29 02:48:01'
p4
s.(dp0
S'Text'
p1
S'7" irulu 16gb tablet pc google android 4.4 kitkat quad core dual cam w/ keyboard - bid now\xe2\x80\xa6 https://t.co/0qe2cfy0h3 https://t.co/dxwcytxyrb'
p2
sS'Created At'
p3
S'2015-11-29 02:48:01'
p4
s.(dp0
S'Text'
p1
S'irulu tablet 7" 8gb/1gb google android 4.4 quad core wifi w/ white keyboard - bid now! onl\xe2\x80\xa6 https://t.co/fzxtnpk3rc https://t.co/jb75rkgveg'
p2
sS'Created At'
p3
S'2015-11-29 02:48:02'
p4
s.(dp0
S'Text'
p1
S"i'm earning #mplusrewards in https://t.co/jg1mkr0w7r for android. https://t.co/t3zqp3znkq @dictionarycom"
p2
sS'Created At'
p3
S'2015-11-29 02:48:02'
p4
s.(dp0
S'Text'
p1
S'8gb irulu 7" android 4.4 a33 tablet pc quad core dual camera w/ black keyboard - bid now! \xe2\x80\xa6 https://t.co/rt8msckife https://t.co/egitj3c8dh'
p2
sS'Created At'
p3
S'2015-11-29 02:48:03'
p4
s.(dp0
S'Text'
p1
S'#oneclickroot: how-to safely #root #dell venue 8 hspa running #android 4.3 https://t.co/2pt2xeuusy'
p2
sS'Created At'
p3
S'2015-11-29 02:48:03'
p4
s.(dp0
S'Text'
p1
S'#oneclickroot: how-to safely #root #micromax a106 running #android 5.0 https://t.co/xmcabbqgwy'
p2
sS'Created At'
p3
S'2015-11-29 02:48:03'
p4
s.(dp0
S'Text'
p1
S'irulu 9" tablet pc 8gb google android 4.4 kitkat quad core bluetooth w/ keyboard - bid now\xe2\x80\xa6 https://t.co/oh1thm2ymp https://t.co/ouhxxpc8kt'
p2
sS'Created At'
p3
S'2015-11-29 02:48:03'
p4
s.(dp0
S'Text'
p1
S'#oneclickroot: how-to safely #root #samsung gt-i9195 (build: kot49h\xe2\x80\xa4i9195xxucnh5) running #android 4.4.2 https://t.co/g1qpuvidxc'
p2
sS'Created At'
p3
S'2015-11-29 02:48:03'
p4
s.(dp0
S'Text'
p1
S"i'm now a d-list celebrity in kim kardashian: hollywood. you can be famous too by playing on android! https://t.co/zoq3efjgfm"
p2
sS'Created At'
p3
S'2015-11-29 02:48:04'
p4
s.(dp0
S'Text'
p1
S'irulu 7" 16gb tablet pc google android 4.2 dual core dual camera 1.5ghz wifi - bid now! on\xe2\x80\xa6 https://t.co/5jsimucoje https://t.co/ed9pnaypn7'
p2
sS'Created At'
p3
S'2015-11-29 02:48:04'
p4
s.(dp0
S'Text'
p1
S'#download apps android nokia 5233 https://t.co/4kotpmjdxh'
p2
sS'Created At'
p3
S'2015-11-29 02:48:04'
p4
s.(dp0
S'Text'
p1
S'daily deals usa : motorola xt1080m droid maxx 32gb verizon wireless android wifi black smartphone https://t.co/g5pdkj8hfu #9661'
p2
sS'Created At'
p3
S'2015-11-29 02:48:05'
p4
s.(dp0
S'Text'
p1
S"i'm earning #mplusrewards in da daily insult android. https://t.co/dcezuvtkv8"
p2
sS'Created At'
p3
S'2015-11-29 02:48:05'
p4
s.(dp0
S'Text'
p1
S"i'm earning #mplusrewards in guess da number android. https://t.co/nut1zqahg7"
p2
sS'Created At'
p3
S'2015-11-29 02:48:06'
p4
s.(dp0
S'Text'
p1
S'#nowplaying a june &amp; j beat - never give up (feat. substantial) #link6 ios &amp; android app , visit to https://t.co/fomtgzgtxy'
p2
sS'Created At'
p3
S'2015-11-29 02:48:06'
p4
s.(dp0
S'Text'
p1
S"now playing maine diddy's #4thestreetz via @datpiff's android app https://t.co/y1msqqnlw3 https://t.co/g6pxnyquoq"
p2
sS'Created At'
p3
S'2015-11-29 02:48:06'
p4
s.(dp0
S'Text'
p1
S'update galaxy a5 (sm-a500fu) a500fuxxu1boi1 android 5.0.2 |best tech reviews https://t.co/kiil38oy8a via @haroonaejaz'
p2
sS'Created At'
p3
S'2015-11-29 02:48:07'
p4
s.(dp0
S'Text'
p1
S'daily deals usa : motorola xt1080m droid maxx 32gb verizon wireless android wifi black smartphone https://t.co/g5pdkj8hfu #4115'
p2
sS'Created At'
p3
S'2015-11-29 02:48:08'
p4
s.(dp0
S'Text'
p1
S"i'm earning #mplusrewards in punchcard for android. https://t.co/gdf6ayyny9 @mypunchcard"
p2
sS'Created At'
p3
S'2015-11-29 02:48:08'
p4
s.(dp0
S'Text'
p1
S'2.4g wireless remote control keyboard air mouse for xbmc android tv box https://t.co/oiqjhjtl1s https://t.co/bddftz9fm4'
p2
sS'Created At'
p3
S'2015-11-29 02:48:10'
p4
s.(dp0
S'Text'
p1
S"it's time for google to kill android one by @ewan on @forbes https://t.co/gfvmglbvwi https://t.co/72820rkhli"
p2
sS'Created At'
p3
S'2015-11-29 02:48:11'
p4
s.(dp0
S'Text'
p1
S'https://t.co/ofni6yy9j7 is for sale on @flippa! https://t.co/lmxipdg3sm #flippa #flippawebsitesale'
p2
sS'Created At'
p3
S'2015-11-29 02:48:15'
p4
s.(dp0
S'Text'
p1
S'autoswitch android app is now available at https://t.co/xqd0fun7n1 repository. https://t.co/66uh4zrubn'
p2
sS'Created At'
p3
S'2015-11-29 02:48:16'
p4
s.(dp0
S'Text'
p1
S"don't freak out when a smartphone app asks for permission https://t.co/tplkbcwpyk #mobileapps, #freeapps, #newapp #iphone #android"
p2
sS'Created At'
p3
S'2015-11-29 02:48:18'
p4
s.(dp0
S'Text'
p1
S'#amazon #bestsellers in #android #appstore\ngrab now before the deal expires https://t.co/uvjrgj9sjb'
p2
sS'Created At'
p3
S'2015-11-29 02:48:19'
p4
s.(dp0
S'Text'
p1
S'a 7-year-old crushed the australian national anthem whi https://t.co/hzphw5cei9 #trending #news #startups #howto #diy #android #howto #apps'
p2
sS'Created At'
p3
S'2015-11-29 02:48:24'
p4
s.(dp0
S'Text'
p1
S'how to run any android app on chromebooks https://t.co/zdrvp022ku #androidapps #chromebooks #googleandroidapps #googlechrome'
p2
sS'Created At'
p3
S'2015-11-29 02:48:27'
p4
s.(dp0
S'Text'
p1
S'a simple maths quiz android app is now available at https://t.co/xqd0fun7n1 repository. https://t.co/nedwyjckmz'
p2
sS'Created At'
p3
S'2015-11-29 02:48:30'
p4
s.(dp0
S'Text'
p1
S"i'm earning #mplusrewards in punchcard for android. https://t.co/7cohlmalw3 @mypunchcard"
p2
sS'Created At'
p3
S'2015-11-29 02:48:31'
p4
s.(dp0
S'Text'
p1
S'daily deals usa : motorola xt1080m droid maxx 32gb verizon wireless android wifi black smartphone https://t.co/g5pdkj8hfu #9422'
p2
sS'Created At'
p3
S'2015-11-29 02:48:33'
p4
s.(dp0
S'Text'
p1
S"i'm earning #mplusrewards in office jerk - android. https://t.co/yvturdxtfx"
p2
sS'Created At'
p3
S'2015-11-29 02:48:38'
p4
s.(dp0
S'Text'
p1
S'maths quiz on the move android app is now available at https://t.co/xqd0fun7n1 repository. https://t.co/kheon9fhqz'
p2
sS'Created At'
p3
S'2015-11-29 02:48:39'
p4
s.(dp0
S'Text'
p1
S'a google tv commercial starring fluffy animals has become t https://t.co/1two1m1g7b #apps #news #startups #howto #diy #android #howto #apps'
p2
sS'Created At'
p3
S'2015-11-29 02:48:40'
p4
s.(dp0
S'Text'
p1
S'blackberry should have come out with an android a long time ago!'
p2
sS'Created At'
p3
S'2015-11-29 02:48:40'
p4
s.(dp0
S'Text'
p1
S'get #wildwallet on android - https://t.co/bd43si4sua to earn amazing rewards for trying free apps. use code 2335640 for 200 bonus credits!'
p2
sS'Created At'
p3
S'2015-11-29 02:48:40'
p4
s.(dp0
S'Text'
p1
S'line cookie run apk 3.3.0: download line cookie run 3.3.0 apk for android - good morning everyone. first i wil... https://t.co/ezmh5vkhmg'
p2
sS'Created At'
p3
S'2015-11-29 02:48:42'
p4
s.(dp0
S'Text'
p1
S'cooking fever 1.5.1 apk: cooking fever 1.5.1 apk for android - now we will share about new update game that is... https://t.co/ts3tncqtgc'
p2
sS'Created At'
p3
S'2015-11-29 02:48:42'
p4
s.(dp0
S'Text'
p1
S"i'm earning #mplusrewards in light da fuse android. https://t.co/txpbpekp88"
p2
sS'Created At'
p3
S'2015-11-29 02:48:44'
p4
s.(dp0
S'Text'
p1
S'#10billionwives \ni married2,333,484,530,287,012wives!\n\nios: https://t.co/oxjw3u4syn\nandroid: https://t.co/dwgdkr9ccj https://t.co/way3szz83n'
p2
sS'Created At'
p3
S'2015-11-29 02:48:45'
p4
s.(dp0
S'Text'
p1
S"i've finished the a home for the ladies-in-waiting quest! are you able to fulfil the same task? https://t.co/nffgkxzjml #android,#andr..."
p2
sS'Created At'
p3
S'2015-11-29 02:48:47'
p4
s.(dp0
S'Text'
p1
S'#top3apps for #bailonakiligsunday\n\ntwitter for android 65%\ntwitter for iphone 19%\ntwitter web client 7%'
p2
sS'Created At'
p3
S'2015-11-29 02:48:49'
p4
s.(dp0
S'Text'
p1
S'problems of having an android lol fr i never get text https://t.co/86g38iwyqi'
p2
sS'Created At'
p3
S'2015-11-29 02:48:51'
p4
s.(dp0
S'Text'
p1
S'newstyle samsung galaxy tab a 9.7 case \xe2\x80\x93 wireless bluetooth keyboard cover for galaxy tab a\xe2\x80\xa6 https://t.co/sqnir7fx3a https://t.co/czduqlamy8'
p2
sS'Created At'
p3
S'2015-11-29 02:48:59'
p4
s.(dp0
S'Text'
p1
S'#smartwatch good s68 smart wrist watch #bluetooth phone mate for #android ios #iphone samsung lg https://t.co/ovpprgkbhh #smartwatches'
p2
sS'Created At'
p3
S'2015-11-29 02:49:03'
p4
s.(dp0
S'Text'
p1
S"i'm earning #mplusrewards in ask da ball android. https://t.co/akjbos3pzz"
p2
sS'Created At'
p3
S'2015-11-29 02:49:04'
p4
s.(dp0
S'Text'
p1
S'check out dbz android rocket crush #105 limited foil super 17 saga rare #scoreentertainment https://t.co/oirksqicib via @ebay'
p2
sS'Created At'
p3
S'2015-11-29 02:49:05'
p4
s.(dp0
S'Text'
p1
S'#smartwatches new s68 smart wrist watch #bluetooth phone mate for #android ios\xe2\x80\xa6 https://t.co/rfy7flc8vt #smartwatch https://t.co/gx3e63vywf'
p2
sS'Created At'
p3
S'2015-11-29 02:49:06'
p4
s.(dp0
S'Text'
p1
S'#tablets lenovo yoga tablet 10 16gb, wi-fi, 10.1in - silver:  $104.75 (0 bids)end date: saturday nov-... https://t.co/2lgxi7jsvt #android'
p2
sS'Created At'
p3
S'2015-11-29 02:49:08'
p4
s.(dp0
S'Text'
p1
S'#tablets apple ipad 4th generation 16gb, wi-fi, 9.7in - black:  $179.00 (5 bids)end date: saturday no... https://t.co/ehcvkbmq7l #android'
p2
sS'Created At'
p3
S'2015-11-29 02:49:09'
p4
s.(dp0
S'Text'
p1
S'5 lessons in content marketing from the big lebowski https://t.co/ps93cb3jgh via @slideshare'
p2
sS'Created At'
p3
S'2015-11-29 02:49:09'
p4
s.(dp0
S'Text'
p1
S"i'm earning #mplusrewards in guess da number android. https://t.co/n3b3mmxhrm"
p2
sS'Created At'
p3
S'2015-11-29 02:49:09'
p4
s.(dp0
S'Text'
p1
S'#oneclickroot: how-to safely #root #dell venue 8 hspa running #android 4.3 https://t.co/nphsc6jl4g'
p2
sS'Created At'
p3
S'2015-11-29 02:49:09'
p4
s.(dp0
S'Text'
p1
S'how to clear your android internet history: https://t.co/xgupl2ynrc via @youtube'
p2
sS'Created At'
p3
S'2015-11-29 02:49:10'
p4
s.(dp0
S'Text'
p1
S'#oneclickroot: how-to safely #root #micromax a106 running #android 5.0 https://t.co/alzpyfmeqe'
p2
sS'Created At'
p3
S'2015-11-29 02:49:10'
p4
s.(dp0
S'Text'
p1
S'#oneclickroot: how-to safely #root #samsung gt-i9195 (build: kot49h\xe2\x80\xa4i9195xxucnh5) running #android 4.4.2 https://t.co/bddxnzv6qj'
p2
sS'Created At'
p3
S'2015-11-29 02:49:10'
p4
s.(dp0
S'Text'
p1
S'iphone https://t.co/zztcvezqlu'
p2
sS'Created At'
p3
S'2015-11-29 02:49:10'
p4
s.(dp0
S'Text'
p1
S'so true man so true https://t.co/wujnm3dzsf'
p2
sS'Created At'
p3
S'2015-11-29 02:49:12'
p4
s.(dp0
S'Text'
p1
S"i'm using viber to make free phone calls and send free messages on my android phone https://t.co/sjf8xwzp0f"
p2
sS'Created At'
p3
S'2015-11-29 02:49:13'
p4
s.(dp0
S'Text'
p1
S'cogs hack: download cogs hack and cheat for android and ios. with this cheat you can generate unlimited resour... https://t.co/zmrvbxw3hp'
p2
sS'Created At'
p3
S'2015-11-29 02:49:13'
p4
s.(dp0
S'Text'
p1
S"i'm earning #mplusrewards in splat da bat android. https://t.co/dvcz2vusrg"
p2
sS'Created At'
p3
S'2015-11-29 02:49:14'
p4
s.(dp0
S'Text'
p1
S'a google tv commercial starring fluffy animals has become t https://t.co/u4vlggxthu #apps #news #startups #howto #diy #android #howto #apps'
p2
sS'Created At'
p3
S'2015-11-29 02:49:17'
p4
s.(dp0
S'Text'
p1
S'new #android #app: paperback https://t.co/uniry6zzts'
p2
sS'Created At'
p3
S'2015-11-29 02:49:25'
p4
s.(dp0
S'Text'
p1
S'what is twrp recovery &amp; how to install on android\xc2\xa0phones https://t.co/1cre8hkwof https://t.co/1iozuplody'
p2
sS'Created At'
p3
S'2015-11-29 02:49:26'
p4
s.(dp0
S'Text'
p1
S"vocaloid name was from 'vocal'and 'android' then vocaloid means virtual singer. #yukabot"
p2
sS'Created At'
p3
S'2015-11-29 02:49:28'
p4
s.(dp0
S'Text'
p1
S"i'm earning #mplusrewards in tap da cookie android. https://t.co/iugb9cf9gm"
p2
sS'Created At'
p3
S'2015-11-29 02:49:35'
p4
s.(dp0
S'Text'
p1
S"i'm playing my singing monsters. check it out! https://t.co/bposoewavj"
p2
sS'Created At'
p3
S'2015-11-29 02:49:35'
p4
s.(dp0
S'Text'
p1
S'#dell venue 8 8.0" hd tablet, 2gb ram, 32gb memory, android 4.2\xe2\x80\xa6 https://t.co/eqgggpggps on ebay #cybermonday https://t.co/rf6axwanhi'
p2
sS'Created At'
p3
S'2015-11-29 02:49:35'
p4
s.(dp0
S'Text'
p1
S'7" a33 google android 4.4 quad core dual camera 8gb tablet pc ... - https://t.co/l8b3beymtv | \n#androidtablet https://t.co/6gohx8v92z'
p2
sS'Created At'
p3
S'2015-11-29 02:49:35'
p4
s.(dp0
S'Text'
p1
S'using geak os, make android yours.\nhttps://t.co/orboqcuyy8'
p2
sS'Created At'
p3
S'2015-11-29 02:49:36'
p4
s.(dp0
S'Text'
p1
S"@catzoup i don't understand android bluetooth stack or its down (404) and it gives you a block of javascript."
p2
sS'Created At'
p3
S'2015-11-29 02:49:39'
p4
s.(dp0
S'Text'
p1
S'is it worth to upgrade to #android 60? #news #tech #science https://t.co/usexkmiugi'
p2
sS'Created At'
p3
S'2015-11-29 02:49:43'
p4
s.(dp0
S'Text'
p1
S'viber now lets you delete sent messages on both android and ios - tech times https://t.co/apsbwwafdh #ios'
p2
sS'Created At'
p3
S'2015-11-29 02:49:50'
p4
s.(dp0
S'Text'
p1
S'have 3 android chargers but never had an android\xf0\x9f\x98\x82'
p2
sS'Created At'
p3
S'2015-11-29 02:49:55'
p4
s.(dp0
S'Text'
p1
S'#iphone #apple deals https://t.co/lb6gzhyohm #6105 new black bluetooth wireless keyboard for windows android iphone https://t.co/dktp7p06d7'
p2
sS'Created At'
p3
S'2015-11-29 02:49:57'
p4
s.(dp0
S'Text'
p1
S'\xe2\x96\xba https://t.co/k5zument7z \xe2\x9d\xa4 [free] adult comic viewer (android)\xe2\x9d\xa4  #hentai #ecchi #anime #porn 383 https://t.co/oziqtnhpt6'
p2
sS'Created At'
p3
S'2015-11-29 02:49:58'
p4
s.(dp0
S'Text'
p1
S"now playing #noceilings2 by @liltunechi via @datpiff's android app https://t.co/pam9pn0lzs https://t.co/yyuwr1psb0"
p2
sS'Created At'
p3
S'2015-11-29 02:49:59'
p4
s.(dp0
S'Text'
p1
S'#oneclickroot: how-to safely #root #sony l36h (build: 10\xe2\x80\xa45\xe2\x80\xa41\xe2\x80\xa4a\xe2\x80\xa40\xe2\x80\xa4292) running #android 4.4.4 https://t.co/6anzfqnvyc'
p2
sS'Created At'
p3
S'2015-11-29 02:50:02'
p4
s.(dp0
S'Text'
p1
S'#oneclickroot: how-to safely #root #huawei u8818 running #android 2.3.6 https://t.co/jd19mlpxuf'
p2
sS'Created At'
p3
S'2015-11-29 02:50:02'
p4
s.(dp0
S'Text'
p1
S'@marcellin64000 have you already downloaded the new game pok\xc3\xa9mon android? poketrivia enjoy! download it here: https://t.co/kt6louzz0n'
p2
sS'Created At'
p3
S'2015-11-29 02:50:03'
p4
s.(dp0
S'Text'
p1
S"i'm earning #mplusrewards in roll da dice android. https://t.co/qyqfgsxoak"
p2
sS'Created At'
p3
S'2015-11-29 02:50:04'
p4
s.(dp0
S'Text'
p1
S'lifesum android app is now available at https://t.co/xqd0fun7n1 repository. https://t.co/fzvwv657k7'
p2
sS'Created At'
p3
S'2015-11-29 02:50:04'
p4
s.(dp0
S'Text'
p1
S'kids animal jigsaw puzzles - android gameplay ... https://t.co/zqls9vwagj'
p2
sS'Created At'
p3
S'2015-11-29 02:50:05'
p4
s.(dp0
S'Text'
p1
S'google will donate $1 to special ed for every android p https://t.co/ct2w0iri3k #trending #news #startups #howto #diy #android #howto #apps'
p2
sS'Created At'
p3
S'2015-11-29 02:50:05'
p4
s.(dp0
S'Text'
p1
S"i'm earning #mplusrewards in guess da number android. https://t.co/j6upp8dd3c"
p2
sS'Created At'
p3
S'2015-11-29 02:50:07'
p4
s.(dp0
S'Text'
p1
S'adrian laurenzi walks us through using google maps and mapbox in android apps, in about 30min: https://t.co/slmexywhvw'
p2
sS'Created At'
p3
S'2015-11-29 02:50:15'
p4
s.(dp0
S'Text'
p1
S'#iphone #apple deals https://t.co/icyogloypt #0203 #4140 u8 bluetooth smart wrist watch phone mate for android... https://t.co/pljvr1cc36'
p2
sS'Created At'
p3
S'2015-11-29 02:50:15'
p4
s.(dp0
S'Text'
p1
S"i'm now an e-list celebrity in kim kardashian: hollywood. you can be famous too by playing on android! https://t.co/uq8debue4t"
p2
sS'Created At'
p3
S'2015-11-29 02:50:15'
p4
s.(dp0
S'Text'
p1
S'kids games android app is now available at https://t.co/xqd0fun7n1 repository. https://t.co/3vkclobye9'
p2
sS'Created At'
p3
S'2015-11-29 02:50:17'
p4
s.(dp0
S'Text'
p1
S'nein gag ftw https://t.co/qzygzna0dp'
p2
sS'Created At'
p3
S'2015-11-29 02:50:18'
p4
s.(dp0
S'Text'
p1
S'planned parenthood gunman lived in nc woods with no electricity, running water https://t.co/gwkajqijnt via the @foxnews android app'
p2
sS'Created At'
p3
S'2015-11-29 02:50:18'
p4
s.(dp0
S'Text'
p1
S'instagram beta tests multi-account switching on android - follow the link after sign up to get your free issue. offer valid for new app ...'
p2
sS'Created At'
p3
S'2015-11-29 02:50:18'
p4
s.(dp0
S'Text'
p1
S'mccroster android app is now available at https://t.co/xqd0fun7n1 repository. https://t.co/hy1y3osuop'
p2
sS'Created At'
p3
S'2015-11-29 02:50:22'
p4
s.(dp0
S'Text'
p1
S'dress up games- baby games android app is now available at https://t.co/xqd0fun7n1 repository. https://t.co/q0saxlkxpg'
p2
sS'Created At'
p3
S'2015-11-29 02:50:24'
p4
s.(dp0
S'Text'
p1
S'vincentaditya8: enter to win "the great android holiday giveaway" from https://t.co/4zabalonhd https://t.co/msw82bamzi ,  over 25 #androi\xe2\x80\xa6'
p2
sS'Created At'
p3
S'2015-11-29 02:50:24'
p4
s.(dp0
S'Text'
p1
S'city sniper shooter android shooting thrill game https://t.co/oxugczkt04'
p2
sS'Created At'
p3
S'2015-11-29 02:50:27'
p4
s.(dp0
S'Text'
p1
S"look at this shit man \xf0\x9f\x98\xa9 i'm getting an android https://t.co/lq4bds2sj1"
p2
sS'Created At'
p3
S'2015-11-29 02:50:28'
p4
s.(dp0
S'Text'
p1
S'instagram is testing support for multiple accounts on android https://t.co/spauykillf https://t.co/fgb3i1vxaf'
p2
sS'Created At'
p3
S'2015-11-29 02:50:29'
p4
s.(dp0
S'Text'
p1
S'live #flight schedules, status for #australia airports on your #android #ausflight https://t.co/ij50yh6iyj'
p2
sS'Created At'
p3
S'2015-11-29 02:50:33'
p4
s.(dp0
S'Text'
p1
S'look &amp; cookdi kinetic art ltd. classifica vendite in app-shop per android: 24 (mai entrato in... https://t.co/jl5bcqw0eh'
p2
sS'Created At'
p3
S'2015-11-29 02:50:37'
p4
s.(dp0
S'Text'
p1
S'yemeksepeti android app is now available at https://t.co/xqd0fun7n1 repository. https://t.co/gpby5sd32t'
p2
sS'Created At'
p3
S'2015-11-29 02:50:38'
p4
s.(dp0
S'Text'
p1
S'download #joyrewards ! earn money &amp; gift cards for trying android apps. get 200 extra coins by promo code 2232825 - https://t.co/akcjdzbm36'
p2
sS'Created At'
p3
S'2015-11-29 02:50:42'
p4
s.(dp0
S'Text'
p1
S'a 2012 ram ram pickup 1500 was just scanned https://t.co/aczacnvx3d #android #ios #vinnychallenge'
p2
sS'Created At'
p3
S'2015-11-29 02:50:42'
p4
s.(dp0
S'Text'
p1
S'fan gifted a signed guitar https://t.co/crfkxrorra'
p2
sS'Created At'
p3
S'2015-11-29 02:50:43'
p4
s.(dp0
S'Text'
p1
S"i'm earning #mplusrewards in light da fuse android. https://t.co/eruw6j3rrb"
p2
sS'Created At'
p3
S'2015-11-29 02:50:47'
p4
s.(dp0
S'Text'
p1
S'sci-fi epic shooting game. download for wp8 https://t.co/6megqlp518 ios https://t.co/rxmvwo417h android https://t.co/xbkgedgxd8'
p2
sS'Created At'
p3
S'2015-11-29 02:50:48'
p4
s.(dp0
S'Text'
p1
S'10 tech buzzwords and how to explain them to your exten https://t.co/tffi4x21c6 #trending #news #startups #howto #diy #android #howto #apps'
p2
sS'Created At'
p3
S'2015-11-29 02:50:51'
p4
s.(dp0
S'Text'
p1
S'#10billionwives \ni married452,659,954,514,759wives!\n\nios: https://t.co/omlck1mmfu\nandroid: https://t.co/7wdbiyqsgg https://t.co/3cjkw8cxcr'
p2
sS'Created At'
p3
S'2015-11-29 02:50:53'
p4
s.(dp0
S'Text'
p1
S'the almighty buddyman shares his superpowers with you!  https://t.co/ctgedv27mf https://t.co/uqovjdnsgc'
p2
sS'Created At'
p3
S'2015-11-29 02:50:54'
p4
s.(dp0
S'Text'
p1
S'recommend #virtualtabletennis. iphone:https://t.co/xi3jid3w7b android:https://t.co/fnddzjqffn https://t.co/t2uhzkpeq1'
p2
sS'Created At'
p3
S'2015-11-29 02:50:56'
p4
s.(dp0
S'Text'
p1
S'\xe2\x9d\xa4 [free] adult comic viewer (android)\xe2\x9d\xa4 app download \xe2\x96\xba https://t.co/t3jrdr9dk6   #hentai #ecchi #anime #porn1021 https://t.co/tedfdob348'
p2
sS'Created At'
p3
S'2015-11-29 02:50:56'
p4
s.(dp0
S'Text'
p1
S'i just crammed 379 photos and saved 988 mb with #cramapp. try free today: https://t.co/jsfvs3qlwz #android #ios #mobile'
p2
sS'Created At'
p3
S'2015-11-29 02:50:58'
p4
s.(dp0
S'Text'
p1
S"i'm earning #mplusrewards in guess da number android. https://t.co/5hgph5yzge"
p2
sS'Created At'
p3
S'2015-11-29 02:50:59'
p4
s.(dp0
S'Text'
p1
S'i managed to finish the studying the anomaly assignment! try it for yourself! https://t.co/rxxdpco22m #gameinsight #android'
p2
sS'Created At'
p3
S'2015-11-29 02:51:00'
p4
s.(dp0
S'Text'
p1
S'robert from rockford https://t.co/gyf3ybhcew \n\n#rockford  #datehotmen #mobile #android'
p2
sS'Created At'
p3
S'2015-11-29 02:51:00'
p4
s.(dp0
S'Text'
p1
S'see who viewed your instagram profile recently with instaview iphone and android app.. @instaviewapps: https://t.co/t8ao8kapmj'
p2
sS'Created At'
p3
S'2015-11-29 02:51:02'
p4
s.(dp0
S'Text'
p1
S'@khalessi246 @the_gxdess @thekaryshow ios no android yes'
p2
sS'Created At'
p3
S'2015-11-29 02:51:07'
p4
s.(dp0
S'Text'
p1
S"i'm earning #mplusrewards in da daily compliment android. https://t.co/suiwkxmgkd"
p2
sS'Created At'
p3
S'2015-11-29 02:51:11'
p4
s.(dp0
S'Text'
p1
S"i'm earning #mplusrewards in roll da dice android. https://t.co/smbndoqiba"
p2
sS'Created At'
p3
S'2015-11-29 02:51:12'
p4
s.(dp0
S'Text'
p1
S'i need your help on this level of #whatsthepic! play on ios or android: https://t.co/kgwffxe5px https://t.co/9b7dtgw5rh'
p2
sS'Created At'
p3
S'2015-11-29 02:51:12'
p4
s.(dp0
S'Text'
p1
S'\xe2\x80\x9ceren\xe2\x80\x9dbattery widget for android https://t.co/wreuwf24pz #attack_on_titan_battery yes https://t.co/ek5xtkk7zl'
p2
sS'Created At'
p3
S'2015-11-29 02:51:13'
p4
s.(dp0
S'Text'
p1
S'10 things android phones do better than the iphone https://t.co/ux8vv1ecye via @techrepublic'
p2
sS'Created At'
p3
S'2015-11-29 02:51:14'
p4
s.(dp0
S'Text'
p1
S'samsung galaxy s iii unlocked pebble blue 4.8" lcd 16gb 8mp android smartphone $146.00 via ebay https://t.co/ujacc3l1mp #samsung #rt'
p2
sS'Created At'
p3
S'2015-11-29 02:51:15'
p4
s.(dp0
S'Text'
p1
S'https://t.co/qwb8abvjuz: android wallpapers via https://t.co/qhijyz2f1j https://t.co/lfesh1zvzd'
p2
sS'Created At'
p3
S'2015-11-29 02:51:16'
p4
s.(dp0
S'Text'
p1
S'#android 6.0 #marshmallow tumbles #onto a plethora of #samsung devices in #dec.  https://t.co/3rvoji1seo . @android https://t.co/m5eefcqinc'
p2
sS'Created At'
p3
S'2015-11-29 02:51:20'
p4
s.(dp0
S'Text'
p1
S'@robinwoding android'
p2
sS'Created At'
p3
S'2015-11-29 02:51:21'
p4
s.(dp0
S'Text'
p1
S'yours android smartphone august remain leaking derogatory release: tdyj'
p2
sS'Created At'
p3
S'2015-11-29 02:51:21'
p4
s.(dp0
S'Text'
p1
S'having fun with #clumsyninja for android! join me now for free! https://t.co/keemjmcd0o'
p2
sS'Created At'
p3
S'2015-11-29 02:51:22'
p4
s.(dp0
S'Text'
p1
S'#android kids learn shapes hd https://t.co/2iyge7q2op    #usa   #disability #adhd #us #asd'
p2
sS'Created At'
p3
S'2015-11-29 02:51:24'
p4
s.(dp0
S'Text'
p1
S'how to fix your phone charger cord - cheap! {diy} works on iphone, ipad, android, tablets, ear buds, https://t.co/danrecb280'
p2
sS'Created At'
p3
S'2015-11-29 02:51:25'
p4
s.(dp0
S'Text'
p1
S'@scootcurious224 thanks for the follow.  please download bricksmart for android, nook, amazon and let us know what features you like.'
p2
sS'Created At'
p3
S'2015-11-29 02:51:26'
p4
s.(dp0
S'Text'
p1
S"i'm earning #mplusrewards in flip da coin android. https://t.co/9upxxgsnog"
p2
sS'Created At'
p3
S'2015-11-29 02:51:40'
p4
s.(dp0
S'Text'
p1
S'enter to win a google nexus 6p android smartphone @androidheadline #android #nexus #nexus6p https://t.co/34lpw33mhh'
p2
sS'Created At'
p3
S'2015-11-29 02:51:41'
p4
s.(dp0
S'Text'
p1
S'wifi for the iphone cheap ass android to make the calls nshit\xf0\x9f\x98\x82\xf0\x9f\x98\x82broke as shit\xf0\x9f\x99\x84\xf0\x9f\x99\x84bet though\xf0\x9f\xa4\x97see you soon https://t.co/jiwvjuikqb'
p2
sS'Created At'
p3
S'2015-11-29 02:51:42'
p4
s.(dp0
S'Text'
p1
S"i'm earning #mplusrewards in https://t.co/sq4lqbu0cs for android. https://t.co/yeyaa9zfc5 @dictionarycom"
p2
sS'Created At'
p3
S'2015-11-29 02:51:42'
p4
s.(dp0
S'Text'
p1
S"@ohxlalaaa @forevr_blushing i'm android too but it didn't work, its easier if you download dapiff app and download the mix from there."
p2
sS'Created At'
p3
S'2015-11-29 02:51:44'
p4
s.(dp0
S'Text'
p1
S'neutab\xc2\xae n7s pro 7 inch quad core google android 5.1 lollipop tablet pc 1gb ram 8gb nand flash 7" 17\xe2\x80\xa6 https://t.co/wfpe6twsz5'
p2
sS'Created At'
p3
S'2015-11-29 02:51:44'
p4
s.(dp0
S'Text'
p1
S'retweeted lg g4 (@my_lgphone):\n\nplease retweet android 6.0 marshmallow update release date for lg g4, g flex 2,... https://t.co/rufzsgnnpq'
p2
sS'Created At'
p3
S'2015-11-29 02:51:44'
p4
s.(dp0
S'Text'
p1
S'get the #android sport app from #bet365\n\nhttps://t.co/8ppkfnqtmg\n\n#bet365com #gamblingapp #bettingapp https://t.co/ejfoegup6d'
p2
sS'Created At'
p3
S'2015-11-29 02:51:44'
p4
s.(dp0
S'Text'
p1
S'casino app\n\ndownload the fantastic casino app for android iphone &amp; ipad! \n\nsign up at https://t.co/rlvneibqyh https://t.co/34ea4xgcvm'
p2
sS'Created At'
p3
S'2015-11-29 02:51:46'
p4
s.(dp0
S'Text'
p1
S'poker app free $5 deal\n\ndownload poker app for android, iphone &amp; the ipad! \n\nregister https://t.co/uio6perzjh https://t.co/p7xhjaznlh'
p2
sS'Created At'
p3
S'2015-11-29 02:51:47'
p4
s.(dp0
S'Text'
p1
S'asus chromebit review - the little chrome os dongle that could - android authority\xe2\x80\xa6 https://t.co/sde9ghpram #google'
p2
sS'Created At'
p3
S'2015-11-29 02:51:47'
p4
s.(dp0
S'Text'
p1
S'@pjshawtoyscom luv4luv ukg vol.1 mixed by @djpyro android https://t.co/9dbzz4sske / iphone https://t.co/quuayyhvvb https://t.co/4xnx9flomf'
p2
sS'Created At'
p3
S'2015-11-29 02:51:48'
p4
s.(dp0
S'Text'
p1
S'#10billionwives \ni married5,073,067,597,427,457wives!\n\nios: https://t.co/cn8zi5ppn4\nandroid: https://t.co/bc76izcg6c https://t.co/jbxvgmefox'
p2
sS'Created At'
p3
S'2015-11-29 02:51:54'
p4
s.(dp0
S'Text'
p1
S'found using "words of jesus each day" by @roboticode for #ios #android #kindle fire\n\nmatthew 26 : 63-64:\nhttps://t.co/flwuasbv3k'
p2
sS'Created At'
p3
S'2015-11-29 02:51:55'
p4
s.(dp0
S'Text'
p1
S'magic piano \xe2\x80\x93 have fun with this app for android https://t.co/k4ndyucfhp'
p2
sS'Created At'
p3
S'2015-11-29 02:51:56'
p4
s.(dp0
S'Text'
p1
S'sim spokeshave furnishings appositeness in that android mobiles until lateral pass reformed doper experiences: rwyqzb'
p2
sS'Created At'
p3
S'2015-11-29 02:51:58'
p4
s.(dp0
S'Text'
p1
S'struggle of transition from android phone to iphone is real. typo everywhere.'
p2
sS'Created At'
p3
S'2015-11-29 02:51:59'
p4
s.(dp0
S'Text'
p1
S"i'm earning #mplusrewards in bob da boat android. https://t.co/7kzlysupsp"
p2
sS'Created At'
p3
S'2015-11-29 02:51:59'
p4
s.(dp0
S'Text'
p1
S'i reached a new level: 6! help me save london from the horrors of the mirror world! https://t.co/rxxdpco22m #gameinsight #android'
p2
sS'Created At'
p3
S'2015-11-29 02:52:01'
p4
s.(dp0
S'Text'
p1
S'#oneclickroot: how-to safely #root #cellon bb8252 running #android 4.4.2 https://t.co/7ivb7w78bd'
p2
sS'Created At'
p3
S'2015-11-29 02:52:01'
p4
s.(dp0
S'Text'
p1
S'#oneclickroot: how-to safely #root #archos bush 7.85 tablet running #android 4.4.4 https://t.co/siarauaotk'
p2
sS'Created At'
p3
S'2015-11-29 02:52:02'
p4
s.(dp0
S'Text'
p1
S'#oneclickroot: how-to safely #root #samsung gt-p3100 (build: jro03c\xe2\x80\xa4p3100zccll2) running #android 4.1.1 https://t.co/37cyf9y6s7'
p2
sS'Created At'
p3
S'2015-11-29 02:52:02'
p4
s.(dp0
S'Text'
p1
S"i've finished the visit baron de albert's castle quest! are you able to fulfil the same task? https://t.co/amu0nm8tgu #android,#androi..."
p2
sS'Created At'
p3
S'2015-11-29 02:52:03'
p4
s.(dp0
S'Text'
p1
S'\xf0\x9f\x91\x8d\xf0\x9f\x91\x8d\xf0\x9f\x91\x8d#smartwatches new u8 #bluetooth smart wrist watch phone mate for #android;ios\xe2\x80\xa6 https://t.co/mgub7xodzj https://t.co/yrfbtxjkjv'
p2
sS'Created At'
p3
S'2015-11-29 02:52:05'
p4
s.(dp0
S'Text'
p1
S'#apk special forces group v1.0 apk \xe2\x80\x93 android games - https://t.co/rrpck2nxkf #android https://t.co/z4f9ugkvgh'
p2
sS'Created At'
p3
S'2015-11-29 02:52:07'
p4
s.(dp0
S'Text'
p1
S'i managed to finish the the fencer is as bad as the thief assignment! try it for yourself! https://t.co/rxxdpco22m #gameinsight #android'
p2
sS'Created At'
p3
S'2015-11-29 02:52:08'
p4
s.(dp0
S'Text'
p1
S'#10billionwives \ni married33,179,366,741,470wives!\n\nios: https://t.co/dp1kcsk7ia\nandroid: https://t.co/emryg9rwbl https://t.co/p6xletz9rd'
p2
sS'Created At'
p3
S'2015-11-29 02:52:10'
p4
s.(dp0
S'Text'
p1
S"i've finished the mansions for the first king quest! are you able to fulfil the same task? https://t.co/mb68w5zwvl #android,#androidga..."
p2
sS'Created At'
p3
S'2015-11-29 02:52:13'
p4
s.(dp0
S'Text'
p1
S'#nowplaying  "tommy boy" on netflix\nhttps://t.co/lji2epdyq4\nwatching it with my kid \xf0\x9f\x98\x8a'
p2
sS'Created At'
p3
S'2015-11-29 02:52:13'
p4
s.(dp0
S'Text'
p1
S'google reportedly wants to design its own android chips #makemoneyblogging #bloggermoney #freelancewriter https://t.co/xftobtbgbv'
p2
sS'Created At'
p3
S'2015-11-29 02:52:14'
p4
s.(dp0
S'Text'
p1
S"i'm earning #mplusrewards in light da fuse android. https://t.co/mcwrqkrexf"
p2
sS'Created At'
p3
S'2015-11-29 02:52:16'
p4
s.(dp0
S'Text'
p1
S'#top3apps for #bailonakiligsunday  twitter for android 65% twitter for iphone 19% twitter web client 7%'
p2
sS'Created At'
p3
S'2015-11-29 02:52:17'
p4
s.(dp0
S'Text'
p1
S"i'm earning #mplusrewards in da daily compliment android. https://t.co/fgvyihchju"
p2
sS'Created At'
p3
S'2015-11-29 02:52:17'
p4
s.(dp0
S'Text'
p1
S'magic piano \xe2\x80\x93 have fun with this app for android https://t.co/5ftuw3k8it'
p2
sS'Created At'
p3
S'2015-11-29 02:52:20'
p4
s.(dp0
S'Text'
p1
S"i'm earning #mplusrewards in roll da dice android. https://t.co/sejvevbk5r"
p2
sS'Created At'
p3
S'2015-11-29 02:52:22'
p4
s.(dp0
S'Text'
p1
S'#appstore #android #catlover #flawless simple #trade #system #stocks options traders $90+ .: make money regardles https://t.co/qfjwbkarf0'
p2
sS'Created At'
p3
S'2015-11-29 02:52:23'
p4
s.(dp0
S'Text'
p1
S"it's just the android devices with gps but it's not the same."
p2
sS'Created At'
p3
S'2015-11-29 02:52:24'
p4
s.(dp0
S'Text'
p1
S'nowplaying : pretty lights - rocksmysoul\n\ntune in https://t.co/opfsd3gfno\n #android app https://t.co/mfyw7heajd\n#peripouwebradio'
p2
sS'Created At'
p3
S'2015-11-29 02:52:24'
p4
s.(dp0
S'Text'
p1
S'pure android 4.4 car dvd player gps nav ea for jeep compass caliber 300c sebring https://t.co/7ci5lcsfjg https://t.co/x35c52ljri'
p2
sS'Created At'
p3
S'2015-11-29 02:52:28'
p4
s.(dp0
S'Text'
p1
S'my android fetish is out! https://t.co/sphhbryd1t stories via @ornerynana @vrooijen @chinahightech'
p2
sS'Created At'
p3
S'2015-11-29 02:52:29'
p4
s.(dp0
S'Text'
p1
S"i'm working on porting trackmenot, an app that obfuscates search queries in a sea of false ones, over to android and iphone..."
p2
sS'Created At'
p3
S'2015-11-29 02:52:29'
p4
s.(dp0
S'Text'
p1
S'prontotec 7&amp;quot; android 4.4 kitkat tab https://t.co/kxkrjyokgv #prontotec #7&amp;quot; #android # https://t.co/eexzb9aow5'
p2
sS'Created At'
p3
S'2015-11-29 02:52:29'
p4
s.(dp0
S'Text'
p1
S'retweeted tutto android (@tuttoandroid):\n\nandroid 6.0 marshmallow v20b pronto al download per lg g4... https://t.co/47k0od9jza'
p2
sS'Created At'
p3
S'2015-11-29 02:52:32'
p4
s.(dp0
S'Text'
p1
S"i'm playing the @reflexgamingltd app, available on android! https://t.co/uijfwlrl7x"
p2
sS'Created At'
p3
S'2015-11-29 02:52:33'
p4
s.(dp0
S'Text'
p1
S'checking in on windows 10 https://t.co/kjqcfrrvdv #developer #gadgets #tc #trending #news #startups #howto #diy #android #howto #apps'
p2
sS'Created At'
p3
S'2015-11-29 02:52:34'
p4
s.(dp0
S'Text'
p1
S'3798 join: https://t.co/xo1aoxoj2y hi #ass #asshole #anal #app #apps #android #adult #adults #apple #animal #about'
p2
sS'Created At'
p3
S'2015-11-29 02:52:39'
p4
s.(dp0
S'Text'
p1
S'mobile shopping takes record share of black friday sales via android... https://t.co/qteysj2pqs -via @spanishclash https://t.co/2oykykrooj'
p2
sS'Created At'
p3
S'2015-11-29 02:52:40'
p4
s.(dp0
S'Text'
p1
S"i'm earning #mplusrewards in tap da cookie android. https://t.co/e7lxikupta"
p2
sS'Created At'
p3
S'2015-11-29 02:52:41'
p4
s.(dp0
S'Text'
p1
S"i'm earning #mplusrewards in light da fuse android. https://t.co/vhk7pju8ij"
p2
sS'Created At'
p3
S'2015-11-29 02:52:42'
p4
s.(dp0
S'Text'
p1
S'#beforetheparty by @chrisbrown w/ @datpiff for android https://t.co/i60bjd2wao https://t.co/sokojm3v3n'
p2
sS'Created At'
p3
S'2015-11-29 02:52:42'
p4
s.(dp0
S'Text'
p1
S"i'm earning #mplusrewards in name da state android. https://t.co/d7whqx7vig"
p2
sS'Created At'
p3
S'2015-11-29 02:52:44'
p4
s.(dp0
S'Text'
p1
S'#10billionwives \ni married90,994,968,016wives!\n\nios: https://t.co/iva9zmwd9p\nandroid: https://t.co/zpnc8fj0xf https://t.co/ohcntnhusr'
p2
sS'Created At'
p3
S'2015-11-29 02:52:45'
p4
s.(dp0
S'Text'
p1
S'#10billionwives \ni married 8,148,891,246 wives!\n\nios: https://t.co/m1xk6gbow3\nandroid: https://t.co/cgttyhvxao https://t.co/jvnabtxo1u'
p2
sS'Created At'
p3
S'2015-11-29 02:52:47'
p4
s.(dp0
S'Text'
p1
S'enter to win "the great android holiday giveaway" from https://t.co/lurnlfsxxa https://t.co/m3feyntipf ,  over 25 #android prizes to be won!'
p2
sS'Created At'
p3
S'2015-11-29 02:52:48'
p4
s.(dp0
S'Text'
p1
S'check out the "ultimate holiday tech gift guide 2015 \xe2\x80\x93 2016" tons of #android and tech gift ideas https://t.co/fvhod1t2ci #christmas #xmas'
p2
sS'Created At'
p3
S'2015-11-29 02:52:50'
p4
s.(dp0
S'Text'
p1
S"barber's report card challenge earns fourth-grader free haircuts for life https://t.co/wchiqmcszo via the @foxnews android app"
p2
sS'Created At'
p3
S'2015-11-29 02:52:50'
p4
s.(dp0
S'Text'
p1
S'android emojis always look so damn awful'
p2
sS'Created At'
p3
S'2015-11-29 02:52:50'
p4
s.(dp0
S'Text'
p1
S"i'm earning #mplusrewards in name da flag android. https://t.co/bbwfxvizjs"
p2
sS'Created At'
p3
S'2015-11-29 02:52:50'
p4
s.(dp0
S'Text'
p1
S'mobiles club android app is now available at https://t.co/xqd0fun7n1 repository. https://t.co/sbbk5kehm1'
p2
sS'Created At'
p3
S'2015-11-29 02:52:50'
p4
s.(dp0
S'Text'
p1
S'magic piano \xe2\x80\x93 have fun with this app for android https://t.co/gqbmbm3j9g'
p2
sS'Created At'
p3
S'2015-11-29 02:52:53'
p4
s.(dp0
S'Text'
p1
S'magic piano \xe2\x80\x93 have fun with this app for android https://t.co/eggoz6yyrq'
p2
sS'Created At'
p3
S'2015-11-29 02:52:53'
p4
s.(dp0
S'Text'
p1
S'magic piano \xe2\x80\x93 have fun with this app for android https://t.co/eidrowtf9i'
p2
sS'Created At'
p3
S'2015-11-29 02:52:55'
p4
s.(dp0
S'Text'
p1
S'magic piano \xe2\x80\x93 have fun with this app for android https://t.co/qg0fpovoko'
p2
sS'Created At'
p3
S'2015-11-29 02:52:56'
p4
s.(dp0
S'Text'
p1
S'magic piano \xe2\x80\x93 have fun with this app for android https://t.co/b9ofxpenrm'
p2
sS'Created At'
p3
S'2015-11-29 02:52:56'
p4
s.(dp0
S'Text'
p1
S'portuguese set to stick with what they know in elec https://t.co/i50iwzacsx #recipecourse #news #startups #howto #diy #android #howto #apps'
p2
sS'Created At'
p3
S'2015-11-29 02:52:57'
p4
s.(dp0
S'Text'
p1
S'magic piano \xe2\x80\x93 have fun with this app for android https://t.co/hu1vyir84a'
p2
sS'Created At'
p3
S'2015-11-29 02:52:59'
p4
s.(dp0
S'Text'
p1
S'magic piano \xe2\x80\x93 have fun with this app for android https://t.co/mphsnzsxqi'
p2
sS'Created At'
p3
S'2015-11-29 02:52:59'
p4
s.(dp0
S'Text'
p1
S'magic piano \xe2\x80\x93 have fun with this app for android https://t.co/qmcp5q4ovl'
p2
sS'Created At'
p3
S'2015-11-29 02:53:00'
p4
s.(dp0
S'Text'
p1
S'magic piano \xe2\x80\x93 have fun with this app for android https://t.co/kn3woc46s9'
p2
sS'Created At'
p3
S'2015-11-29 02:53:00'
p4
s.(dp0
S'Text'
p1
S'outlast or android - sobrevivir full game: https://t.co/5jrlrgs3mx via @youtube'
p2
sS'Created At'
p3
S'2015-11-29 02:53:01'
p4
s.(dp0
S'Text'
p1
S'#appstore #android #catlover #flawless simple #trade #system #stocks options traders $90+ .: make money regardles https://t.co/ncpsxodzb7'
p2
sS'Created At'
p3
S'2015-11-29 02:53:01'
p4
s.(dp0
S'Text'
p1
S'magic piano \xe2\x80\x93 have fun with this app for android https://t.co/sai9aejxwb'
p2
sS'Created At'
p3
S'2015-11-29 02:53:01'
p4
s.(dp0
S'Text'
p1
S'nah actually, fuck this android phone'
p2
sS'Created At'
p3
S'2015-11-29 02:53:02'
p4
s.(dp0
S'Text'
p1
S'magic piano \xe2\x80\x93 have fun with this app for android https://t.co/bu5txzyf07'
p2
sS'Created At'
p3
S'2015-11-29 02:53:02'
p4
s.(dp0
S'Text'
p1
S"why do android snapchats look like they're from the 1800's https://t.co/oxzr19pxmh"
p2
sS'Created At'
p3
S'2015-11-29 02:53:03'
p4
s.(dp0
S'Text'
p1
S"i'm earning #mplusrewards in roll da dice android. https://t.co/3crbdqi6vd"
p2
sS'Created At'
p3
S'2015-11-29 02:53:05'
p4
s.(dp0
S'Text'
p1
S'took my android back, fuck that glitchy thing man'
p2
sS'Created At'
p3
S'2015-11-29 02:53:05'
p4
s.(dp0
S'Text'
p1
S'magic piano \xe2\x80\x93 have fun with this app for android https://t.co/p6eldi4iiu'
p2
sS'Created At'
p3
S'2015-11-29 02:53:06'
p4
s.(dp0
S'Text'
p1
S'magic piano \xe2\x80\x93 have fun with this app for android https://t.co/7zf5qdngdc'
p2
sS'Created At'
p3
S'2015-11-29 02:53:06'
p4
s.(dp0
S'Text'
p1
S'android all the way \xf0\x9f\x91\x8c https://t.co/cbnnnwprfu'
p2
sS'Created At'
p3
S'2015-11-29 02:53:07'
p4
s.(dp0
S'Text'
p1
S'jessica jones is so unrealistic. how is she gonna do all that pi work with an android?'
p2
sS'Created At'
p3
S'2015-11-29 02:53:08'
p4
s.(dp0
S'Text'
p1
S"i'm earning #mplusrewards in spin da slots android. https://t.co/cmy7ffyixb"
p2
sS'Created At'
p3
S'2015-11-29 02:53:08'
p4
s.(dp0
S'Text'
p1
S'irulu expro x1 10.1" a33 android 5.1 lollipop tablet 16g quad core keyboard https://t.co/udyycnq65r'
p2
sS'Created At'
p3
S'2015-11-29 02:53:08'
p4
s.(dp0
S'Text'
p1
S'magic piano \xe2\x80\x93 have fun with this app for android https://t.co/hqixkbu0oz'
p2
sS'Created At'
p3
S'2015-11-29 02:53:10'
p4
s.(dp0
S'Text'
p1
S'magic piano \xe2\x80\x93 have fun with this app for android https://t.co/i14ucplby9'
p2
sS'Created At'
p3
S'2015-11-29 02:53:10'
p4
s.(dp0
S'Text'
p1
S'new #android #app: makeover with emily princess https://t.co/hlutr3ebzv'
p2
sS'Created At'
p3
S'2015-11-29 02:53:12'
p4
s.(dp0
S'Text'
p1
S'magic piano \xe2\x80\x93 have fun with this app for android https://t.co/oyrqqwrzsq'
p2
sS'Created At'
p3
S'2015-11-29 02:53:14'
p4
s.(dp0
S'Text'
p1
S'magic piano \xe2\x80\x93 have fun with this app for android https://t.co/8evhpjz2hv'
p2
sS'Created At'
p3
S'2015-11-29 02:53:15'
p4
s.(dp0
S'Text'
p1
S'magic piano \xe2\x80\x93 have fun with this app for android https://t.co/7db9ugyoqc'
p2
sS'Created At'
p3
S'2015-11-29 02:53:18'
p4
s.(dp0
S'Text'
p1
S'pennilesstchr: vincentaditya8: enter to win "the great android holiday giveaway" from https://t.co/4zabalonhd https://t.co/msw82bamzi ,  \xe2\x80\xa6'
p2
sS'Created At'
p3
S'2015-11-29 02:53:19'
p4
s.(dp0
S'Text'
p1
S'magic piano \xe2\x80\x93 have fun with this app for android https://t.co/gbzyz0pipv'
p2
sS'Created At'
p3
S'2015-11-29 02:53:21'
p4
s.(dp0
S'Text'
p1
S'ursuscorax: enter to win "the great android holiday giveaway" from https://t.co/4zabalonhd https://t.co/msw82bamzi ,  over 25 #android pr\xe2\x80\xa6'
p2
sS'Created At'
p3
S'2015-11-29 02:53:23'
p4
s.(dp0
S'Text'
p1
S'magic piano \xe2\x80\x93 have fun with this app for android https://t.co/gud6axpfmo'
p2
sS'Created At'
p3
S'2015-11-29 02:53:24'
p4
s.(dp0
S'Text'
p1
S'apple "pushing the envelope" with no headphone jack. the envelope was pushed with google\'s 1st android phone in 2008 https://t.co/cn4ye75adn'
p2
sS'Created At'
p3
S'2015-11-29 02:53:25'
p4
s.(dp0
S'Text'
p1
S'retweeted lg g4 (@my_lgphone):\n\nandroid 6.0 marshmallow release for lg g3 on december 16-18; update to come to... https://t.co/irg1x4oodm'
p2
sS'Created At'
p3
S'2015-11-29 02:53:26'
p4
s.(dp0
S'Text'
p1
S'i liked a @youtube video from @rcatablets https://t.co/sne3koipmm rca tablets | 10 viking pro android 2-in-1'
p2
sS'Created At'
p3
S'2015-11-29 02:53:27'
p4
s.(dp0
S'Text'
p1
S'secureline vpn\n- #android #chat app https://t.co/bcxjaia8ar |97b33| https://t.co/giewlsv5i1'
p2
sS'Created At'
p3
S'2015-11-29 02:53:28'
p4
s.(dp0
S'Text'
p1
S'magic piano \xe2\x80\x93 have fun with this app for android https://t.co/zoqghweh7d'
p2
sS'Created At'
p3
S'2015-11-29 02:53:29'
p4
s.(dp0
S'Text'
p1
S'morning and evening images for android\nplease download, rate, and share.\n\nhttps://t.co/kt77zqrbbo'
p2
sS'Created At'
p3
S'2015-11-29 02:53:30'
p4
s.(dp0
S'Text'
p1
S"i'm earning #mplusrewards in da daily compliment android. https://t.co/qnbhlsjuyc"
p2
sS'Created At'
p3
S'2015-11-29 02:53:32'
p4
s.(dp0
S'Text'
p1
S"@beatrizpudney this game is for android and ios... but i am using windows phone 10 \xf0\x9f\x93\xb1... for this reason i'm unable to play this game....."
p2
sS'Created At'
p3
S'2015-11-29 02:53:33'
p4
s.(dp0
S'Text'
p1
S'enter to win a google nexus 6p android smartphone      https://t.co/endvcn8i7j'
p2
sS'Created At'
p3
S'2015-11-29 02:53:33'
p4
s.(dp0
S'Text'
p1
S'magic piano \xe2\x80\x93 have fun with this app for android https://t.co/xvxorsy1oy'
p2
sS'Created At'
p3
S'2015-11-29 02:53:35'
p4
s.(dp0
S'Text'
p1
S'recommend #virtualtabletennis. iphone:https://t.co/atd5dsvt6d android:https://t.co/qomgjzwasw https://t.co/bvnwfthbd8'
p2
sS'Created At'
p3
S'2015-11-29 02:53:40'
p4
s.(dp0
S'Text'
p1
S'mobile sms marketing for android group texting: https://t.co/s7hxluxssb'
p2
sS'Created At'
p3
S'2015-11-29 02:53:40'
p4
s.(dp0
S'Text'
p1
S"#top3apps for 'mamed'\n\ntwitter web client 29%\ntwitter for android 26%\ntwitter for iphone 15%"
p2
sS'Created At'
p3
S'2015-11-29 02:53:42'
p4
s.(dp0
S'Text'
p1
S'#10billionwives \ni married246,341,290,415wives!\n\nios: https://t.co/rkjp8duf5i\nandroid: https://t.co/jfi6g4bigp https://t.co/ocwyondtyk'
p2
sS'Created At'
p3
S'2015-11-29 02:53:48'
p4
s.(dp0
S'Text'
p1
S'nikki up2u: a dressing story | unlimited gold, coins, money android games https://t.co/quvdetoc3o'
p2
sS'Created At'
p3
S'2015-11-29 02:53:48'
p4
s.(dp0
S'Text'
p1
S'iphone  https://t.co/esxjpqnd1j'
p2
sS'Created At'
p3
S'2015-11-29 02:53:55'
p4
s.(dp0
S'Text'
p1
S'ursuscorax: enter to win "the great android holiday giveaway" from   , over 25  pr\xe2\x80\xa6 https://t.co/vr4xsp7o8z'
p2
sS'Created At'
p3
S'2015-11-29 02:53:56'
p4
s.(dp0
S'Text'
p1
S'ursuscorax: enter to win "the great android holiday giveaway" from   , over 25  pr\xe2\x80\xa6 https://t.co/cryrgkvg1m'
p2
sS'Created At'
p3
S'2015-11-29 02:53:56'
p4
s.(dp0
S'Text'
p1
S"i'm earning #mplusrewards in office jerk holiday edition android . https://t.co/szlf1evf5y"
p2
sS'Created At'
p3
S'2015-11-29 02:53:59'
p4
s.(dp0
S'Text'
p1
S'magic piano \xe2\x80\x93 have fun with this app for android https://t.co/opkfh3djrg'
p2
sS'Created At'
p3
S'2015-11-29 02:54:00'
p4
s.(dp0
S'Text'
p1
S"you say you can't text me bc you don't have wifi but yet your on snapchat?\xf0\x9f\x98\x82 an you don't need wifi to text an android\xf0\x9f\x98\x82\xf0\x9f\x98\x82 #"
p2
sS'Created At'
p3
S'2015-11-29 02:54:00'
p4
s.(dp0
S'Text'
p1
S'@outtahouse luv4luv ukg vol.1 mixed by @djpyro android https://t.co/1ubx99fqud / iphone https://t.co/hrngph0t9q https://t.co/sjx0omugew'
p2
sS'Created At'
p3
S'2015-11-29 02:54:00'
p4
s.(dp0
S'Text'
p1
S'https://t.co/wqrpg0tser rt kayleemonica1 #android #littlerock #photoshop #thank learn #english or #russian #with \xe2\x80\xa6 https://t.co/1xzpryzakr'
p2
sS'Created At'
p3
S'2015-11-29 02:54:02'
p4
s.(dp0
S'Text'
p1
S'#oneclickroot: how-to safely #root #huawei mtc 965 running #android 2.3.6 https://t.co/bhjb6b6yir'
p2
sS'Created At'
p3
S'2015-11-29 02:54:02'
p4
s.(dp0
S'Text'
p1
S'#oneclickroot: how-to safely #root #samsung gt-s6810p (build: jzo54k\xe2\x80\xa4s6810pxwame2) running #android 4.1.2 https://t.co/9s14qli3k3'
p2
sS'Created At'
p3
S'2015-11-29 02:54:03'
p4
s.(dp0
S'Text'
p1
S"i feel terrible whenever i post something on my story with the android camera bs\ni feel like i'm insulting iphone users"
p2
sS'Created At'
p3
S'2015-11-29 02:54:03'
p4
s.(dp0
S'Text'
p1
S'#oneclickroot: how-to safely #root #huawei g6-l11 running #android 4.3 https://t.co/sgfrgbp6ox'
p2
sS'Created At'
p3
S'2015-11-29 02:54:03'
p4
s.(dp0
S'Text'
p1
S'#10billionwives \ni married247,051,069,090wives!\n\nios: https://t.co/rkjp8duf5i\nandroid: https://t.co/jfi6g4bigp https://t.co/tvjcyruzhn'
p2
sS'Created At'
p3
S'2015-11-29 02:54:05'
p4
s.(dp0
S'Text'
p1
S'#nowplaying wonderflow - the weekend (prod. by hazey82) #link6 ios &amp; android app , visit to https://t.co/fomtgzgtxy'
p2
sS'Created At'
p3
S'2015-11-29 02:54:05'
p4
s.(dp0
S'Text'
p1
S'everything apple does can be explained by this one simple q https://t.co/4c3isckn2u #apps #news #startups #howto #diy #android #howto #apps'
p2
sS'Created At'
p3
S'2015-11-29 02:54:06'
p4
s.(dp0
S'Text'
p1
S'enter to win "the great android holiday giveaway" from https://t.co/yupganhocu https://t.co/hrkep2yzyr ,  over 25 #android prizes to be won!'
p2
sS'Created At'
p3
S'2015-11-29 02:54:06'
p4
s.(dp0
S'Text'
p1
S"i'm earning #mplusrewards in https://t.co/7uime4y2uu for android. https://t.co/a5jl1wdhn6 @dictionarycom"
p2
sS'Created At'
p3
S'2015-11-29 02:54:06'
p4
s.(dp0
S'Text'
p1
S'the best sms marketing app for android: mobile marketing service https://t.co/m4zqu9lxn5'
p2
sS'Created At'
p3
S'2015-11-29 02:54:08'
p4
s.(dp0
S'Text'
p1
S'\xe2\x80\x9ckansai cat\xe2\x80\x9dbattery widget for android https://t.co/4bcxgnmu1k #kansai_battery https://t.co/qiyfswqmbc'
p2
sS'Created At'
p3
S'2015-11-29 02:54:09'
p4
s.(dp0
S'Text'
p1
S'users famousness vexed question harmony android 4.2: nhrxtgol'
p2
sS'Created At'
p3
S'2015-11-29 02:54:09'
p4
s.(dp0
S'Text'
p1
S'review: htc one m8 is the best android smartphone - besttechie #m8 https://t.co/fbjmrmxweu'
p2
sS'Created At'
p3
S'2015-11-29 02:54:10'
p4
s.(dp0
S'Text'
p1
S"i'm now a d-list celebrity in kim kardashian: hollywood. you can be famous too by playing on android! https://t.co/3orv1a1rej"
p2
sS'Created At'
p3
S'2015-11-29 02:54:11'
p4
s.(dp0
S'Text'
p1
S'check out the "ultimate holiday tech gift guide 2015 \xe2\x80\x93 2016" tons of #android and tech gift ideas https://t.co/9a4ek8zwbr #christmas #xmas'
p2
sS'Created At'
p3
S'2015-11-29 02:54:12'
p4
s.(dp0
S'Text'
p1
S'magic piano \xe2\x80\x93 have fun with this app for android https://t.co/hw4ns8uqqz'
p2
sS'Created At'
p3
S'2015-11-29 02:54:16'
p4
s.(dp0
S'Text'
p1
S"i've finished the visit baron de albert's castle quest! are you able to fulfil the same task? https://t.co/f9tomroyai #android,#androi..."
p2
sS'Created At'
p3
S'2015-11-29 02:54:16'
p4
s.(dp0
S'Text'
p1
S"i'm earning #mplusrewards in light da fuse android. https://t.co/1cb3xc2xrb"
p2
sS'Created At'
p3
S'2015-11-29 02:54:18'
p4
s.(dp0
S'Text'
p1
S'help me get more points for m gift card download this app https://t.co/ybbsixql69 on your android and input my invitation code h12938130'
p2
sS'Created At'
p3
S'2015-11-29 02:54:18'
p4
s.(dp0
S'Text'
p1
S'instagram is testing support for multiple accounts on android https://t.co/vrfjyzjvov'
p2
sS'Created At'
p3
S'2015-11-29 02:54:20'
p4
s.(dp0
S'Text'
p1
S'magic piano \xe2\x80\x93 have fun with this app for android https://t.co/ng2gkhtht3'
p2
sS'Created At'
p3
S'2015-11-29 02:54:22'
p4
s.(dp0
S'Text'
p1
S"i'm earning #mplusrewards in airliners android. https://t.co/5hw4lyena0"
p2
sS'Created At'
p3
S'2015-11-29 02:54:23'
p4
s.(dp0
S'Text'
p1
S'5" #android unlocked smartphone quad core 2g 3g wifi gps 2sim for at - https://t.co/gwbcagw1hq | \n ... https://t.co/yzevq7g67x'
p2
sS'Created At'
p3
S'2015-11-29 02:54:24'
p4
s.(dp0
S'Text'
p1
S"i'm earning #mplusrewards in roll da dice android. https://t.co/clddifyo1z"
p2
sS'Created At'
p3
S'2015-11-29 02:54:24'
p4
s.(dp0
S'Text'
p1
S'\xe2\x80\x9ckansai cat\xe2\x80\x9dbattery widget for android https://t.co/4bcxgnmu1k #kansai_battery https://t.co/drk3bbkc0s'
p2
sS'Created At'
p3
S'2015-11-29 02:54:27'
p4
s.(dp0
S'Text'
p1
S'@tornadotyler luv4luv ukg vol.1 mixed by @djpyro android https://t.co/i5cbekvunn / iphone https://t.co/a7icrxerfx https://t.co/ggxit8ktcg'
p2
sS'Created At'
p3
S'2015-11-29 02:54:28'
p4
s.(dp0
S'Text'
p1
S"i'm earning #mplusrewards in bob da boat android. https://t.co/7kqjs3myvv"
p2
sS'Created At'
p3
S'2015-11-29 02:54:31'
p4
s.(dp0
S'Text'
p1
S'would stock android make you more likely to buy a chines\xe2\x80\xa6 https://t.co/dzgrackjzt i was recently with some of the makers of the nexus 6p a\xe2\x80\xa6'
p2
sS'Created At'
p3
S'2015-11-29 02:54:31'
p4
s.(dp0
S'Text'
p1
S'feeding my addiction... \xf0\x9f\x98\x85\xf0\x9f\x98\xb1\n#10billionwives \nios: https://t.co/ixsncjcu9r\nandroid: https://t.co/irfq6prx9t https://t.co/h6itlbwipb'
p2
sS'Created At'
p3
S'2015-11-29 02:54:32'
p4
s.(dp0
S'Text'
p1
S"i'm using viber to make free phone calls and send free messages on my android phone https://t.co/lsmov43xxj"
p2
sS'Created At'
p3
S'2015-11-29 02:54:33'
p4
s.(dp0
S'Text'
p1
S'just another easy adventure~ &gt;_&lt;   android:https://t.co/tz6eusxpyp  ios:https://t.co/nhujekaxt9 https://t.co/dr5xvabcrz'
p2
sS'Created At'
p3
S'2015-11-29 02:54:34'
p4
s.(dp0
S'Text'
p1
S"martin o\xe2\x80\x99malley unleashes on 'that imm https://t.co/k2lln1fca1 #uncategorized #trending #news #startups #howto #diy #android #howto #apps"
p2
sS'Created At'
p3
S'2015-11-29 02:54:36'
p4
s.(dp0
S'Text'
p1
S"i managed to finish the the cheshire's record assignment! try it for yourself! https://t.co/rxxdpco22m #gameinsight #android"
p2
sS'Created At'
p3
S'2015-11-29 02:54:42'
p4
s.(dp0
S'Text'
p1
S"i'm earning #mplusrewards in the daily puppy android. https://t.co/paddzhek95"
p2
sS'Created At'
p3
S'2015-11-29 02:54:43'
p4
s.(dp0
S'Text'
p1
S'https://t.co/4wm3k1mvmw #9936 #4607 bluetooth smart watch phone gsm sim card for android... https://t.co/n0oujei2uj'
p2
sS'Created At'
p3
S'2015-11-29 02:54:45'
p4
s.(dp0
S'Text'
p1
S"i'm earning #mplusrewards in https://t.co/qb7b7yl8pr for android. https://t.co/osjwi8b84h @dictionarycom"
p2
sS'Created At'
p3
S'2015-11-29 02:54:47'
p4
s.(dp0
S'Text'
p1
S'#top3apps for #mygifttobillnye\n\ntwitter for iphone 30%\ntwitter for android 21%\ntwitter web client 18%'
p2
sS'Created At'
p3
S'2015-11-29 02:54:47'
p4
s.(dp0
S'Text'
p1
S'22.whats yall sc names ? (no android users)'
p2
sS'Created At'
p3
S'2015-11-29 02:54:48'
p4
s.(dp0
S'Text'
p1
S'hope they release android version soon'
p2
sS'Created At'
p3
S'2015-11-29 02:54:48'
p4
s.(dp0
S'Text'
p1
S'[\xf0\x9f\x93\xb2] #bts #\xed\x99\x94\xec\x96\x91\xec\x97\xb0\xed\x99\x94onstage rehearsal+backstage on #v\xec\x95\xb1 1pm kst\nios https://t.co/74taqurmeu\nandroid https://t.co/se4jqsx93k https://t.co/h8ecnvqu22'
p2
sS'Created At'
p3
S'2015-11-29 02:54:49'
p4
s.(dp0
S'Text'
p1
S"i'm earning #mplusrewards in guess da number android. https://t.co/o29ubv7sgr"
p2
sS'Created At'
p3
S'2015-11-29 02:54:51'
p4
s.(dp0
S'Text'
p1
S'\xe2\x80\x9ckansai cat\xe2\x80\x9dbattery widget for android https://t.co/4bcxgnmu1k #kansai_battery https://t.co/qhj5wzx1vn'
p2
sS'Created At'
p3
S'2015-11-29 02:54:52'
p4
s.(dp0
S'Text'
p1
S"i'm earning #mplusrewards in flip da coin android. https://t.co/xaiynmyqpw"
p2
sS'Created At'
p3
S'2015-11-29 02:54:54'
p4
s.(dp0
S'Text'
p1
S'kiosk browser android app is now available at https://t.co/xqd0fun7n1 repository. https://t.co/n5zereekz9'
p2
sS'Created At'
p3
S'2015-11-29 02:54:57'
p4
s.(dp0
S'Text'
p1
S'\xe2\x96\xba https://t.co/k5zume5riz \xe2\x9d\xa4 [free] adult comic viewer (android)\xe2\x9d\xa4  #hentai #ecchi #anime #porn 208 https://t.co/xrsudtfnkh'
p2
sS'Created At'
p3
S'2015-11-29 02:54:58'
p4
s.(dp0
S'Text'
p1
S'i hate watching people who have a android snapchats, it be lookin so shitty \xf0\x9f\x98\x82'
p2
sS'Created At'
p3
S'2015-11-29 02:54:59'
p4
s.(dp0
S'Text'
p1
S'nowplaying : prefuse 73 - perverted undertone\n\ntune in https://t.co/opfsd3gfno\n #android app https://t.co/mfyw7heajd\n#peripouwebradio'
p2
sS'Created At'
p3
S'2015-11-29 02:55:00'
p4
s.(dp0
S'Text'
p1
S"i'm earning #mplusrewards in https://t.co/okcaxs821y for android. https://t.co/tr8mi8wukb @dictionarycom"
p2
sS'Created At'
p3
S'2015-11-29 02:55:02'
p4
s.(dp0
S'Text'
p1
S'\xe2\x99\x9e here are our samsung galaxy s6 and nexus 6p contest winners! https://t.co/d5oujwfnzk #310ei #android'
p2
sS'Created At'
p3
S'2015-11-29 02:55:02'
p4
s.(dp0
S'Text'
p1
S'@cupcakealbon have you already downloaded the new game pok\xc3\xa9mon android? poketrivia enjoy! download it here: https://t.co/kt6louzz0n'
p2
sS'Created At'
p3
S'2015-11-29 02:55:03'
p4
s.(dp0
S'Text'
p1
S'https://t.co/cfu0ly6cx9 #3347 #1021 rocksoul wireless bluetooth slim keyboard pc android... https://t.co/svipo3mhiv'
p2
sS'Created At'
p3
S'2015-11-29 02:55:03'
p4
s.(dp0
S'Text'
p1
S'https://t.co/ubhbkmyhkb #7983 u8 bluetooth smart wrist watch phone mate for android ios samsung iphone lg red https://t.co/ioivw6alzw'
p2
sS'Created At'
p3
S'2015-11-29 02:55:05'
p4
s.(dp0
S'Text'
p1
S'https://t.co/xkrh26hnia #6232 smartwatch (black case) sync calls to iphones,android phones,bluetooth phones https://t.co/mwine27vjy'
p2
sS'Created At'
p3
S'2015-11-29 02:55:08'
p4
s.(dp0
S'Text'
p1
S'https://t.co/rfn3y1stsy #9634 white u8 bluetooth smart watch phone mate for android ios samsung iphone sony https://t.co/ufoowso2zy'
p2
sS'Created At'
p3
S'2015-11-29 02:55:09'
p4
s.(dp0
S'Text'
p1
S'#top3apps for #froschdinner\n\ntwitter for iphone 64%\ntwitter for android 27%\ntwitter web client 4%'
p2
sS'Created At'
p3
S'2015-11-29 02:55:13'
p4
s.(dp0
S'Text'
p1
S'@leighleigh20 luv4luv ukg vol.1 mixed by @djpyro android https://t.co/qy9o3higlw / iphone https://t.co/j5xbuxj02h https://t.co/0jofl0g46d'
p2
sS'Created At'
p3
S'2015-11-29 02:55:14'
p4
s.(dp0
S'Text'
p1
S"i'm earning #mplusrewards in cut da deck android. https://t.co/nsd7qfxo9r"
p2
sS'Created At'
p3
S'2015-11-29 02:55:17'
p4
s.(dp0
S'Text'
p1
S"i'm earning #mplusrewards in guess da number android. https://t.co/qmp53cpyul"
p2
sS'Created At'
p3
S'2015-11-29 02:55:20'
p4
s.(dp0
S'Text'
p1
S'iphone5s  https://t.co/h1mixeohjt'
p2
sS'Created At'
p3
S'2015-11-29 02:55:20'
p4
s.(dp0
S'Text'
p1
S"this vine about j.j. abrams, 'the parent trap,' and 'inception' will blow your mind #facebook #android #app go to https://t.co/nrxa2oizfs"
p2
sS'Created At'
p3
S'2015-11-29 02:55:23'
p4
s.(dp0
S'Text'
p1
S'everyone is tracked...so much for privacy  https://t.co/sfjjko28ae'
p2
sS'Created At'
p3
S'2015-11-29 02:55:25'
p4
s.(dp0
S'Text'
p1
S"i'm earning #mplusrewards in name da flag android. https://t.co/4x3cnvyhfn"
p2
sS'Created At'
p3
S'2015-11-29 02:55:29'
p4
s.(dp0
S'Text'
p1
S'@darylparedes luv4luv ukg vol.1 mixed by @djpyro android https://t.co/g392zy8wri / iphone https://t.co/imrlxgllhm https://t.co/aegzenkfmy'
p2
sS'Created At'
p3
S'2015-11-29 02:55:39'
p4
s.(dp0
S'Text'
p1
S'police are still looking for an 8th pers https://t.co/x3e97joln0 #uncategorized #trending #news #startups #howto #diy #android #howto #apps'
p2
sS'Created At'
p3
S'2015-11-29 02:55:40'
p4
s.(dp0
S'Text'
p1
S"i'm earning #mplusrewards in tmz - android. https://t.co/ncbwaqil3v"
p2
sS'Created At'
p3
S'2015-11-29 02:55:41'
p4
s.(dp0
S'Text'
p1
S'@chethaase how do you save the state of the scene in #android  https://t.co/w3m9tawzpr #animations'
p2
sS'Created At'
p3
S'2015-11-29 02:55:41'
p4
s.(dp0
S'Text'
p1
S"i'm earning #mplusrewards in name da president (android). https://t.co/h1hglwju48"
p2
sS'Created At'
p3
S'2015-11-29 02:55:47'
p4
s.(dp0
S'Text'
p1
S"download @parokyaniedgar's latest #lagimongtatandaan\n\nios: https://t.co/6uuo8ionpf\n\nandroid: https://t.co/cukjmuvdml"
p2
sS'Created At'
p3
S'2015-11-29 02:55:52'
p4
s.(dp0
S'Text'
p1
S'psa: you can get the moto e deal price-matched #facebook #android #app go to https://t.co/nrxa2oizfs'
p2
sS'Created At'
p3
S'2015-11-29 02:55:54'
p4
s.(dp0
S'Text'
p1
S'which android watches are the best buys for the holidays? the verge is here to help: https://t.co/yabz5icgce'
p2
sS'Created At'
p3
S'2015-11-29 02:55:55'
p4
s.(dp0
S'Text'
p1
S"i'm earning #mplusrewards in flip da coin android. https://t.co/0brrg1fkrn"
p2
sS'Created At'
p3
S'2015-11-29 02:55:56'
p4
s.(dp0
S'Text'
p1
S'#top3apps for #bailonakiligsunday\n\ntwitter for android 65%\ntwitter for iphone 19%\ntwitter web client 7%'
p2
sS'Created At'
p3
S'2015-11-29 02:55:58'
p4
s.(dp0
S'Text'
p1
S'"hey i gotta iphone now" okay \xf0\x9f\x98\x92 i didn\'t talk to you when you had an android \xf0\x9f\x99\x84'
p2
sS'Created At'
p3
S'2015-11-29 02:56:00'
p4
s.(dp0
S'Text'
p1
S'#computer #tablet #deals : https://t.co/thu4eoaorg irulu babypad 7" 8gb quad core android 4.4 learning ereader kid\xe2\x80\xa6 https://t.co/qn8sbgn2c9'
p2
sS'Created At'
p3
S'2015-11-29 02:56:00'
p4
s.(dp0
S'Text'
p1
S'pennilesstchr: pennilesstchr: vincentaditya8: enter to win "the great android holiday giveaway" from https://t.co/4zabalonhd \xe2\x80\xa6'
p2
sS'Created At'
p3
S'2015-11-29 02:56:01'
p4
s.(dp0
S'Text'
p1
S'no offense but android snapchats look like photographs from the american civil war'
p2
sS'Created At'
p3
S'2015-11-29 02:56:02'
p4
s.(dp0
S'Text'
p1
S'#oneclickroot: how-to safely #root #samsung sm-g313h (build: kot49h\xe2\x80\xa4g313hddu0anf8) running #android 4.4.2 https://t.co/ezy1i6z4ou'
p2
sS'Created At'
p3
S'2015-11-29 02:56:02'
p4
s.(dp0
S'Text'
p1
S'[guide] the 25th high1 seoul music awards \xe2\x80\x93 red velvet (android user)\n\nhttps://t.co/jyvt03sla5 https://t.co/iybv5ko7vk'
p2
sS'Created At'
p3
S'2015-11-29 02:56:01'
p4
s.(dp0
S'Text'
p1
S'#oneclickroot: how-to safely #root #gt-i9505 gt-i9505 running #android 4.2.2 https://t.co/lhxzikl7wp'
p2
sS'Created At'
p3
S'2015-11-29 02:56:02'
p4
s.(dp0
S'Text'
p1
S'#oneclickroot: how-to safely #root #bbk vivo y22 running #android 4.2.2 https://t.co/x1qosomd0b'
p2
sS'Created At'
p3
S'2015-11-29 02:56:03'
p4
s.(dp0
S'Text'
p1
S'enter to win "the great android holiday giveaway" from https://t.co/pxwmhakvlq https://t.co/s5rxqg3sw1 ,  over 25 #android prizes to be won!'
p2
sS'Created At'
p3
S'2015-11-29 02:56:03'
p4
s.(dp0
S'Text'
p1
S"i'm earning #mplusrewards in light da fuse android. https://t.co/pvukljwe2k"
p2
sS'Created At'
p3
S'2015-11-29 02:56:04'
p4
s.(dp0
S'Text'
p1
S'mobile &amp; tablet deals : https://t.co/qwluxvghu0 #928 viewsonic touchscreen smart monitor 21.5" aio android 4.0 cam\xe2\x80\xa6 https://t.co/o0idvz673v'
p2
sS'Created At'
p3
S'2015-11-29 02:56:05'
p4
s.(dp0
S'Text'
p1
S'pennilesstchr: ursuscorax: enter to win "the great android holiday giveaway" from https://t.co/4zabalonhd https://t.co/msw82bamzi ,  over\xe2\x80\xa6'
p2
sS'Created At'
p3
S'2015-11-29 02:56:05'
p4
s.(dp0
S'Text'
p1
S'nice anker 2nd generation astro e7 portable battery pack for iphone or android!! https://t.co/snpeq5cnbb https://t.co/uv2nqwsmgg'
p2
sS'Created At'
p3
S'2015-11-29 02:56:05'
p4
s.(dp0
S'Text'
p1
S"i'm earning #mplusrewards in name da state android. https://t.co/c4zola0dqw"
p2
sS'Created At'
p3
S'2015-11-29 02:56:06'
p4
s.(dp0
S'Text'
p1
S'enter to win "the great android holiday giveaway" from https://t.co/pf1xzpiz4c https://t.co/rhcqkxzm3w ,  over 25 #android prizes to be won!'
p2
sS'Created At'
p3
S'2015-11-29 02:56:06'
p4
s.(dp0
S'Text'
p1
S"i'm using the 3d theme on my android phone thanks to #themer. #homescreenenvy https://t.co/9gb2y0lmjv https://t.co/rlrxjdwhbo"
p2
sS'Created At'
p3
S'2015-11-29 02:56:07'
p4
s.(dp0
S'Text'
p1
S'check out the "ultimate holiday tech gift guide 2015 \xe2\x80\x93 2016" tons of #android and tech gift ideas https://t.co/ft25ugehnk #christmas #xmas'
p2
sS'Created At'
p3
S'2015-11-29 02:56:08'
p4
s.(dp0
S'Text'
p1
S'apple music involves alphabet&amp;#039;s android - the times (subscription) #music https://t.co/hjh4nz2ziz'
p2
sS'Created At'
p3
S'2015-11-29 02:56:08'
p4
s.(dp0
S'Text'
p1
S'check out the "ultimate holiday tech gift guide 2015 \xe2\x80\x93 2016" tons of #android and tech gift ideas https://t.co/qxaq5ugbxm #christmas #xmas'
p2
sS'Created At'
p3
S'2015-11-29 02:56:08'
p4
s.(dp0
S'Text'
p1
S'#computer #tablet #deals : https://t.co/siujjxshge kocaso quad core tablet pc 7" android 4.4 hdmi dual camera 1.2 \xe2\x80\xa6 https://t.co/meoox8ingq'
p2
sS'Created At'
p3
S'2015-11-29 02:56:08'
p4
s.(dp0
S'Text'
p1
S"i'm earning #mplusrewards in https://t.co/yxtxfwl8ba for android. https://t.co/zw4q12dbba @dictionarycom"
p2
sS'Created At'
p3
S'2015-11-29 02:56:09'
p4
s.(dp0
S'Text'
p1
S'free money for android users.  https://t.co/tipt6noqm4'
p2
sS'Created At'
p3
S'2015-11-29 02:56:10'
p4
s.(dp0
S'Text'
p1
S'the buzzy startup trying to kill amazon just raised another https://t.co/mrukqhg2nl #apps #news #startups #howto #diy #android #howto #apps'
p2
sS'Created At'
p3
S'2015-11-29 02:56:13'
p4
s.(dp0
S'Text'
p1
S"i can't text android users ... messages coming in like 1/10 2/10 3/10 ..."
p2
sS'Created At'
p3
S'2015-11-29 02:56:14'
p4
s.(dp0
S'Text'
p1
S"i'm earning #mplusrewards in what's the phrase android. https://t.co/wdcrrqujsh"
p2
sS'Created At'
p3
S'2015-11-29 02:56:17'
p4
s.(dp0
S'Text'
p1
S'i love htc phones!!! android quality/10 https://t.co/gytrzomse3'
p2
sS'Created At'
p3
S'2015-11-29 02:56:18'
p4
s.(dp0
S'Text'
p1
S"i'm earning #mplusrewards in flip da coin android. https://t.co/u0nacceiw0"
p2
sS'Created At'
p3
S'2015-11-29 02:56:19'
p4
s.(dp0
S'Text'
p1
S'android developer hpsaturn :\n. flyzano (ue) with 3.5m usd had manufacturing issues &amp; flexlabshare (china) 0.5m usd\xe2\x80\xa6 https://t.co/ftb7gqdvzg'
p2
sS'Created At'
p3
S'2015-11-29 02:56:22'
p4
s.(dp0
S'Text'
p1
S'everything in android is ass'
p2
sS'Created At'
p3
S'2015-11-29 02:56:24'
p4
s.(dp0
S'Text'
p1
S"i'm earning #mplusrewards in roll da dice android. https://t.co/hwbjws9pvz"
p2
sS'Created At'
p3
S'2015-11-29 02:56:25'
p4
s.(dp0
S'Text'
p1
S'my android marketing apps blog https://t.co/e7mkahpxrg please retweet. thanks'
p2
sS'Created At'
p3
S'2015-11-29 02:56:25'
p4
s.(dp0
S'Text'
p1
S'earn money - make money online - android apps on google play https://t.co/dd0xujgqhu'
p2
sS'Created At'
p3
S'2015-11-29 02:56:25'
p4
s.(dp0
S'Text'
p1
S'enter to win a google nexus 5 android smartphone @androidheadline #android #nexus #nexus5x  https://t.co/q6q8lalgoy'
p2
sS'Created At'
p3
S'2015-11-29 02:56:27'
p4
s.(dp0
S'Text'
p1
S"@royaltomlinson sadly no i'm broke af and i have a shitty android phone, what about kik tho?"
p2
sS'Created At'
p3
S'2015-11-29 02:56:29'
p4
s.(dp0
S'Text'
p1
S'apple may replace 3.5mm headphone jack on iphone 7 with all-in-one lightning connector #facebook #android #app go to https://t.co/nrxa2oizfs'
p2
sS'Created At'
p3
S'2015-11-29 02:56:30'
p4
s.(dp0
S'Text'
p1
S'lg vs740 ally  verizon + bluetooth+android phone   #4 https://t.co/oblzqujeej https://t.co/xjtnubhuxw'
p2
sS'Created At'
p3
S'2015-11-29 02:56:31'
p4
s.(dp0
S'Text'
p1
S'4. iphone or android ?'
p2
sS'Created At'
p3
S'2015-11-29 02:56:31'
p4
s.(dp0
S'Text'
p1
S"i'm earning #mplusrewards in cut da deck android. https://t.co/pyfkapm5i0"
p2
sS'Created At'
p3
S'2015-11-29 02:56:31'
p4
s.(dp0
S'Text'
p1
S'south carolina shoppers will soon pay taxes on amazon sales #facebook #android #app go to https://t.co/nrxa2oizfs'
p2
sS'Created At'
p3
S'2015-11-29 02:56:34'
p4
s.(dp0
S'Text'
p1
S"amazon instant video app to launch on tvos 'within a few weeks' #facebook #android #app go to https://t.co/nrxa2oizfs"
p2
sS'Created At'
p3
S'2015-11-29 02:56:35'
p4
s.(dp0
S'Text'
p1
S"amazon instant video service may come to apple tv in a 'few weeks' #facebook #android #app go to https://t.co/nrxa2oizfs"
p2
sS'Created At'
p3
S'2015-11-29 02:56:35'
p4
s.(dp0
S'Text'
p1
S'google gives size of center #facebook #android #app go to https://t.co/nrxa2oizfs'
p2
sS'Created At'
p3
S'2015-11-29 02:56:37'
p4
s.(dp0
S'Text'
p1
S'google search comes up as 404 after a hack #facebook #android #app go to https://t.co/nrxa2oizfs'
p2
sS'Created At'
p3
S'2015-11-29 02:56:37'
p4
s.(dp0
S'Text'
p1
S'google, facebook in race to build high-altitude aircraft #facebook #android #app go to https://t.co/nrxa2oizfs'
p2
sS'Created At'
p3
S'2015-11-29 02:56:38'
p4
s.(dp0
S'Text'
p1
S"i'm earning #mplusrewards in flip da coin android. https://t.co/g42llxwm71"
p2
sS'Created At'
p3
S'2015-11-29 02:56:38'
p4
s.(dp0
S'Text'
p1
S"to make a thinner 'iphone 7,' apple could remove the headphone jack #facebook #android #app go to https://t.co/nrxa2oizfs"
p2
sS'Created At'
p3
S'2015-11-29 02:56:40'
p4
s.(dp0
S'Text'
p1
S'went to bed and does not want to be interrupted any more! 11/29 11:56 (sleep as android)'
p2
sS'Created At'
p3
S'2015-11-29 02:56:41'
p4
s.(dp0
S'Text'
p1
S'#emailmarketing 24/7 for android https://t.co/71cypxvf8f'
p2
sS'Created At'
p3
S'2015-11-29 02:56:42'
p4
s.(dp0
S'Text'
p1
S"i'm earning #mplusrewards in tap da cookie android. https://t.co/pimgrst2xw"
p2
sS'Created At'
p3
S'2015-11-29 02:56:46'
p4
s.(dp0
S'Text'
p1
S'facebook makes paid time off for baby leave a global benefit #facebook #android #app go to https://t.co/nrxa2oizfs'
p2
sS'Created At'
p3
S'2015-11-29 02:56:47'
p4
s.(dp0
S'Text'
p1
S'cortana beta tests released by microsoft via testflight for ios #facebook #android #app go to https://t.co/nrxa2oizfs'
p2
sS'Created At'
p3
S'2015-11-29 02:56:49'
p4
s.(dp0
S'Text'
p1
S'a british mining company is flooding the https://t.co/o3cvb1vxsy #uncategorized #trending #news #startups #howto #diy #android #howto #apps'
p2
sS'Created At'
p3
S'2015-11-29 02:56:50'
p4
s.(dp0
S'Text'
p1
S'https://t.co/g6sq5j5vre appload you: create an app for iphone or android without coding! affordable. simple. easy. https://t.co/kyxbjvmf8u'
p2
sS'Created At'
p3
S'2015-11-29 02:56:50'
p4
s.(dp0
S'Text'
p1
S'cell phones : lg google nexus 5 d820 32gb quad-core android gsm unlocked cell phone https://t.co/a2sstju2hz #8802\n\xe2\x80\xa6 https://t.co/ofqueuqlkd'
p2
sS'Created At'
p3
S'2015-11-29 02:56:51'
p4
s.(dp0
S'Text'
p1
S'seidio obex waterproof case for samsung galaxy s4 review https://t.co/bzvxwxhwqq\n #accessories #android #review #smartphone'
p2
sS'Created At'
p3
S'2015-11-29 02:56:53'
p4
s.(dp0
S'Text'
p1
S'niquelovesall  https://t.co/irol2j5k1d'
p2
sS'Created At'
p3
S'2015-11-29 02:56:54'
p4
s.(dp0
S'Text'
p1
S'help the smurfs build a village to call home! play on ios and android. @beelinegames #smurfsvillage https://t.co/a6m3evzjet'
p2
sS'Created At'
p3
S'2015-11-29 02:56:54'
p4
s.(dp0
S'Text'
p1
S'get #wildwallet on android - https://t.co/xe9kfdrfrs to earn amazing rewards for trying free apps. use code 2335595 for 200 bonus credits!'
p2
sS'Created At'
p3
S'2015-11-29 02:56:55'
p4
s.(dp0
S'Text'
p1
S'apple\xf0\x9f\x93\xb1 https://t.co/bqgcktuz6z'
p2
sS'Created At'
p3
S'2015-11-29 02:56:57'
p4
s.(dp0
S'Text'
p1
S'iphone  https://t.co/64zjfhyn7q'
p2
sS'Created At'
p3
S'2015-11-29 02:56:58'
p4
s.(dp0
S'Text'
p1
S'listen now :  ultra lounge life goes on  on zen for you radio\nfree app iphone / android\nhttps://t.co/tqco4jxpnp'
p2
sS'Created At'
p3
S'2015-11-29 02:56:59'
p4
s.(dp0
S'Text'
p1
S"@luther1793 it was the in case your iphone gets submerged case. i have no loyalty to the iphone.\n\ni'm an android guy."
p2
sS'Created At'
p3
S'2015-11-29 02:57:00'
p4
s.(dp0
S'Text'
p1
S"i'm earning #mplusrewards in splat da bat android. https://t.co/djaeowq5mv"
p2
sS'Created At'
p3
S'2015-11-29 02:57:01'
p4
s.(dp0
S'Text'
p1
S"'whatsapp update' 2.12.367 for android, download via google play store\xe2\x80\xa6 #facebook #android #app go to https://t.co/nrxa2oizfs"
p2
sS'Created At'
p3
S'2015-11-29 02:57:03'
p4
s.(dp0
S'Text'
p1
S"i'm earning #mplusrewards in punchcard for android. https://t.co/iolrjegqvj @mypunchcard"
p2
sS'Created At'
p3
S'2015-11-29 02:57:03'
p4
s.(dp0
S'Text'
p1
S'#smartwatch nice s2 waterproof #bluetooth round smart watch phone mate camera for #android #iphone https://t.co/9nu677svwp #smartwatches'
p2
sS'Created At'
p3
S'2015-11-29 02:57:03'
p4
s.(dp0
S'Text'
p1
S"@franplayshalo yeah there's ios and android apps that let you upload from camera roll. use the classic spoon test"
p2
sS'Created At'
p3
S'2015-11-29 02:57:04'
p4
s.(dp0
S'Text'
p1
S'trucos para android marshmallow (video)!\nhttps://t.co/puykqbahqm https://t.co/h3izipiqny'
p2
sS'Created At'
p3
S'2015-11-29 02:57:04'
p4
s.(dp0
S'Text'
p1
S'nexus 5x giveaway! plus 10 other prizes! https://t.co/7p30mqxhgg'
p2
sS'Created At'
p3
S'2015-11-29 02:57:05'
p4
s.(dp0
S'Text'
p1
S'iphone  https://t.co/ycpckzts96'
p2
sS'Created At'
p3
S'2015-11-29 02:57:05'
p4
s.(dp0
S'Text'
p1
S'make money - android apps on google play https://t.co/j6om4dpucu'
p2
sS'Created At'
p3
S'2015-11-29 02:57:07'
p4
s.(dp0
S'Text'
p1
S'#smartwatches top s68 smart wrist watch #bluetooth phone mate for #android ios\xe2\x80\xa6 https://t.co/de713f9vsl #smartwatch https://t.co/fxy8ogftj2'
p2
sS'Created At'
p3
S'2015-11-29 02:57:08'
p4
s.(dp0
S'Text'
p1
S'https://t.co/90ocvuwy20 #5095 g2 waterproof bluetooth heart rate smart watch 2.0mp for iphone android black https://t.co/k49h9q7ofs'
p2
sS'Created At'
p3
S'2015-11-29 02:57:09'
p4
s.(dp0
S'Text'
p1
S'lg g4 android 6.0 marshmallow update rolling out now in europe - android geeks #android https://t.co/b8pbsi6gyy'
p2
sS'Created At'
p3
S'2015-11-29 02:57:10'
p4
s.(dp0
S'Text'
p1
S'https://t.co/jgkvjuocn9 #9248 new u8 smart wrist watch bluetooth phone mate for ios android htc iphone samsung https://t.co/xmaejsd3pv'
p2
sS'Created At'
p3
S'2015-11-29 02:57:11'
p4
s.(dp0
S'Text'
p1
S'when installing language keyboard on iphone or android, you can also specify layout so use one you are comfortable with even if not "usual"'
p2
sS'Created At'
p3
S'2015-11-29 02:57:12'
p4
s.(dp0
S'Text'
p1
S'https://t.co/93xdgeq8gb #4144 pebble smarthwatch 301wh white for iphone or android https://t.co/g1liirvhbp'
p2
sS'Created At'
p3
S'2015-11-29 02:57:12'
p4
s.(dp0
S'Text'
p1
S"i'm earning #mplusrewards in https://t.co/7qn2sxc5xf for android. https://t.co/88xh6ar5ul @dictionarycom"
p2
sS'Created At'
p3
S'2015-11-29 02:57:13'
p4
s.(dp0
S'Text'
p1
S'https://t.co/naktc9exeu #6294 pebble smartwatch 301wh arctic white iphone android new! nisb https://t.co/8xryu0opnl'
p2
sS'Created At'
p3
S'2015-11-29 02:57:13'
p4
s.(dp0
S'Text'
p1
S"i'm earning #mplusrewards in eat da cheese android. https://t.co/9tddvtkmao"
p2
sS'Created At'
p3
S'2015-11-29 02:57:13'
p4
s.(dp0
S'Text'
p1
S'https://t.co/ea9dvawbua #2850 pebble smart watch for apple iphone ios &amp; android devices - black (301bl) https://t.co/q8rted4xok'
p2
sS'Created At'
p3
S'2015-11-29 02:57:14'
p4
s.(dp0
S'Text'
p1
S'5" 8mp timmy m9 3g  android 4.4 mtk6582 quad-core 2xsim 8gb+1gb 3g mobile phone https://t.co/yzvltmjqfz'
p2
sS'Created At'
p3
S'2015-11-29 02:57:14'
p4
s.(dp0
S'Text'
p1
S'https://t.co/454ajpj026 #2429 black bluetooth smart wrist watch phone mate for android &amp; ios iphone samsung lg https://t.co/rrs1irpikk'
p2
sS'Created At'
p3
S'2015-11-29 02:57:14'
p4
s.(dp0
S'Text'
p1
S'android - #5: dragonbox numbers  https://t.co/sn6n1virr3'
p2
sS'Created At'
p3
S'2015-11-29 02:57:15'
p4
s.(dp0
S'Text'
p1
S"i'm earning #mplusrewards in guess da number android. https://t.co/9kybqpffcf"
p2
sS'Created At'
p3
S'2015-11-29 02:57:15'
p4
s.(dp0
S'Text'
p1
S'https://t.co/zvwmns2x1r #0064 u8 bluetooth smart wrist watch phone mate for android &amp; ios iphone 6 6s plus 5s https://t.co/bobltdwagi'
p2
sS'Created At'
p3
S'2015-11-29 02:57:15'
p4
s.(dp0
S'Text'
p1
S"@maneater_brit @a_shantel na the same on my phone. y'all android niggas stay losing"
p2
sS'Created At'
p3
S'2015-11-29 02:57:16'
p4
s.(dp0
S'Text'
p1
S'https://t.co/tlyjhi2qu8 #2143 indigi\xc2\xae bluetooth smart watch phone for iphone 6 plus galaxy android smart phone https://t.co/gyq50tnv6g'
p2
sS'Created At'
p3
S'2015-11-29 02:57:16'
p4
s.(dp0
S'Text'
p1
S'https://t.co/my8qfm9v4l #5354 u8 bluetooth smart wrist watch phone mate for android ios samsung iphone lg red https://t.co/tkivn36zwy'
p2
sS'Created At'
p3
S'2015-11-29 02:57:17'
p4
s.(dp0
S'Text'
p1
S'5" 8mp timmy m9 3g  android 4.4 mtk6582 quad-core 2xsim 8gb+1gb 3g mobile phone https://t.co/djhy25m29k'
p2
sS'Created At'
p3
S'2015-11-29 02:57:17'
p4
s.(dp0
S'Text'
p1
S"i'm now an e-list celebrity in kim kardashian: hollywood. you can be famous too by playing on android! https://t.co/tav00klb8f"
p2
sS'Created At'
p3
S'2015-11-29 02:57:18'
p4
s.(dp0
S'Text'
p1
S'#top3apps for #mygifttobillnye\n\ntwitter for iphone 30%\ntwitter for android 21%\ntwitter web client 18%'
p2
sS'Created At'
p3
S'2015-11-29 02:57:19'
p4
s.(dp0
S'Text'
p1
S"don't worry, i'll save you! https://t.co/uwg9fwq3dh"
p2
sS'Created At'
p3
S'2015-11-29 02:57:25'
p4
s.(dp0
S'Text'
p1
S"i'm earning #mplusrewards in https://t.co/lwqcnev7qu for android. https://t.co/ljxr5zmdtq @dictionarycom"
p2
sS'Created At'
p3
S'2015-11-29 02:57:27'
p4
s.(dp0
S'Text'
p1
S"i'm earning #mplusrewards in flip da coin android. https://t.co/bdmfx4znur"
p2
sS'Created At'
p3
S'2015-11-29 02:57:28'
p4
s.(dp0
S'Text'
p1
S"i'm earning #mplusrewards in da daily insult android. https://t.co/j39pbicxfz"
p2
sS'Created At'
p3
S'2015-11-29 02:57:28'
p4
s.(dp0
S'Text'
p1
S'just another easy adventure~ &gt;_&lt;   android:https://t.co/tz6eusxpyp  ios:https://t.co/nhujekaxt9 https://t.co/efrlqi0uw6'
p2
sS'Created At'
p3
S'2015-11-29 02:57:29'
p4
s.(dp0
S'Text'
p1
S'psa: you can get the moto e deal price-matched https://t.co/t35kxce8s7'
p2
sS'Created At'
p3
S'2015-11-29 02:57:30'
p4
s.(dp0
S'Text'
p1
S'https://t.co/lqvoz7kwwi #0213 new sony xperia e c1504 unlocked gsm android cell phone\n\n$79.95\nend date: tuesday dec-22-2015 15:03:06 pst\nb\xe2\x80\xa6'
p2
sS'Created At'
p3
S'2015-11-29 02:57:30'
p4
s.(dp0
S'Text'
p1
S'deals:https://t.co/drdlfszuhw babypad 7" 8gb quad core android 4.4 learning ereader kid\'s tablet pc blue https://t.co/zjhif93hlr'
p2
sS'Created At'
p3
S'2015-11-29 02:57:30'
p4
s.(dp0
S'Text'
p1
S'https://t.co/ksxoi61vuk #8792 new unlocked sony xperia tx lt29i - 16gb 13mp nfc gsm android smartphone black\n\n$125.00\nend date: saturday d\xe2\x80\xa6'
p2
sS'Created At'
p3
S'2015-11-29 02:57:30'
p4
s.(dp0
S'Text'
p1
S'amazon kicks apple tv and google c https://t.co/mcusaubk3s #amazon #apple #appletv #media #news #startups #howto #diy #android #howto #apps'
p2
sS'Created At'
p3
S'2015-11-29 02:57:31'
p4
s.(dp0
S'Text'
p1
S'https://t.co/ygwxqbq98q #6754 unlocked black 5.0" sony xperia z c6603 4g lte 16gb android gps smartphone @\n\n$179.99\nend date: thursday dec\xe2\x80\xa6'
p2
sS'Created At'
p3
S'2015-11-29 02:57:32'
p4
s.(dp0
S'Text'
p1
S'https://t.co/l3zicsrwsk #2035 unlocked new sony xperia p lt22i 16gb android smartphone wifi 3g 8mp black\n\n$119.00\nend date: wednesday dec-\xe2\x80\xa6'
p2
sS'Created At'
p3
S'2015-11-29 02:57:33'
p4
s.(dp0
S'Text'
p1
S"after using android for 5 years, i've finally switched to iphone https://t.co/wdwhhlcpr3 https://t.co/dumhp5ij4g"
p2
sS'Created At'
p3
S'2015-11-29 02:57:33'
p4
s.(dp0
S'Text'
p1
S'https://t.co/rt8aifxg0u #6561 unlocked black sony xperia z1 c6903 4g 16gb android smartphone 20.7mp cam\n\n$245.99\nend date: friday dec-25-2\xe2\x80\xa6'
p2
sS'Created At'
p3
S'2015-11-29 02:57:34'
p4
s.(dp0
S'Text'
p1
S"i'm now a c-list celebrity in kim kardashian: hollywood. you can be famous too by playing on android! https://t.co/3zff0cerbw"
p2
sS'Created At'
p3
S'2015-11-29 02:57:35'
p4
s.(dp0
S'Text'
p1
S"i'm earning #mplusrewards in family feud 2 android. https://t.co/u92aea1n97"
p2
sS'Created At'
p3
S'2015-11-29 02:57:39'
p4
s.(dp0
S'Text'
p1
S"i'm earning #mplusrewards in da daily insult android. https://t.co/c4yxamv6og"
p2
sS'Created At'
p3
S'2015-11-29 02:57:40'
p4
s.(dp0
S'Text'
p1
S'padgene vogue 6" android 4.4.2 unlocked smartphone, dual core / sim 3g gsm touchscreen smartphone, \xe2\x80\xa6 https://t.co/sbiosudncd'
p2
sS'Created At'
p3
S'2015-11-29 02:57:40'
p4
s.(dp0
S'Text'
p1
S'hi $$$ : jussasiaa, wanna get free iphone 6? kindly check my bi0 :) thx https://t.co/i4rj4ipsrw'
p2
sS'Created At'
p3
S'2015-11-29 02:57:40'
p4
s.(dp0
S'Text'
p1
S"what's your preferred mobile reddit app? any preference as to which app to use on iphone/android devices? https://t.co/f85tzxeu1e #askredd\xe2\x80\xa6"
p2
sS'Created At'
p3
S'2015-11-29 02:57:41'
p4
s.(dp0
S'Text'
p1
S'hot computers #71 : https://t.co/vrwnrb4chw irulu expro x1 7" android 4.4 quad core gms 8gb white tablets w/ free \xe2\x80\xa6 https://t.co/sguvp6u1bo'
p2
sS'Created At'
p3
S'2015-11-29 02:57:41'
p4
s.(dp0
S'Text'
p1
S"i'm earning #mplusrewards in name da state android. https://t.co/v6krcplgvy"
p2
sS'Created At'
p3
S'2015-11-29 02:57:43'
p4
s.(dp0
S'Text'
p1
S'game hay https://t.co/qljx1obu6d'
p2
sS'Created At'
p3
S'2015-11-29 02:57:45'
p4
s.(dp0
S'Text'
p1
S"i'm earning #mplusrewards in spin da slots android. https://t.co/giarpdhtf9"
p2
sS'Created At'
p3
S'2015-11-29 02:57:52'
p4
s.(dp0
S'Text'
p1
S'the protester who got beaten at donald trump\xef\xbf\xbd https://t.co/uiau898odn #trending #trending #news #startups #howto #diy #android #howto #apps'
p2
sS'Created At'
p3
S'2015-11-29 02:57:53'
p4
s.(dp0
S'Text'
p1
S'droid \xf0\x9f\x98\xa2\xf0\x9f\x98\xa2 https://t.co/adpupqx31b'
p2
sS'Created At'
p3
S'2015-11-29 02:57:57'
p4
s.(dp0
S'Text'
p1
S'novak djokovic won a ridiculous amount of money playing https://t.co/pwyrjvwngq #trending #news #startups #howto #diy #android #howto #apps'
p2
sS'Created At'
p3
S'2015-11-29 02:57:58'
p4
s.(dp0
S'Text'
p1
S"i'm now a d-list celebrity in kim kardashian: hollywood. you can be famous too by playing on android! https://t.co/jm9ftbevjb"
p2
sS'Created At'
p3
S'2015-11-29 02:57:59'
p4
s.(dp0
S'Text'
p1
S'66. iphone or android ?'
p2
sS'Created At'
p3
S'2015-11-29 02:57:59'
p4
s.(dp0
S'Text'
p1
S'#oneclickroot: how-to safely #root #gionee p2 running #android 4.2.2 https://t.co/pi1cpvkclx'
p2
sS'Created At'
p3
S'2015-11-29 02:58:02'
p4
s.(dp0
S'Text'
p1
S'#oneclickroot: how-to safely #root #tecno tecno-a7 running #android 4.4.2 https://t.co/u7jc8f2e5m'
p2
sS'Created At'
p3
S'2015-11-29 02:58:02'
p4
s.(dp0
S'Text'
p1
S'#oneclickroot: how-to safely #root #micromax a74 running #android 4.2.2 https://t.co/oybw5qmrfw'
p2
sS'Created At'
p3
S'2015-11-29 02:58:02'
p4
s.(dp0
S'Text'
p1
S"i'm earning #mplusrewards in https://t.co/40mg1z1vkp for android. https://t.co/rp1uzsohzq @dictionarycom"
p2
sS'Created At'
p3
S'2015-11-29 02:58:02'
p4
s.(dp0
S'Text'
p1
S"i'm earning #mplusrewards in punchcard for android. https://t.co/ur85ngyk2w @mypunchcard"
p2
sS'Created At'
p3
S'2015-11-29 02:58:03'
p4
s.(dp0
S'Text'
p1
S"i'm earning #mplusrewards in flip da coin android. https://t.co/cjhalggdug"
p2
sS'Created At'
p3
S'2015-11-29 02:58:03'
p4
s.(dp0
S'Text'
p1
S'https://t.co/w1aecrw4xm envia con nsi cargo https://t.co/dsv11csojh 4" android 2core dual sim unlocked mobile pho\xe2\x80\xa6 https://t.co/5g3tokedl7'
p2
sS'Created At'
p3
S'2015-11-29 02:58:03'
p4
s.(dp0
S'Text'
p1
S'this app is actually worth checking out. #apps #app #free #ios #android #iphone #fun\n https://t.co/16rn0phd1v'
p2
sS'Created At'
p3
S'2015-11-29 02:58:06'
p4
s.(dp0
S'Text'
p1
S'@joenecromantic same here. apple is too "techie" android is much more idiot proof.'
p2
sS'Created At'
p3
S'2015-11-29 02:58:06'
p4
s.(dp0
S'Text'
p1
S'what everyone ought to know about this smart phone? - https://t.co/0qfxpqapj6 https://t.co/ca1wxstzoy'
p2
sS'Created At'
p3
S'2015-11-29 02:58:08'
p4
s.(dp0
S'Text'
p1
S'carezone - android apps on google play https://t.co/pz3cfzb3kv'
p2
sS'Created At'
p3
S'2015-11-29 02:58:13'
p4
s.(dp0
S'Text'
p1
S'@kingtralle forgot you got that trash ass android \xf0\x9f\x9a\xae\xf0\x9f\x9a\xae\xf0\x9f\x9a\xae\xf0\x9f\x9a\xae'
p2
sS'Created At'
p3
S'2015-11-29 02:58:14'
p4
s.(dp0
S'Text'
p1
S"i'm earning #mplusrewards in name da state android. https://t.co/f5vhw6cdvg"
p2
sS'Created At'
p3
S'2015-11-29 02:58:17'
p4
s.(dp0
S'Text'
p1
S'bonnygame reached a new level in the secret society https://t.co/4nlqy8wgfd'
p2
sS'Created At'
p3
S'2015-11-29 02:58:19'
p4
s.(dp0
S'Text'
p1
S'https://t.co/l3zicsrwsk #6164 unlocked new sony xperia p lt22i 16gb android smartphone wifi 3g 8mp black\n\n$119.00\n\xe2\x80\xa6 https://t.co/xrpft6dkh6'
p2
sS'Created At'
p3
S'2015-11-29 02:58:21'
p4
s.(dp0
S'Text'
p1
S"i'm earning #mplusrewards in https://t.co/gh4h8w82g7 for android. https://t.co/d8aqk59ao8 @dictionarycom"
p2
sS'Created At'
p3
S'2015-11-29 02:58:22'
p4
s.(dp0
S'Text'
p1
S'#cellphone #mobile #deal : https://t.co/8rzatbiirv gv08 bluetooth smart watch touch screen phone mate for android&amp;\xe2\x80\xa6 https://t.co/4wkhpat5xr'
p2
sS'Created At'
p3
S'2015-11-29 02:58:22'
p4
s.(dp0
S'Text'
p1
S"i'm playing mystery manor on #android! join me in this adventure! https://t.co/kf2stfve0v  #gameinsight https://t.co/wff6bxyozk"
p2
sS'Created At'
p3
S'2015-11-29 02:58:23'
p4
s.(dp0
S'Text'
p1
S"i'm earning #mplusrewards in family feud 2 android. https://t.co/8czbxhactt"
p2
sS'Created At'
p3
S'2015-11-29 02:58:24'
p4
s.(dp0
S'Text'
p1
S'#top3apps for #runlike4g\n\ntwitter for android 45%\ntwitter web client 17%\nadobe\xc2\xae social 12%'
p2
sS'Created At'
p3
S'2015-11-29 02:58:24'
p4
s.(dp0
S'Text'
p1
S"oneplus offers explanation, refunds in type-c 'cablegate' - android headlines - android news https://t.co/daur4tbgbw"
p2
sS'Created At'
p3
S'2015-11-29 02:58:25'
p4
s.(dp0
S'Text'
p1
S"listen to ' 1065 ricky_jarman (@rickyjarman1) - get_to_know_ya ' on your android https://t.co/iqhl0iixec"
p2
sS'Created At'
p3
S'2015-11-29 02:58:25'
p4
s.(dp0
S'Text'
p1
S'new android app released guys. forest jump!!\ndownload it now on google play:\nhttps://t.co/rhuttjtawq'
p2
sS'Created At'
p3
S'2015-11-29 02:58:25'
p4
s.(dp0
S'Text'
p1
S"after adding a bunch of bloat to the free app, es file explorer's $3 'pro ... - android\xe2\x80\xa6 https://t.co/zz9pkggw5q"
p2
sS'Created At'
p3
S'2015-11-29 02:58:28'
p4
s.(dp0
S'Text'
p1
S'zte light tablet android is\xc2\xa0impressive https://t.co/hjhdbi9cdk'
p2
sS'Created At'
p3
S'2015-11-29 02:58:29'
p4
s.(dp0
S'Text'
p1
S'great set of resources here for android and ios security https://t.co/ysr8bet34o'
p2
sS'Created At'
p3
S'2015-11-29 02:58:29'
p4
s.(dp0
S'Text'
p1
S'cell phone shop : https://t.co/rxrkbltjqk #629 asus zenfone 2e z00d gsm lte att unlocked android 8gb white smartph\xe2\x80\xa6 https://t.co/4ltyww4g6c'
p2
sS'Created At'
p3
S'2015-11-29 02:58:29'
p4
s.(dp0
S'Text'
p1
S'wifi hacker pro software apk crack v5.9 latest: https://t.co/hos0qevluk'
p2
sS'Created At'
p3
S'2015-11-29 02:58:30'
p4
s.(dp0
S'Text'
p1
S'#cellphone #mobile #deal : https://t.co/ulnhayqen2 lg g watch black (w100) android wear smartwatch - frb\n\n$74.99 \xc2\xa0\xe2\x80\xa6 https://t.co/d5jwdi1vgo'
p2
sS'Created At'
p3
S'2015-11-29 02:58:31'
p4
s.(dp0
S'Text'
p1
S'zte light tablet android is\xc2\xa0impressive https://t.co/qsafc0u9wv'
p2
sS'Created At'
p3
S'2015-11-29 02:58:32'
p4
s.(dp0
S'Text'
p1
S'i got a flip phone. https://t.co/akbhtxyyeh'
p2
sS'Created At'
p3
S'2015-11-29 02:58:33'
p4
s.(dp0
S'Text'
p1
S'zte light tablet android is\xc2\xa0impressive https://t.co/iqakdwshb1'
p2
sS'Created At'
p3
S'2015-11-29 02:58:33'
p4
s.(dp0
S'Text'
p1
S'big3314: check out free android app for wi-fi security and unblocking websites! https://t.co/vklu0ezfzt'
p2
sS'Created At'
p3
S'2015-11-29 02:58:33'
p4
s.(dp0
S'Text'
p1
S'aushopshimokita: check out free android app for wi-fi security and unblocking websites! https://t.co/vklu0ezfzt'
p2
sS'Created At'
p3
S'2015-11-29 02:58:34'
p4
s.(dp0
S'Text'
p1
S'4" android 2core dual sim unlocked mobile phone gps at&amp;t 3g/gsm/wcdma smartphone  $36.00 with 1m left https://t.co/qwn57mbphr #android'
p2
sS'Created At'
p3
S'2015-11-29 02:58:34'
p4
s.(dp0
S'Text'
p1
S'albina22535064: check out free android app for wi-fi security and unblocking websites! https://t.co/vklu0ezfzt'
p2
sS'Created At'
p3
S'2015-11-29 02:58:34'
p4
s.(dp0
S'Text'
p1
S'doogee x5 5.0" hd ips android 5.1 3g smartphone ota 8gb bt4.0 quad core gps xmas  $31.00 with 1m left https://t.co/vv0amqadmb #android'
p2
sS'Created At'
p3
S'2015-11-29 02:58:34'
p4
s.(dp0
S'Text'
p1
S'q910536: check out free android app for wi-fi security and unblocking websites! https://t.co/vklu0ezfzt'
p2
sS'Created At'
p3
S'2015-11-29 02:58:34'
p4
s.(dp0
S'Text'
p1
S'#824 irulu babypad y1 7" quad core android 3g wifi tablet pc 1/8gb learning toy gift https://t.co/x9brxxvaqb https://t.co/wcpappjodi'
p2
sS'Created At'
p3
S'2015-11-29 02:58:34'
p4
s.(dp0
S'Text'
p1
S'i need your help on this level of #whatsthesaying! play on ios or android: https://t.co/vptli4csav https://t.co/ffh9wxes9y'
p2
sS'Created At'
p3
S'2015-11-29 02:58:35'
p4
s.(dp0
S'Text'
p1
S'mikamernia2: check out free android app for wi-fi security and unblocking websites! https://t.co/vklu0ezfzt'
p2
sS'Created At'
p3
S'2015-11-29 02:58:35'
p4
s.(dp0
S'Text'
p1
S'haru_dv: check out free android app for wi-fi security and unblocking websites! https://t.co/vklu0ezfzt'
p2
sS'Created At'
p3
S'2015-11-29 02:58:35'
p4
s.(dp0
S'Text'
p1
S'zte light tablet android is\xc2\xa0impressive https://t.co/f3cgkxxavd'
p2
sS'Created At'
p3
S'2015-11-29 02:58:35'
p4
s.(dp0
S'Text'
p1
S'laiveafter: check out free android app for wi-fi security and unblocking websites! https://t.co/vklu0ezfzt'
p2
sS'Created At'
p3
S'2015-11-29 02:58:35'
p4
s.(dp0
S'Text'
p1
S'tonettewhitehea: check out free android app for wi-fi security and unblocking websites! https://t.co/vklu0ezfzt'
p2
sS'Created At'
p3
S'2015-11-29 02:58:36'
p4
s.(dp0
S'Text'
p1
S'ivrtuabotxi: check out free android app for wi-fi security and unblocking websites! https://t.co/vklu0ezfzt'
p2
sS'Created At'
p3
S'2015-11-29 02:58:36'
p4
s.(dp0
S'Text'
p1
S"i'm earning #mplusrewards in splat da bat android. https://t.co/lv61o6s9zu"
p2
sS'Created At'
p3
S'2015-11-29 02:58:36'
p4
s.(dp0
S'Text'
p1
S'monmoncutie: check out free android app for wi-fi security and unblocking websites! https://t.co/vklu0ezfzt'
p2
sS'Created At'
p3
S'2015-11-29 02:58:37'
p4
s.(dp0
S'Text'
p1
S'jye_eunsecret: check out free android app for wi-fi security and unblocking websites! https://t.co/vklu0ezfzt'
p2
sS'Created At'
p3
S'2015-11-29 02:58:37'
p4
s.(dp0
S'Text'
p1
S'cell phone shop : https://t.co/isxuvbna8w #629 gv08 bluetooth smart watch touch screen phone mate for android&amp; iph\xe2\x80\xa6 https://t.co/mfedmtlbto'
p2
sS'Created At'
p3
S'2015-11-29 02:58:37'
p4
s.(dp0
S'Text'
p1
S'htedazzlediav: check out free android app for wi-fi security and unblocking websites! https://t.co/vklu0ezfzt'
p2
sS'Created At'
p3
S'2015-11-29 02:58:37'
p4
s.(dp0
S'Text'
p1
S'zte light tablet android is\xc2\xa0impressive https://t.co/hgemqjpgkq'
p2
sS'Created At'
p3
S'2015-11-29 02:58:37'
p4
s.(dp0
S'Text'
p1
S'#10billionwives \ni married199,115,963,263,624wives!\n\nios: https://t.co/obmuug1cen\nandroid: https://t.co/26lseu9cqz https://t.co/cuiyuhlnhj'
p2
sS'Created At'
p3
S'2015-11-29 02:58:37'
p4
s.(dp0
S'Text'
p1
S'assmaid: check out free android app for wi-fi security and unblocking websites! https://t.co/vklu0ezfzt'
p2
sS'Created At'
p3
S'2015-11-29 02:58:37'
p4
s.(dp0
S'Text'
p1
S'ulyana86255596: check out free android app for wi-fi security and unblocking websites! https://t.co/vklu0ezfzt'
p2
sS'Created At'
p3
S'2015-11-29 02:58:38'
p4
s.(dp0
S'Text'
p1
S'aliciah82: check out free android app for wi-fi security and unblocking websites! https://t.co/vklu0ezfzt'
p2
sS'Created At'
p3
S'2015-11-29 02:58:38'
p4
s.(dp0
S'Text'
p1
S'android google play store app gets ui update. the new play store shows all categories sorted on.. https://t.co/mthxhmxlig #gadget'
p2
sS'Created At'
p3
S'2015-11-29 02:58:38'
p4
s.(dp0
S'Text'
p1
S'gidget_adams: check out free android app for wi-fi security and unblocking websites! https://t.co/vklu0ezfzt'
p2
sS'Created At'
p3
S'2015-11-29 02:58:39'
p4
s.(dp0
S'Text'
p1
S'tinythen: check out free android app for wi-fi security and unblocking websites! https://t.co/vklu0ezfzt'
p2
sS'Created At'
p3
S'2015-11-29 02:58:39'
p4
s.(dp0
S'Text'
p1
S'azizah_restii: check out free android app for wi-fi security and unblocking websites! https://t.co/vklu0ezfzt'
p2
sS'Created At'
p3
S'2015-11-29 02:58:39'
p4
s.(dp0
S'Text'
p1
S'ika_ri: check out free android app for wi-fi security and unblocking websites! https://t.co/vklu0ezfzt'
p2
sS'Created At'
p3
S'2015-11-29 02:58:40'
p4
s.(dp0
S'Text'
p1
S'nowplaying : gramatik - a bright day (original mix)\n\ntune in https://t.co/opfsd3gfno\n #android app https://t.co/mfyw7heajd\n#peripouwebradio'
p2
sS'Created At'
p3
S'2015-11-29 02:58:40'
p4
s.(dp0
S'Text'
p1
S'gonna get a android and stick my cock in it'
p2
sS'Created At'
p3
S'2015-11-29 02:58:42'
p4
s.(dp0
S'Text'
p1
S'hot deals &gt; https://t.co/py4bw0g3fp zopo speed 7 5.0" fhd android 5.1 3gb ram 4g smartphone 64bit octacore 13mp wi\xe2\x80\xa6 https://t.co/nuovikxie3'
p2
sS'Created At'
p3
S'2015-11-29 02:58:42'
p4
s.(dp0
S'Text'
p1
S'irulu tablet new 7" google android 4.4 quad core dual camera 16gb w/ keyboard https://t.co/1tsyfhqozj #464 https://t.co/ycc8kboscx'
p2
sS'Created At'
p3
S'2015-11-29 02:58:42'
p4
s.(dp0
S'Text'
p1
S'hot deals &gt; https://t.co/7pwwgl8het sky devices 5.0w 5" android 4.4 quadcore gsm unlocked 4g dual sim cell phone https://t.co/wts1fru0ky'
p2
sS'Created At'
p3
S'2015-11-29 02:58:42'
p4
s.(dp0
S'Text'
p1
S"i'm earning #mplusrewards in name da state android. https://t.co/znpkxduojs"
p2
sS'Created At'
p3
S'2015-11-29 02:58:43'
p4
s.(dp0
S'Text'
p1
S'windows 10 tablets - better than ipad and android?\n\nhttps://t.co/ihviblljfc via @youtube'
p2
sS'Created At'
p3
S'2015-11-29 02:58:46'
p4
s.(dp0
S'Text'
p1
S'attention android users!!!!\nfree google play store money when you sign up and take the surveys. \n\n(no joke) https://t.co/pdhm5bndj7'
p2
sS'Created At'
p3
S'2015-11-29 02:58:46'
p4
s.(dp0
S'Text'
p1
S"i'm earning #mplusrewards in name da president (android). https://t.co/pqahi6s8fg"
p2
sS'Created At'
p3
S'2015-11-29 02:58:47'
p4
s.(dp0
S'Text'
p1
S'the #111 &amp; #emergency contacts #iphone &amp; #android app for #kiwis #nz @kiwi_chatter\n\nhttps://t.co/cntx0s9hys https://t.co/mqdlf4dix3'
p2
sS'Created At'
p3
S'2015-11-29 02:58:47'
p4
s.(dp0
S'Text'
p1
S'irulu tablet new 7" google android 4.4 quad core dual camera 16gb w/ keyboard https://t.co/muy5xok8o5 #8093 https://t.co/xl6o60pxcb'
p2
sS'Created At'
p3
S'2015-11-29 02:58:47'
p4
s.(dp0
S'Text'
p1
S'https://t.co/ehzhxmxjxv #4013 lg g stylo lte android 5.7" smartphone works with boost mobile \xe2\x80\x93 new\n\n$99.99\nend dat\xe2\x80\xa6 https://t.co/kelemqotfx'
p2
sS'Created At'
p3
S'2015-11-29 02:58:48'
p4
s.(dp0
S'Text'
p1
S'bluetooth headphones innoo tech qy10 update qy9 v4.1 wireless sport headset stereo earbuds sweatproof in-ear noise\xe2\x80\xa6 https://t.co/6ius2md2kz'
p2
sS'Created At'
p3
S'2015-11-29 02:58:48'
p4
s.(dp0
S'Text'
p1
S'access and control android devices remotely from mac/win/web with #airdroid3:https://t.co/em7wneqgi7 https://t.co/6e3alnquv5'
p2
sS'Created At'
p3
S'2015-11-29 02:58:51'
p4
s.(dp0
S'Text'
p1
S'#10billionwives \ni married23,965,058,016,755,151wives!\n\nios: https://t.co/6unnwt4awy\nandroid: http:// https://t.co/g100sfizcl'
p2
sS'Created At'
p3
S'2015-11-29 02:58:54'
p4
s.(dp0
S'Text'
p1
S"i'm earning #mplusrewards in flip da coin android. https://t.co/yxsjtbrtyn"
p2
sS'Created At'
p3
S'2015-11-29 02:58:54'
p4
s.(dp0
S'Text'
p1
S'\xe2\x80\x98the walking dead\xe2\x80\x99 finally reveals glenn\xef\xbf\xbd https://t.co/dfke2woofw #trending #trending #news #startups #howto #diy #android #howto #apps'
p2
sS'Created At'
p3
S'2015-11-29 02:58:54'
p4
s.(dp0
S'Text'
p1
S'@humanoidavenger it was strange for her to talk to an android, but she\'s been through stranger things.\n\n"it calms people down -'
p2
sS'Created At'
p3
S'2015-11-29 02:58:54'
p4
s.(dp0
S'Text'
p1
S'beat my 212m in #miniracingadventures [ios]: https://t.co/f9yfbphevq [android]: https://t.co/v33wbaf9hc'
p2
sS'Created At'
p3
S'2015-11-29 02:58:55'
p4
s.(dp0
S'Text'
p1
S'https://t.co/jyeocooecr #1005 unlocked new lg nexus 5 (d820) - 16gb 8mp camera - (black) android os smartphone\n\n$1\xe2\x80\xa6 https://t.co/y26jlp0r0m'
p2
sS'Created At'
p3
S'2015-11-29 02:58:55'
p4
s.(dp0
S'Text'
p1
S"i'm earning #mplusrewards in da daily insult android. https://t.co/ts3oqiuj4r"
p2
sS'Created At'
p3
S'2015-11-29 02:58:56'
p4
s.(dp0
S'Text'
p1
S"i'm earning #mplusrewards in tap da cookie android. https://t.co/a7cb7qxv9l"
p2
sS'Created At'
p3
S'2015-11-29 02:58:57'
p4
s.(dp0
S'Text'
p1
S'lenovo tab 2 a10-70, 10.1" fhd, 2gb ram, 16gb, android 4.4 - midnight blue https://t.co/chrzsldusv #1028 https://t.co/e44b3onbbk'
p2
sS'Created At'
p3
S'2015-11-29 02:58:57'
p4
s.(dp0
S'Text'
p1
S"i'm earning #mplusrewards in https://t.co/zybh6hsiia for android. https://t.co/6qyirhovrk @dictionarycom"
p2
sS'Created At'
p3
S'2015-11-29 02:58:58'
p4
s.(dp0
S'Text'
p1
S'phones &amp; deals : https://t.co/riw29zkobo #819 zopo speed 7 5.0" fhd android 5.1 3gb ram 4g smartphone 64bit octaco\xe2\x80\xa6 https://t.co/z5ubfonsdb'
p2
sS'Created At'
p3
S'2015-11-29 02:58:58'
p4
s.(dp0
S'Text'
p1
S'check out the "ultimate holiday tech gift guide 2015 \xe2\x80\x93 2016" tons of #android and tech gift ideas https://t.co/rnva0gvepz #christmas #xmas'
p2
sS'Created At'
p3
S'2015-11-29 02:58:58'
p4
s.(dp0
S'Text'
p1
S'phones &amp; deals : https://t.co/v604xncpv9 #819 sky devices 5.0w 5" android 4.4 quadcore gsm unlocked 4g dual sim ce\xe2\x80\xa6 https://t.co/jeszgjuibc'
p2
sS'Created At'
p3
S'2015-11-29 02:58:58'
p4
s.(dp0
S'Text'
p1
S'irulu expro x1 9" quad core android 4.4 kitkat bluetooth 8gb tablet w/ keyboard https://t.co/tl0m9apjyp #1028 https://t.co/6zwmin9ejq'
p2
sS'Created At'
p3
S'2015-11-29 02:58:59'
p4
s.(dp0
S'Text'
p1
S'star wars: galaxy of heroes - gameplay [ios/android]: https://t.co/tny5udi845 via @youtube'
p2
sS'Created At'
p3
S'2015-11-29 02:59:00'
p4
s.(dp0
S'Text'
p1
S'enter to win "the great android holiday giveaway" from https://t.co/uki2niehjs https://t.co/qxg6hfuq2n ,  over 25 #android prizes to be won!'
p2
sS'Created At'
p3
S'2015-11-29 02:59:00'
p4
s.(dp0
S'Text'
p1
S'ted from woodbury/gloucester https://t.co/8asepov40u \n\n#woodbury/gloucester  #laptop #android #iphone'
p2
sS'Created At'
p3
S'2015-11-29 02:59:00'
p4
s.(dp0
S'Text'
p1
S'phones &amp; deals :https://t.co/bekywtbhlp #2324 htc one m8 6525- 16gb android wi-fi gsm unlocked touchscreen smartp\xe2\x80\xa6 https://t.co/3jrmik5pw0'
p2
sS'Created At'
p3
S'2015-11-29 02:59:02'
p4
s.(dp0
S'Text'
p1
S'cell phones #deals &gt;&gt; https://t.co/8tpbpcipce #812 new htc first 16gb unlocked gsm 4g lte dual-core android cell p\xe2\x80\xa6 https://t.co/prsonqgqw9'
p2
sS'Created At'
p3
S'2015-11-29 02:59:03'
p4
s.(dp0
S'Text'
p1
S'enter to win a google nexus 5 android smartphone @androidheadline #android #nexus #nexus5x  https://t.co/n4prll7rxj'
p2
sS'Created At'
p3
S'2015-11-29 02:59:04'
p4
s.(dp0
S'Text'
p1
S'#rt for #iphone, #fav for #android, #followme for #desktop'
p2
sS'Created At'
p3
S'2015-11-29 02:59:06'
p4
s.(dp0
S'Text'
p1
S"i'm earning #mplusrewards in flip da coin android. https://t.co/bghfsyi6xi"
p2
sS'Created At'
p3
S'2015-11-29 02:59:07'
p4
s.(dp0
S'Text'
p1
S"i'm earning #mplusrewards in flip da coin android. https://t.co/ta0wwnkoak"
p2
sS'Created At'
p3
S'2015-11-29 02:59:07'
p4
s.(dp0
S'Text'
p1
S"i'm now a d-list celebrity in kim kardashian: hollywood. you can be famous too by playing on android! https://t.co/xtzc6bsp1a"
p2
sS'Created At'
p3
S'2015-11-29 02:59:07'
p4
s.(dp0
S'Text'
p1
S'honestly kind of regret getting the iphone 6s. it feels dumber than my android imo.'
p2
sS'Created At'
p3
S'2015-11-29 02:59:08'
p4
s.(dp0
S'Text'
p1
S'#crusadersquest #modapk https://t.co/og5vmyxirr (unlocked everything) android modded game free download https://t.co/om8kzkwxag'
p2
sS'Created At'
p3
S'2015-11-29 02:59:08'
p4
s.(dp0
S'Text'
p1
S'@compvnyy hi hzpe u love this funny android/ios/web\xf0\x9f\x94\x8dgame https://t.co/jwk3qf8sq3 ty"'
p2
sS'Created At'
p3
S'2015-11-29 02:59:08'
p4
s.(dp0
S'Text'
p1
S'i may be wrong but, this is not how walking down stairs works. https://t.co/15h8vngvzc'
p2
sS'Created At'
p3
S'2015-11-29 02:59:09'
p4
s.(dp0
S'Text'
p1
S'phones offers &gt;&gt; https://t.co/drv0euqto8 #034 motorola xt1080m droid maxx 32gb verizon wireless android wifi black\xe2\x80\xa6 https://t.co/gkwtqnv3qn'
p2
sS'Created At'
p3
S'2015-11-29 02:59:10'
p4
s.(dp0
S'Text'
p1
S'real madrid keyboard - android apps on google play https://t.co/4zushbbja0'
p2
sS'Created At'
p3
S'2015-11-29 02:59:10'
p4
s.(dp0
S'Text'
p1
S'iphone \xf0\x9f\x98\x8b https://t.co/jgu2elhcax'
p2
sS'Created At'
p3
S'2015-11-29 02:59:10'
p4
s.(dp0
S'Text'
p1
S'great deals &gt;&gt; https://t.co/wnmudylqbd ecoxgear ecoxbt waterproof floating iphone/android bluetooth speaker -black\xe2\x80\xa6 https://t.co/gqj9dyxxts'
p2
sS'Created At'
p3
S'2015-11-29 02:59:10'
p4
s.(dp0
S'Text'
p1
S'download @mixlr apple \xf0\x9f\x91\x89 https://t.co/pped94klhr android \xf0\x9f\x91\x89 https://t.co/jallbiwkit then tune into #shonevilleradio https://t.co/cf094xcqrk'
p2
sS'Created At'
p3
S'2015-11-29 02:59:12'
p4
s.(dp0
S'Text'
p1
S"#top3apps for 'rod pampling'\n\ntwitter for iphone 41%\ntwitter web client 14%\ntwitter for android 13%"
p2
sS'Created At'
p3
S'2015-11-29 02:59:12'
p4
s.(dp0
S'Text'
p1
S'hot cell phones #842 : https://t.co/l8tfakuuge zopo speed 7 5.0" fhd android 5.1 3gb ram 4g smartphone 64bit octac\xe2\x80\xa6 https://t.co/zwfmch7ofe'
p2
sS'Created At'
p3
S'2015-11-29 02:59:12'
p4
s.(dp0
S'Text'
p1
S'hot cell phones #842 : https://t.co/tdj7y6k3d9 sky devices 5.0w 5" android 4.4 quadcore gsm unlocked 4g dual sim c\xe2\x80\xa6 https://t.co/lycliuzq0f'
p2
sS'Created At'
p3
S'2015-11-29 02:59:12'
p4
s.(dp0
S'Text'
p1
S"i'm earning #mplusrewards in https://t.co/ov06a9j0ww for android. https://t.co/zcczcnyhzm @dictionarycom"
p2
sS'Created At'
p3
S'2015-11-29 02:59:13'
p4
s.(dp0
S'Text'
p1
S"i'm earning #mplusrewards in cut da deck android. https://t.co/ssdodiqta4"
p2
sS'Created At'
p3
S'2015-11-29 02:59:15'
p4
s.(dp0
S'Text'
p1
S'4" android 2core dual sim unlocked mobile phone gps at&amp;t 3g/gsm/wcdma smartphone  $36.00 with &lt;1m left https://t.co/qwn57mbphr #android'
p2
sS'Created At'
p3
S'2015-11-29 02:59:15'
p4
s.(dp0
S'Text'
p1
S'doogee x5 5.0" hd ips android 5.1 3g smartphone ota 8gb bt4.0 quad core gps xmas  $31.00 with 1m left https://t.co/vv0amqrodj #android'
p2
sS'Created At'
p3
S'2015-11-29 02:59:16'
p4
s.(dp0
S'Text'
p1
S"what's wrong with android users \xf0\x9f\x98\x91 https://t.co/rqlloyhjvz"
p2
sS'Created At'
p3
S'2015-11-29 02:59:17'
p4
s.(dp0
S'Text'
p1
S'mr_infamouz: enter to win "the great android holiday giveaway" from https://t.co/4zabalonhd https://t.co/msw82bamzi ,  over 25 #android p\xe2\x80\xa6'
p2
sS'Created At'
p3
S'2015-11-29 02:59:18'
p4
s.(dp0
S'Text'
p1
S'pennilesstchr: pennilesstchr: ursuscorax: enter to win "the great android holiday giveaway" from https://t.co/4zabalonhd \xe2\x80\xa6'
p2
sS'Created At'
p3
S'2015-11-29 02:59:19'
p4
s.(dp0
S'Text'
p1
S'@danherepe only for android right?'
p2
sS'Created At'
p3
S'2015-11-29 02:59:21'
p4
s.(dp0
S'Text'
p1
S'12. iphone or android'
p2
sS'Created At'
p3
S'2015-11-29 02:59:22'
p4
s.(dp0
S'Text'
p1
S'top android news of the week: $161 #tablet, jolla halts deliveries, motorola \nupdates \n \nhttps://t.co/3cfpd4wfgv'
p2
sS'Created At'
p3
S'2015-11-29 02:59:22'
p4
s.(dp0
S'Text'
p1
S'https://t.co/7lvowx6fde #9644 new!! blu studio c 5.0 d830u 8gb 8.0mp dual-sim gsm unlocked android smartphone\n\n$84\xe2\x80\xa6 https://t.co/fen7jb6bvw'
p2
sS'Created At'
p3
S'2015-11-29 02:59:24'
p4
s.(dp0
S'Text'
p1
S'https://t.co/soisnuaj9o #7964 5" unlocked 3g gsm at&amp;t t-mobile straight talk android cell phone smartphone gps\n\n$4\xe2\x80\xa6 https://t.co/wj0gfpl39f'
p2
sS'Created At'
p3
S'2015-11-29 02:59:25'
p4
s.(dp0
S'Text'
p1
S'https://t.co/zha6topzvk #7625 5" unlocked 3g gsm at&amp;t t-mobile straight talk android cell phone smartphone gps\n\n$4\xe2\x80\xa6 https://t.co/lmhn3gfodr'
p2
sS'Created At'
p3
S'2015-11-29 02:59:27'
p4
s.(dp0
S'Text'
p1
S'https://t.co/njxawgmjqn #3196 6.0" unlocked dual core android 4.4 smartphone ips gsm gps 3g cell phone at\n\n$65.99\n\xe2\x80\xa6 https://t.co/txfzrq3uoo'
p2
sS'Created At'
p3
S'2015-11-29 02:59:28'
p4
s.(dp0
S'Text'
p1
S'https://t.co/nulebyjqfz #7814 new unlocked t-mobile family straight talk samsung galaxy s4 m919 white android\n\n$20\xe2\x80\xa6 https://t.co/y61edouyum'
p2
sS'Created At'
p3
S'2015-11-29 02:59:29'
p4
s.(dp0
S'Text'
p1
S"i'm earning #mplusrewards in light da fuse android. https://t.co/eqsb6uehje"
p2
sS'Created At'
p3
S'2015-11-29 02:59:30'
p4
s.(dp0
S'Text'
p1
S'https://t.co/a9ivji3imh #2431 5.5" unlocked 3g for straight talk at&amp;t t-mobile smartphone android cell phone\n\n$59.\xe2\x80\xa6 https://t.co/kyfp1zav4j'
p2
sS'Created At'
p3
S'2015-11-29 02:59:30'
p4
s.(dp0
S'Text'
p1
S"@onestriped my android life will soon be over &amp; i will be taking y'all bitches \xf0\x9f\x98\x87"
p2
sS'Created At'
p3
S'2015-11-29 02:59:30'
p4
s.(dp0
S'Text'
p1
S'lose stuff? use your iphone or android to find it with trackr. https://t.co/z6ygfkwwp9 via @thetrackr'
p2
sS'Created At'
p3
S'2015-11-29 02:59:30'
p4
s.(dp0
S'Text'
p1
S'i hate android phones because u get the same text like 30x in less than 5 mins'
p2
sS'Created At'
p3
S'2015-11-29 02:59:31'
p4
s.(dp0
S'Text'
p1
S'https://t.co/si714vfei8 #4571 zte warp elite 5.5" android smartphone works with boost mobile - new\n\n$139.99\nend da\xe2\x80\xa6 https://t.co/oebsmblgjf'
p2
sS'Created At'
p3
S'2015-11-29 02:59:31'
p4
s.(dp0
S'Text'
p1
S'https://t.co/yc3vk6klv1 #9792 new blu advance 4.0l a010u android 4.4 2mp 4gb memory dual sim unlocked (white)\n\n$48\xe2\x80\xa6 https://t.co/wi6jibzpyd'
p2
sS'Created At'
p3
S'2015-11-29 02:59:32'
p4
s.(dp0
S'Text'
p1
S'#portable #audio #5: livescribe 3 smartpen for android &amp; ios tablets and smartphones: livescribe 3 smar... https://t.co/rga7s0omdu #video'
p2
sS'Created At'
p3
S'2015-11-29 02:59:33'
p4
s.(dp0
S'Text'
p1
S'best new android and iphone apps of the week (november 17th - november 23rd) - phone arena https://t.co/zhdzjp6swt'
p2
sS'Created At'
p3
S'2015-11-29 02:59:33'
p4
s.(dp0
S'Text'
p1
S"i'm earning #mplusrewards in roll da dice android. https://t.co/ttvrk2ahpm"
p2
sS'Created At'
p3
S'2015-11-29 02:59:33'
p4
s.(dp0
S'Text'
p1
S'#android leads #apple in the smartphone marketshare battle. https://t.co/d1qanspsy8'
p2
sS'Created At'
p3
S'2015-11-29 02:59:34'
p4
s.(dp0
S'Text'
p1
S'original goophone 1:1 i6 quad core i6 plus 5.5" ips 1136*750 4.7" phone i6 16g/64g/128g goophone i6 3g gps touch id https://t.co/jzo1xqnbuz'
p2
sS'Created At'
p3
S'2015-11-29 02:59:34'
p4
s.(dp0
S'Text'
p1
S'iphone  https://t.co/thhx5wjiun'
p2
sS'Created At'
p3
S'2015-11-29 02:59:34'
p4
s.(dp0
S'Text'
p1
S'https://t.co/ay7yetnqcz #1332 5" unlocked qhd android 4.4 smartphone dual core dual sim at&amp;t cell phone 3g/gsm\n\n$4\xe2\x80\xa6 https://t.co/ttwvxynw9y'
p2
sS'Created At'
p3
S'2015-11-29 02:59:34'
p4
s.(dp0
S'Text'
p1
S"i'm earning #mplusrewards in the daily puppy android. https://t.co/eflbig82or"
p2
sS'Created At'
p3
S'2015-11-29 02:59:35'
p4
s.(dp0
S'Text'
p1
S"i'm earning #mplusrewards in roll da dice android. https://t.co/84kgnevkfi"
p2
sS'Created At'
p3
S'2015-11-29 02:59:35'
p4
s.(dp0
S'Text'
p1
S'https://t.co/ughwh5s3sw #8213 5" unlocked 3g gsm at&amp;t t-mobile straight talk android cell phone smartphone gps\n\n$4\xe2\x80\xa6 https://t.co/fzjcjpjwci'
p2
sS'Created At'
p3
S'2015-11-29 02:59:36'
p4
s.(dp0
S'Text'
p1
S'new #android #app: quicksand - font cm12 https://t.co/c66zvzb9yk'
p2
sS'Created At'
p3
S'2015-11-29 02:59:38'
p4
s.(dp0
S'Text'
p1
S"i got a new maritime trader achievement in maritime kingdom! i've got gifts for all! https://t.co/zhwdemxiqd #android #gameinsight"
p2
sS'Created At'
p3
S'2015-11-29 02:59:38'
p4
s.(dp0
S'Text'
p1
S'new #android #app: scorpio emoji keyboard colors https://t.co/jnf5aehr6r'
p2
sS'Created At'
p3
S'2015-11-29 02:59:38'
p4
s.(dp0
S'Text'
p1
S'new #android #app: learn to draw mineckraft https://t.co/4zitzlmel4'
p2
sS'Created At'
p3
S'2015-11-29 02:59:38'
p4
s.(dp0
S'Text'
p1
S'@wshandcock @charlee_chase those pesky android phones....'
p2
sS'Created At'
p3
S'2015-11-29 02:59:39'
p4
s.(dp0
S'Text'
p1
S"i'm earning #mplusrewards in https://t.co/qibkywwgbu for android. https://t.co/dsu86dbc2p @dictionarycom"
p2
sS'Created At'
p3
S'2015-11-29 02:59:39'
p4
s.(dp0
S'Text'
p1
S'computer shop #1091 &gt; https://t.co/qs5t8dlkjw irulu expro x1 7" android 4.4 quad core gms 8gb white tablets w/ fre\xe2\x80\xa6 https://t.co/adfe800kyr'
p2
sS'Created At'
p3
S'2015-11-29 02:59:40'
p4
s.(dp0
S'Text'
p1
S'magic piano \xe2\x80\x93 have fun with this app for android https://t.co/lq0onocjdr'
p2
sS'Created At'
p3
S'2015-11-29 02:59:41'
p4
s.(dp0
S'Text'
p1
S'https://t.co/7nr2wfph7w #1406 htc one m8 (android model) 32gb (factory unlocked) phone great gray gold silver\n\n$22\xe2\x80\xa6 https://t.co/3omwiiuakg'
p2
sS'Created At'
p3
S'2015-11-29 02:59:41'
p4
s.(dp0
S'Text'
p1
S'#10billionwives \ni married4,070,083,192,596wives!\n\nios: https://t.co/olrheine4s\nandroid: https://t.co/9ushxdfgwh https://t.co/bvmi3spmu1'
p2
sS'Created At'
p3
S'2015-11-29 02:59:42'
p4
s.(dp0
S'Text'
p1
S'iphone  https://t.co/hdxxrxnia1'
p2
sS'Created At'
p3
S'2015-11-29 02:59:43'
p4
s.(dp0
S'Text'
p1
S'totally forgot that you can use wifi to talk to other people who have iphones. good thing all my friends have android and i have no service\xf0\x9f\x98\x8a'
p2
sS'Created At'
p3
S'2015-11-29 02:59:44'
p4
s.(dp0
S'Text'
p1
S"i'm earning #mplusrewards in cut da deck android. https://t.co/20xgreucyo"
p2
sS'Created At'
p3
S'2015-11-29 02:59:44'
p4
s.(dp0
S'Text'
p1
S"i've finished the visit baron de albert's castle quest! are you able to fulfil the same task? https://t.co/sqf9e6dxib #android,#androi..."
p2
sS'Created At'
p3
S'2015-11-29 02:59:45'
p4
s.(dp0
S'Text'
p1
S'https://t.co/wq47xm0hy2 #2526 unlocked t-mobile htc one m8 gunmetal gray 32gb 4g lte gsm android smartphone\n\n$196.\xe2\x80\xa6 https://t.co/phw6am5u54'
p2
sS'Created At'
p3
S'2015-11-29 02:59:44'
p4
s.(dp0
S'Text'
p1
S"i'm earning #mplusrewards in name da flag android. https://t.co/r7jkiyvktb"
p2
sS'Created At'
p3
S'2015-11-29 02:59:45'
p4
s.(dp0
S'Text'
p1
S'pomotodo android app is now available at https://t.co/xqd0fun7n1 repository. https://t.co/eanaj5xgyo'
p2
sS'Created At'
p3
S'2015-11-29 02:59:45'
p4
s.(dp0
S'Text'
p1
S"an old 'love actually' trailer contains a bizarre fat joke https://t.co/j9f3gyghnh #apps #news #startups #howto #diy #android #howto #apps"
p2
sS'Created At'
p3
S'2015-11-29 02:59:49'
p4
s.(dp0
S'Text'
p1
S'great deals #424 : https://t.co/td7zzhfror samsung i605 galaxy note 2 16gb verizon wireless 4g lte android wifi sm\xe2\x80\xa6 https://t.co/lc7amklipm'
p2
sS'Created At'
p3
S'2015-11-29 02:59:49'
p4
s.(dp0
S'Text'
p1
S"i'm earning #mplusrewards in guess da number android. https://t.co/8qajcfhtsn"
p2
sS'Created At'
p3
S'2015-11-29 02:59:50'
p4
s.(dp0
S'Text'
p1
S'great deals #424 : https://t.co/nnqiokpc4b r5 sv8 bluetooth smart wrist watch for iphone5s/6/6,android samsung syn\xe2\x80\xa6 https://t.co/sayqzgkbnb'
p2
sS'Created At'
p3
S'2015-11-29 02:59:50'
p4
s.(dp0
S'Text'
p1
S'irulu tablet expro x1pro new 9" 8gb android 4.4 kitkat quad core black w/ caseshttp://rover.ebay.com/rover/1/711-53\xe2\x80\xa6 https://t.co/x04gz5fzwt'
p2
sS'Created At'
p3
S'2015-11-29 02:59:55'
p4
s.(dp0
S'Text'
p1
S"i'm earning #mplusrewards in light da fuse android. https://t.co/wvpsasjbok"
p2
sS'Created At'
p3
S'2015-11-29 02:59:56'
p4
s.(dp0
S'Text'
p1
S'\xe2\x9d\xa4 [free] adult comic viewer (android)\xe2\x9d\xa4 app download \xe2\x96\xba https://t.co/t3jrdr9dk6   #hentai #ecchi #anime #porn1653 https://t.co/jpslitdzih'
p2
sS'Created At'
p3
S'2015-11-29 02:59:57'
p4
s.(dp0
S'Text'
p1
S"i'm earning #mplusrewards in light da fuse android. https://t.co/ijynyfaam3"
p2
sS'Created At'
p3
S'2015-11-29 02:59:59'
p4
s.(dp0
S'Text'
p1
S'8 gb 7"  irulu expro x1a android 4.4 kitkat tablet pc quad core dual camera blue  compra y\xe2\x80\xa6 https://t.co/ioedpqcyvg https://t.co/ppvszr1jgr'
p2
sS'Created At'
p3
S'2015-11-29 02:59:59'
p4
s.(dp0
S'Text'
p1
S'\xe2\x96\xba https://t.co/k5zument7z \xe2\x9d\xa4 [free] adult comic viewer (android)\xe2\x9d\xa4  #hentai #ecchi #anime #porn 439 https://t.co/yhpngpewpm'
p2
sS'Created At'
p3
S'2015-11-29 03:00:00'
p4
s.(dp0
S'Text'
p1
S'please, leave android review for vpn unlimited https://t.co/q8jg5ifx3o'
p2
sS'Created At'
p3
S'2015-11-29 03:00:01'
p4
s.(dp0
S'Text'
p1
S'#newmexico  https://t.co/fu0onrbhid question: what are the android apps that block or confuse #prism?'
p2
sS'Created At'
p3
S'2015-11-29 03:00:01'
p4
s.(dp0
S'Text'
p1
S'jobis fire staion 3.0 apk  #androidapps #apkdownloads #educati\n https://t.co/8adzwtnp9d https://t.co/czckpczgmq'
p2
sS'Created At'
p3
S'2015-11-29 03:00:02'
p4
s.(dp0
S'Text'
p1
S'print your mobile photos with printit app, available for free at ios and android. check us out. free-shipping... https://t.co/qr77zg8wjs'
p2
sS'Created At'
p3
S'2015-11-29 03:00:02'
p4
s.(dp0
S'Text'
p1
S'#nowplaying moderator - meditate (letter to mr.seba jun) (edit) #link6 ios &amp; android app , visit to https://t.co/fomtgzgtxy'
p2
sS'Created At'
p3
S'2015-11-29 03:00:02'
p4
s.(dp0
S'Text'
p1
S"i'm earning #mplusrewards in guess da number android. https://t.co/clitkajtvr"
p2
sS'Created At'
p3
S'2015-11-29 03:00:03'
p4
s.(dp0
S'Text'
p1
S'#oneclickroot: how-to safely #root #sony c6906 (build: 14\xe2\x80\xa44\xe2\x80\xa4a\xe2\x80\xa40\xe2\x80\xa4108) running #android 4.4.4 https://t.co/8xszpd4cxk'
p2
sS'Created At'
p3
S'2015-11-29 03:00:03'
p4
s.(dp0
S'Text'
p1
S'#oneclickroot: how-to safely #root #micromax a075 running #android 4.0.3 https://t.co/lh0h8qnobu'
p2
sS'Created At'
p3
S'2015-11-29 03:00:03'
p4
s.(dp0
S'Text'
p1
S'#oneclickroot: how-to safely #root #samsung gt-i8260 (build: jzo54k\xe2\x80\xa4i8260xxanh2) running #android 4.1.2 https://t.co/0vkuswbnyk'
p2
sS'Created At'
p3
S'2015-11-29 03:00:04'
p4
s.(dp0
S'Text'
p1
S'mobiles : https://t.co/z19c9u1vuv #4092 asus padfone x mini - unlocked - android 4.4, lte, phone and tablet t00s s\xe2\x80\xa6 https://t.co/qgpon1luux'
p2
sS'Created At'
p3
S'2015-11-29 03:00:04'
p4
s.(dp0
S'Text'
p1
S"now playing steves j. bryan's transition via @datpiff's android app https://t.co/3su6aozfey https://t.co/tkqevvwu4s"
p2
sS'Created At'
p3
S'2015-11-29 03:00:07'
p4
s.(dp0
S'Text'
p1
S'i just completed the quest helen in paradise island for android! https://t.co/vk0wfmrnwh #gameinsight'
p2
sS'Created At'
p3
S'2015-11-29 03:00:08'
p4
s.(dp0
S'Text'
p1
S'stream free | flames vs. sharks on the cbc sports app for ios and android. https://t.co/2xdstrwzrk https://t.co/gxdnjgn9qk'
p2
sS'Created At'
p3
S'2015-11-29 03:00:08'
p4
s.(dp0
S'Text'
p1
S'iphone  https://t.co/kse3wixydr'
p2
sS'Created At'
p3
S'2015-11-29 03:00:09'
p4
s.(dp0
S'Text'
p1
S'#smartwatch best s68 smart wrist watch #bluetooth phone mate for #android ios #iphone samsung lg https://t.co/vlv3hqxcmm #smartwatches'
p2
sS'Created At'
p3
S'2015-11-29 03:00:09'
p4
s.(dp0
S'Text'
p1
S'just another easy adventure~ &gt;_&lt;   android:https://t.co/pgib17b1tv  ios:https://t.co/iqwd8jyrjh https://t.co/ax4airshym'
p2
sS'Created At'
p3
S'2015-11-29 03:00:09'
p4
s.(dp0
S'Text'
p1
S'hi im alex i make applications for the android platform amazon app store https://t.co/bimadlwlgn november 29, 2015 at 03:00am'
p2
sS'Created At'
p3
S'2015-11-29 03:00:09'
p4
s.(dp0
S'Text'
p1
S'enter to win a google nexus 6p android smartphone @androidheadline #android #nexus #nexus6p https://t.co/oenh4e7cxc'
p2
sS'Created At'
p3
S'2015-11-29 03:00:11'
p4
s.(dp0
S'Text'
p1
S'get snap happy #htconelifesa #android smartphone apps https://t.co/wn13a5ok7q #thelifesway'
p2
sS'Created At'
p3
S'2015-11-29 03:00:11'
p4
s.(dp0
S'Text'
p1
S'stream free | flames vs. sharks on the cbc sports app for ios and android. https://t.co/e7fywi9nwb https://t.co/vnqpxextqn'
p2
sS'Created At'
p3
S'2015-11-29 03:00:11'
p4
s.(dp0
S'Text'
p1
S'iphone  https://t.co/uqfol6zvfm'
p2
sS'Created At'
p3
S'2015-11-29 03:00:12'
p4
s.(dp0
S'Text'
p1
S"#top3apps for 'guido albers'\n\ntwitter for android 45%\ntwitter for iphone 27%\ntwitter web client 18%"
p2
sS'Created At'
p3
S'2015-11-29 03:00:12'
p4
s.(dp0
S'Text'
p1
S'instagram is testing support for multiple accounts on android https://t.co/uyaro07bi9 #android #instagram https://t.co/eqcgidermr'
p2
sS'Created At'
p3
S'2015-11-29 03:00:19'
p4
s.(dp0
S'Text'
p1
S'escan mobile security for android... https://t.co/tdkuctuism'
p2
sS'Created At'
p3
S'2015-11-29 03:00:21'
p4
s.(dp0
S'Text'
p1
S"i'm now a d-list celebrity in kim kardashian: hollywood. you can be famous too by playing on android! https://t.co/wfvczd88h4"
p2
sS'Created At'
p3
S'2015-11-29 03:00:22'
p4
s.(dp0
S'Text'
p1
S'i liked a @youtube video https://t.co/vrubfaolqe how to stream to youtube live from android using bigvencoder'
p2
sS'Created At'
p3
S'2015-11-29 03:00:24'
p4
s.(dp0
S'Text'
p1
S'enter to win "the great android holiday giveaway" from https://t.co/vg2ibmk7us https://t.co/kxve6vpdoy,  over 25 #android prizes to be won!'
p2
sS'Created At'
p3
S'2015-11-29 03:00:27'
p4
s.(dp0
S'Text'
p1
S'apps ios and android for "radiosky music jazz" is available:\nios\nhttps://t.co/oncvnaig0m\nandroid\nhttps://t.co/m7zfl5udkd \n.004'
p2
sS'Created At'
p3
S'2015-11-29 03:00:29'
p4
s.(dp0
S'Text'
p1
S'@camerupts this is cuter on android'
p2
sS'Created At'
p3
S'2015-11-29 03:00:30'
p4
s.(dp0
S'Text'
p1
S'@nikkismode @sashashield holley has android 3g phone'
p2
sS'Created At'
p3
S'2015-11-29 03:00:30'
p4
s.(dp0
S'Text'
p1
S'iphone https://t.co/umigtqotuv'
p2
sS'Created At'
p3
S'2015-11-29 03:00:31'
p4
s.(dp0
S'Text'
p1
S"i'm earning #mplusrewards in pga tour (android). https://t.co/ojym2485ov"
p2
sS'Created At'
p3
S'2015-11-29 03:00:31'
p4
s.(dp0
S'Text'
p1
S"i'm earning #mplusrewards in airliners android. https://t.co/ciis8lxu69"
p2
sS'Created At'
p3
S'2015-11-29 03:00:31'
p4
s.(dp0
S'Text'
p1
S'@getpocket i cannot pause "listening tts" from android wear! (moto 360 first gen)'
p2
sS'Created At'
p3
S'2015-11-29 03:00:31'
p4
s.(dp0
S'Text'
p1
S"i'm earning #mplusrewards in light da fuse android. https://t.co/hmajapk8s8"
p2
sS'Created At'
p3
S'2015-11-29 03:00:34'
p4
s.(dp0
S'Text'
p1
S"i'm earning #mplusrewards in name da state android. https://t.co/1xwvokx3vc"
p2
sS'Created At'
p3
S'2015-11-29 03:00:35'
p4
s.(dp0
S'Text'
p1
S'thl t6 pro 3g unlocked smartphone (gift-16gb card) 5.0 inch android 4.4 mtk6592m octa 8 core 1.4ghz, ram 1gb r... https://t.co/ju7x6dn9kb'
p2
sS'Created At'
p3
S'2015-11-29 03:00:36'
p4
s.(dp0
S'Text'
p1
S"i'm earning #mplusrewards in tmz - android. https://t.co/bmqwisweez"
p2
sS'Created At'
p3
S'2015-11-29 03:00:36'
p4
s.(dp0
S'Text'
p1
S'monster legends hack for android and ios add gold, food and gems cheats https://t.co/heicadrfxq'
p2
sS'Created At'
p3
S'2015-11-29 03:00:37'
p4
s.(dp0
S'Text'
p1
S"i'm earning #mplusrewards in light da fuse android. https://t.co/4gndgqljhs"
p2
sS'Created At'
p3
S'2015-11-29 03:00:38'
p4
s.(dp0
S'Text'
p1
S'thl t6 pro 3g unlocked smartphone (gift-16gb card) 5.0 inch android 4.4 mtk6592m octa 8 core 1.4ghz, ram 1gb r... https://t.co/l19vtk8a30'
p2
sS'Created At'
p3
S'2015-11-29 03:00:38'
p4
s.(dp0
S'Text'
p1
S'thl t6 pro 3g unlocked smartphone (gift-16gb card) 5.0 inch android 4.4 mtk6592m octa 8 core 1.4ghz, ram 1gb r... https://t.co/sqj4g0rcpd'
p2
sS'Created At'
p3
S'2015-11-29 03:00:39'
p4
s.(dp0
S'Text'
p1
S'thl t6 pro 3g unlocked smartphone (gift-16gb card) 5.0 inch android 4.4 mtk6592m octa 8 core 1.4ghz, ram 1gb r... https://t.co/edxqi4njth'
p2
sS'Created At'
p3
S'2015-11-29 03:00:39'
p4
s.(dp0
S'Text'
p1
S"sheriff's deputies rescue newborn found buried near river - heartbreaking  https://t.co/s8vr3uclr6 via the @foxnews android app"
p2
sS'Created At'
p3
S'2015-11-29 03:00:39'
p4
s.(dp0
S'Text'
p1
S"it's a android sex party https://t.co/ilmrhewdwj"
p2
sS'Created At'
p3
S'2015-11-29 03:00:39'
p4
s.(dp0
S'Text'
p1
S'thl t6 pro 3g unlocked smartphone (gift-16gb card) 5.0 inch android 4.4 mtk6592m octa 8 core 1.4ghz, ram 1gb r... https://t.co/wdx8sxxz78'
p2
sS'Created At'
p3
S'2015-11-29 03:00:40'
p4
s.(dp0
S'Text'
p1
S'thl t6 pro 3g unlocked smartphone (gift-16gb card) 5.0 inch android 4.4 mtk6592m octa 8 core 1.4ghz, ram 1gb r... https://t.co/wb9lyqitj2'
p2
sS'Created At'
p3
S'2015-11-29 03:00:40'
p4
s.(dp0
S'Text'
p1
S'thl t6 pro 3g unlocked smartphone (gift-16gb card) 5.0 inch android 4.4 mtk6592m octa 8 core 1.4ghz, ram 1gb r... https://t.co/jdfd6clawo'
p2
sS'Created At'
p3
S'2015-11-29 03:00:41'
p4
s.(dp0
S'Text'
p1
S'[this is actual news] instagram starts rolling out multiple account support on ... - android police  https://t.co/izoawoqsoe'
p2
sS'Created At'
p3
S'2015-11-29 03:00:46'
p4
s.(dp0
S'Text'
p1
S"i'm now an a-list celebrity in kim kardashian: hollywood. you can be famous too by playing on android! https://t.co/t5bh0elnma"
p2
sS'Created At'
p3
S'2015-11-29 03:00:46'
p4
s.(dp0
S'Text'
p1
S'@cherryrsr ha, android, fuckgurl'
p2
sS'Created At'
p3
S'2015-11-29 03:00:46'
p4
s.(dp0
S'Text'
p1
S"i'm earning #mplusrewards in splat da bat android. https://t.co/bjhj6nhnsx"
p2
sS'Created At'
p3
S'2015-11-29 03:00:46'
p4
s.(dp0
S'Text'
p1
S'check out the "ultimate holiday tech gift guide 2015 \xe2\x80\x93 2016" tons of #android and tech gift ideas  https://t.co/kxve6vpdoy #christmas #xmas'
p2
sS'Created At'
p3
S'2015-11-29 03:00:47'
p4
s.(dp0
S'Text'
p1
S'#sr. #android developer - lead opportunity needed in #santamonica at cybercoders. apply now! #jobs https://t.co/aegjgbwzre'
p2
sS'Created At'
p3
S'2015-11-29 03:00:50'
p4
s.(dp0
S'Text'
p1
S'access and control android devices remotely from mac/win/web with #airdroid3:https://t.co/clx4td4uoc https://t.co/wd340vlz6o'
p2
sS'Created At'
p3
S'2015-11-29 03:00:53'
p4
s.(dp0
S'Text'
p1
S'ubs: these 12 massive housing markets are too hot https://t.co/k7ts9exz9t #trending #news #startups #howto #diy #android #howto #apps'
p2
sS'Created At'
p3
S'2015-11-29 03:00:53'
p4
s.(dp0
S'Text'
p1
S'the encryption debate isn\xe2\x80\x99t taking a thanksgi https://t.co/m2simuivj3 #policy #trending #news #startups #howto #diy #android #howto #apps'
p2
sS'Created At'
p3
S'2015-11-29 03:00:54'
p4
s.(dp0
S'Text'
p1
S"here are the uk's best black friday deals https://t.co/lxl51pw17h #apps #news #startups #howto #diy #android #howto #apps"
p2
sS'Created At'
p3
S'2015-11-29 03:00:54'
p4
s.(dp0
S'Text'
p1
S"i'm now an e-list celebrity in kim kardashian: hollywood. you can be famous too by playing on android! https://t.co/fnla8dzc8e"
p2
sS'Created At'
p3
S'2015-11-29 03:00:56'
p4
s.(dp0
S'Text'
p1
S'added to a group chat on an iphone https://t.co/wdsso0hvxe #android'
p2
sS'Created At'
p3
S'2015-11-29 03:00:57'
p4
s.(dp0
S'Text'
p1
S'is my fingerprint lock broke? https://t.co/vzlquyxxlt #android'
p2
sS'Created At'
p3
S'2015-11-29 03:00:58'
p4
s.(dp0
S'Text'
p1
S'poweramp full version available for $0.99! https://t.co/uhzfyxpxdt #android'
p2
sS'Created At'
p3
S'2015-11-29 03:00:58'
p4
s.(dp0
S'Text'
p1
S'iphone \xe2\x98\xba\xef\xb8\x8f https://t.co/ejlmyoh4r2'
p2
sS'Created At'
p3
S'2015-11-29 03:00:58'
p4
s.(dp0
S'Text'
p1
S'@adidascai fuck android phones'
p2
sS'Created At'
p3
S'2015-11-29 03:00:58'
p4
s.(dp0
S'Text'
p1
S"i'm earning #mplusrewards in roll da dice android. https://t.co/k893xv2jw3"
p2
sS'Created At'
p3
S'2015-11-29 03:00:59'
p4
s.(dp0
S'Text'
p1
S'#10billionwives\ni married85,234,948,802,848,763wives!\n\nios: https://t.co/ifahksjugr\nandroid: https://t.co/edu3cw8rip https://t.co/lfms3veuz4'
p2
sS'Created At'
p3
S'2015-11-29 03:01:00'
p4
s.(dp0
S'Text'
p1
S"i'm earning #mplusrewards in light da fuse android. https://t.co/a1v9iln96l"
p2
sS'Created At'
p3
S'2015-11-29 03:01:03'
p4
s.(dp0
S'Text'
p1
S'world clock android app is now available at https://t.co/xqd0fun7n1 repository. https://t.co/a8sqy4mm1y'
p2
sS'Created At'
p3
S'2015-11-29 03:01:03'
p4
s.(dp0
S'Text'
p1
S'(help rt) kita jual theme twitter cjr &amp; minion for android.1 theme only 5000 .pict cek fav :)'
p2
sS'Created At'
p3
S'2015-11-29 03:01:06'
p4
s.(dp0
S'Text'
p1
S'#phones #iphone #9: sandisk ultra android 64 gb microsdxc memory card plus sd adapter up to 80 mb/s, class 10 ffp\xe2\x80\xa6 https://t.co/yxpiqvqqhu'
p2
sS'Created At'
p3
S'2015-11-29 03:01:07'
p4
s.(dp0
S'Text'
p1
S'the great android holiday giveaway - https://t.co/ap3daejmkb \n https://t.co/eo0cnysjel'
p2
sS'Created At'
p3
S'2015-11-29 03:01:07'
p4
s.(dp0
S'Text'
p1
S"i'm earning #mplusrewards in da daily insult android. https://t.co/6smi6gu5ar"
p2
sS'Created At'
p3
S'2015-11-29 03:01:08'
p4
s.(dp0
S'Text'
p1
S'https://t.co/38jonr8cgq #3987  new i-flashdrive external sd/tf card reader for iphone android pc istick https://t.co/427ezhrtnz'
p2
sS'Created At'
p3
S'2015-11-29 03:01:08'
p4
s.(dp0
S'Text'
p1
S'morning and evening images for android\nplease download, rate, and share.\n\nhttps://t.co/k23ezz8orj'
p2
sS'Created At'
p3
S'2015-11-29 03:01:08'
p4
s.(dp0
S'Text'
p1
S'jae franklin - the painter\nnow playing on #whitecuberadio available on iphone and android'
p2
sS'Created At'
p3
S'2015-11-29 03:01:10'
p4
s.(dp0
S'Text'
p1
S'unregimented 145 thank you #itunes: https://t.co/swobjoobsf #android: https://t.co/z03gctsdqd @unregimentedpod #podcast #geek #humor #nerd'
p2
sS'Created At'
p3
S'2015-11-29 03:01:11'
p4
s.(dp0
S'Text'
p1
S'unregimented 145 thank you #itunes: https://t.co/hnw71zrlzt #android: https://t.co/qfjolvsno9 @unregimentedpod #podcast #geek #humor #nerd'
p2
sS'Created At'
p3
S'2015-11-29 03:01:11'
p4
s.(dp0
S'Text'
p1
S'#10billionwives \ni married11,306,964,801,106wives!\n\nios: https://t.co/ea9mkpc8kr\nandroid: https://t.co/ecqttbuusw https://t.co/hfdsc1j5xu'
p2
sS'Created At'
p3
S'2015-11-29 03:01:11'
p4
s.(dp0
S'Text'
p1
S"use google's firebase for your ios/android backend: https://t.co/hayysfrnpl #ios #android #firebase"
p2
sS'Created At'
p3
S'2015-11-29 03:01:12'
p4
s.(dp0
S'Text'
p1
S"i'm earning #mplusrewards in the daily puppy android. https://t.co/r4oxdtjhsd"
p2
sS'Created At'
p3
S'2015-11-29 03:01:12'
p4
s.(dp0
S'Text'
p1
S'hot deals : https://t.co/3ausntqiqy samsung i605 galaxy note 2 16gb verizon wireless 4g lte android wifi smartphon\xe2\x80\xa6 https://t.co/nxitcronrj'
p2
sS'Created At'
p3
S'2015-11-29 03:01:16'
p4
s.(dp0
S'Text'
p1
S'tough #mobilegame #googleplayapp #googleplay #games #gameshare gamerrter #gamersunite #mobile #android  https://t.co/8tqyktu37q'
p2
sS'Created At'
p3
S'2015-11-29 03:01:17'
p4
s.(dp0
S'Text'
p1
S'snowball combat android app is now available at https://t.co/xqd0fun7n1 repository. https://t.co/xn64suunov'
p2
sS'Created At'
p3
S'2015-11-29 03:01:18'
p4
s.(dp0
S'Text'
p1
S'https://t.co/fq7x7rhn7f #0256 #2884 flash drive ios android tf sd card reader for iphone 5s 6... https://t.co/tepymjd1eh'
p2
sS'Created At'
p3
S'2015-11-29 03:01:20'
p4
s.