(dp0
S'Text'
p1
S'win a memorex 9" tablet from @allmommywants plus win a walk-on role with @joeylawrence &amp; @theasylumcc ends 12/10 https://t.co/nu3vlfzwdn'
p2
sS'Created At'
p3
S'2015-11-29 01:52:05'
p4
s.(dp0
S'Text'
p1
S'rt @icasnetwork2015: https://t.co/ax1vqjuder android m coming soon - icas @icasnetwork2015'
p2
sS'Created At'
p3
S'2015-11-29 01:52:05'
p4
s.(dp0
S'Text'
p1
S'rt @redlocal: my first mobile game is now open source :)  #libgdx #java #android #game #opensource \n\nhttps://t.co/tuqgfkeja1 https://t.co/g\xe2\x80\xa6'
p2
sS'Created At'
p3
S'2015-11-29 01:52:05'
p4
s.(dp0
S'Text'
p1
S'*best* space saving tips for any device {android, ios, blackberry} https://t.co/mbufiwa55q'
p2
sS'Created At'
p3
S'2015-11-29 01:52:06'
p4
s.(dp0
S'Text'
p1
S'new 8gb irulu 7" android 4.4 kitkat tablet pc quad core dual camera purple - bid now! only\xe2\x80\xa6 https://t.co/ma2qephua5 https://t.co/lnmigyfmgo'
p2
sS'Created At'
p3
S'2015-11-29 01:52:07'
p4
s.(dp0
S'Text'
p1
S'samsung galaxy tab pro sm-t520 10.1" 16gb android tablet - bid now! only $101.38 https://t.co/x07vn9e5f0 https://t.co/kgrjgnamfv'
p2
sS'Created At'
p3
S'2015-11-29 01:52:08'
p4
s.(dp0
S'Text'
p1
S'used  samsung galaxy tab s   sm-t800n 10.5" 16 gb  android tablet - bid now! only $185.18 https://t.co/bhqnp2xu25 https://t.co/mgxbjnahko'
p2
sS'Created At'
p3
S'2015-11-29 01:52:09'
p4
s.(dp0
S'Text'
p1
S'new 8gb irulu 7" android 4.4 kitkat tablet pc quad core dual camera purple - bid now! only\xe2\x80\xa6 https://t.co/ku5pekjeh4 https://t.co/5tr3fc5f5m'
p2
sS'Created At'
p3
S'2015-11-29 01:52:11'
p4
s.(dp0
S'Text'
p1
S'samsung galaxy tab pro sm-t520 10.1" 16gb android tablet - bid now! only $101.38 https://t.co/pkioamf5tt https://t.co/oaibseiihl'
p2
sS'Created At'
p3
S'2015-11-29 01:52:11'
p4
s.(dp0
S'Text'
p1
S'used  samsung galaxy tab s   sm-t800n 10.5" 16 gb  android tablet - bid now! only $185.18 https://t.co/brdefyagxq https://t.co/mpweohu9jm'
p2
sS'Created At'
p3
S'2015-11-29 01:52:12'
p4
s.(dp0
S'Text'
p1
S'android studio 2.0 preview gives developers instant preview of code changes https://t.co/feiqxwvwa9'
p2
sS'Created At'
p3
S'2015-11-29 01:52:14'
p4
s.(dp0
S'Text'
p1
S'alguma boa alma q tenha android e hymn for the weekend pode me passar pelo wpp help pls'
p2
sS'Created At'
p3
S'2015-11-29 01:52:14'
p4
s.(dp0
S'Text'
p1
S'@sgarging hello hope u love that\xf0\x9f\x90\x86gread android/ios/web gaue https://t.co/u3pwplzvqp ty!'
p2
sS'Created At'
p3
S'2015-11-29 01:52:15'
p4
s.(dp0
S'Text'
p1
S'why not try the @reflexgamingltd app, now on android! https://t.co/ztkzz50erd'
p2
sS'Created At'
p3
S'2015-11-29 01:52:17'
p4
s.(dp0
S'Text'
p1
S'rt @boxxa: #wonbroker is released on android. https://t.co/sfyju2a4at'
p2
sS'Created At'
p3
S'2015-11-29 01:52:18'
p4
s.(dp0
S'Text'
p1
S'dead trigger v1.9.0 mod for android https://t.co/kdousi1t2d'
p2
sS'Created At'
p3
S'2015-11-29 01:52:18'
p4
s.(dp0
S'Text'
p1
S"i'm earning #mplusrewards in the daily puppy android. https://t.co/v7sbykgkwn"
p2
sS'Created At'
p3
S'2015-11-29 01:52:20'
p4
s.(dp0
S'Text'
p1
S'download big business deluxe for ios for free and be my friend https://t.co/nkifw1lezw #android #iphonegames #iphone #gameinsight'
p2
sS'Created At'
p3
S'2015-11-29 01:52:20'
p4
s.(dp0
S'Text'
p1
S'this tech blogger wants to be sterlised https://t.co/sesltlvnnw #apps #news #startups #howto #diy #android #howto\xe2\x80\xa6 https://t.co/snxb2igdfe'
p2
sS'Created At'
p3
S'2015-11-29 01:52:23'
p4
s.(dp0
S'Text'
p1
S'#techlug how to download facebook video on android phone https://t.co/8hqbsm0q9y'
p2
sS'Created At'
p3
S'2015-11-29 01:52:23'
p4
s.(dp0
S'Text'
p1
S"i'm earning #mplusrewards in cut da deck android. https://t.co/ju8v3klzim"
p2
sS'Created At'
p3
S'2015-11-29 01:52:23'
p4
s.(dp0
S'Text'
p1
S'rt @stephaniesancia: my android app of day is relax and sleep free version by mizu software solutions nature sounds no ads much varied rela\xe2\x80\xa6'
p2
sS'Created At'
p3
S'2015-11-29 01:52:24'
p4
s.(dp0
S'Text'
p1
S"i'm earning #mplusrewards in da daily insult android. https://t.co/rq7tuybgck"
p2
sS'Created At'
p3
S'2015-11-29 01:52:26'
p4
s.(dp0
S'Text'
p1
S"i'm earning #mplusrewards in https://t.co/njkfapzram for android. https://t.co/lvwyykcn9g @dictionarycom"
p2
sS'Created At'
p3
S'2015-11-29 01:52:27'
p4
s.(dp0
S'Text'
p1
S'rt @marshalltx_: if you got an android please delete snapchat fam'
p2
sS'Created At'
p3
S'2015-11-29 01:52:28'
p4
s.(dp0
S'Text'
p1
S'free 4 a limited time - how to take care of your android smartphone: smart phone maintenance for grea... https://t.co/f0jyeyrlns via @amazon'
p2
sS'Created At'
p3
S'2015-11-29 01:52:29'
p4
s.(dp0
S'Text'
p1
S"i'm earning #mplusrewards in da daily insult android. https://t.co/rz2vfefurg"
p2
sS'Created At'
p3
S'2015-11-29 01:52:30'
p4
s.(dp0
S'Text'
p1
S'i managed to finish the a watch for a collector assignment! try it for yourself! https://t.co/wc8v9dlmfs #gameinsight #android'
p2
sS'Created At'
p3
S'2015-11-29 01:52:33'
p4
s.(dp0
S'Text'
p1
S'iphone \xf0\x9f\x92\x9a https://t.co/5f7ql2acqr'
p2
sS'Created At'
p3
S'2015-11-29 01:52:33'
p4
s.(dp0
S'Text'
p1
S'pinterest is rolling out buyable pins for android users https://t.co/nrmkbgjbzh'
p2
sS'Created At'
p3
S'2015-11-29 01:52:36'
p4
s.(dp0
S'Text'
p1
S"i'm earning #mplusrewards in cut da deck android. https://t.co/v2d7cbue5l"
p2
sS'Created At'
p3
S'2015-11-29 01:52:36'
p4
s.(dp0
S'Text'
p1
S"i'm using viber to make free phone calls and send free messages on my android phone https://t.co/zthyk1oel5"
p2
sS'Created At'
p3
S'2015-11-29 01:52:37'
p4
s.(dp0
S'Text'
p1
S'rt @icasnetwork2015: https://t.co/ax1vqjuder android m coming soon - icas @icasnetwork2015'
p2
sS'Created At'
p3
S'2015-11-29 01:52:37'
p4
s.(dp0
S'Text'
p1
S"i've finished the visit baron de albert's castle quest! are you able to fulfil the same task? https://t.co/mkfqlxuwwo #android,#androi..."
p2
sS'Created At'
p3
S'2015-11-29 01:52:39'
p4
s.(dp0
S'Text'
p1
S'16gb archos 101 android internet wifi 10.1" tablet with charger + accessories - bid now! o\xe2\x80\xa6 https://t.co/riimjdhguw https://t.co/lgyyi7lzxr'
p2
sS'Created At'
p3
S'2015-11-29 01:52:45'
p4
s.(dp0
S'Text'
p1
S'cnntrending: eset: mobile security for all things android https://t.co/kfodmbefw9\xc2\xa0 #gamedev #russian #grammys #indiedev'
p2
sS'Created At'
p3
S'2015-11-29 01:52:47'
p4
s.(dp0
S'Text'
p1
S'android absorbed attention maturescence along by application matchless yet once tech: qlsswheb'
p2
sS'Created At'
p3
S'2015-11-29 01:52:49'
p4
s.(dp0
S'Text'
p1
S"i'm earning #mplusrewards in tap da cookie android. https://t.co/wb7znw4qnx"
p2
sS'Created At'
p3
S'2015-11-29 01:52:49'
p4
s.(dp0
S'Text'
p1
S'rt @wallofsheep: how to start android app development for beginners https://t.co/zhqvndcbso'
p2
sS'Created At'
p3
S'2015-11-29 01:52:50'
p4
s.(dp0
S'Text'
p1
S"i'm earning #mplusrewards in tmz - android. https://t.co/ekdtasnuuh"
p2
sS'Created At'
p3
S'2015-11-29 01:52:52'
p4
s.(dp0
S'Text'
p1
S"y'all af @_prince_ralphy @_haitianboi  https://t.co/7moockkjxl"
p2
sS'Created At'
p3
S'2015-11-29 01:52:52'
p4
s.(dp0
S'Text'
p1
S'#amazon #canada free snapchat for kindle by snaptech  sales rank in appstore for android: 35 (pr... https://t.co/3puls3yijk #mobile #apps'
p2
sS'Created At'
p3
S'2015-11-29 01:52:54'
p4
s.(dp0
S'Text'
p1
S'#amazon #canada blossoms blast walkthrough by drive studio  sales rank in appstore for android: ... https://t.co/je9ew9sn6m #mobile #apps'
p2
sS'Created At'
p3
S'2015-11-29 01:52:54'
p4
s.(dp0
S'Text'
p1
S'#amazon #canada silly billy hair salon by wonderkind  sales rank in appstore for android: 20 (pr... https://t.co/xaqsueibbk #mobile #apps'
p2
sS'Created At'
p3
S'2015-11-29 01:52:54'
p4
s.(dp0
S'Text'
p1
S'rt @octogamesstudio: new addictive game on #android -&gt; https://t.co/m0nj0hydqp\n"brother of flappy bird" #indiedev #indiegame #mobilegames h\xe2\x80\xa6'
p2
sS'Created At'
p3
S'2015-11-29 01:52:54'
p4
s.(dp0
S'Text'
p1
S'rt @marshalltx_: if you got an android please delete snapchat fam'
p2
sS'Created At'
p3
S'2015-11-29 01:52:54'
p4
s.(dp0
S'Text'
p1
S'#amazon #canada numbers and alphabet by smart touch playable  sales rank in appstore for android... https://t.co/b7tmc8tvs8 #mobile #apps'
p2
sS'Created At'
p3
S'2015-11-29 01:52:54'
p4
s.(dp0
S'Text'
p1
S'#amazon #canada abacus learn     by smart touch playable  sales rank in appstore for android: 17... https://t.co/iltodjsfh4 #mobile #apps'
p2
sS'Created At'
p3
S'2015-11-29 01:52:55'
p4
s.(dp0
S'Text'
p1
S"i'm now an e-list celebrity in kim kardashian: hollywood. you can be famous too by playing on android! https://t.co/m3cxecz47h"
p2
sS'Created At'
p3
S'2015-11-29 01:52:55'
p4
s.(dp0
S'Text'
p1
S'rt @tiedyecloset: android users be like "selfie!" http://t.co/lhelhf2dvp'
p2
sS'Created At'
p3
S'2015-11-29 01:52:56'
p4
s.(dp0
S'Text'
p1
S'android app developers to provide more flexibility. https://t.co/0kvmj8knaf'
p2
sS'Created At'
p3
S'2015-11-29 01:52:58'
p4
s.(dp0
S'Text'
p1
S'android app developers to provide more flexibility. https://t.co/ftrtvudn5z'
p2
sS'Created At'
p3
S'2015-11-29 01:52:58'
p4
s.(dp0
S'Text'
p1
S'android app developers to provide more flexibility. https://t.co/as0mpmcv78'
p2
sS'Created At'
p3
S'2015-11-29 01:52:58'
p4
s.(dp0
S'Text'
p1
S"i've finished the visit baron de albert's castle quest! are you able to fulfil the same task? https://t.co/7cqsmpv6he #android,#androi..."
p2
sS'Created At'
p3
S'2015-11-29 01:52:58'
p4
s.(dp0
S'Text'
p1
S'android app developers to provide more flexibility. https://t.co/07az3oyny1'
p2
sS'Created At'
p3
S'2015-11-29 01:52:59'
p4
s.(dp0
S'Text'
p1
S'rt @android: really need to know the 5,278th digit of pi? the #androidmarshmallow calculator\xe2\x80\x99s got your back https://t.co/da3s3zophr'
p2
sS'Created At'
p3
S'2015-11-29 01:52:59'
p4
s.(dp0
S'Text'
p1
S'16gb archos 101 android internet wifi 10.1" tablet with charger + accessories - bid now! o\xe2\x80\xa6 https://t.co/8w3grrhupg https://t.co/9cptfhupnz'
p2
sS'Created At'
p3
S'2015-11-29 01:52:59'
p4
s.(dp0
S'Text'
p1
S'android app developers to provide more flexibility. https://t.co/tcaz3xxdzg'
p2
sS'Created At'
p3
S'2015-11-29 01:53:00'
p4
s.(dp0
S'Text'
p1
S'rt @kyglizzyy__: iphone \xf0\x9f\x92\x9a https://t.co/5f7ql2acqr'
p2
sS'Created At'
p3
S'2015-11-29 01:53:02'
p4
s.(dp0
S'Text'
p1
S'rt @marshalltx_: if you got an android please delete snapchat fam'
p2
sS'Created At'
p3
S'2015-11-29 01:53:03'
p4
s.(dp0
S'Text'
p1
S"i'm playing the @reflexgamingltd app, available on android! https://t.co/ymij2jrcmu"
p2
sS'Created At'
p3
S'2015-11-29 01:53:03'
p4
s.(dp0
S'Text'
p1
S'android app developers to provide more flexibility. https://t.co/stuycy7scj'
p2
sS'Created At'
p3
S'2015-11-29 01:53:04'
p4
s.(dp0
S'Text'
p1
S'\xf0\x9f\x91\x8d#smartwatches new u8 #bluetooth smart wrist watch phone mate for #android;ios #smartwatch\xe2\x80\xa6 https://t.co/iaqbw3dkct https://t.co/4sa6au7zzb'
p2
sS'Created At'
p3
S'2015-11-29 01:53:04'
p4
s.(dp0
S'Text'
p1
S'#windows 7 android download https://t.co/81xsejmwg1'
p2
sS'Created At'
p3
S'2015-11-29 01:53:05'
p4
s.(dp0
S'Text'
p1
S"@sherofglobe almost 1 week. i'm trying to download speedtest on my android phone now."
p2
sS'Created At'
p3
S'2015-11-29 01:53:05'
p4
s.(dp0
S'Text'
p1
S'https://t.co/wqh9oahtxu - download - dead target: zombie mod apk torrent - eu sou android https://t.co/l6zwj1g9qf'
p2
sS'Created At'
p3
S'2015-11-29 01:53:05'
p4
s.(dp0
S'Text'
p1
S'kids memory: animals cards android app is now available at https://t.co/xqd0fun7n1 repository. https://t.co/jdlh1gcjwt'
p2
sS'Created At'
p3
S'2015-11-29 01:53:05'
p4
s.(dp0
S'Text'
p1
S'\xf0\x9f\x91\x8d\xf0\x9f\x91\x8d#smartwatches top u8 #bluetooth smart watch phone mate for ios #android samsung\xe2\x80\xa6 https://t.co/llt0anjvji https://t.co/ht005ojidt'
p2
sS'Created At'
p3
S'2015-11-29 01:53:06'
p4
s.(dp0
S'Text'
p1
S'rt @tblackford3: "do you have a family history of capgras syndrome?"\n"no, but the alien replicant android impersonating my brother does!"'
p2
sS'Created At'
p3
S'2015-11-29 01:53:06'
p4
s.(dp0
S'Text'
p1
S'android app developers to provide more flexibility. https://t.co/pve777rnkr'
p2
sS'Created At'
p3
S'2015-11-29 01:53:06'
p4
s.(dp0
S'Text'
p1
S'android app developers to provide more flexibility. https://t.co/ainbmvu2nq'
p2
sS'Created At'
p3
S'2015-11-29 01:53:06'
p4
s.(dp0
S'Text'
p1
S"i'm earning #mplusrewards in tap da cookie android. https://t.co/qxzatq9i12"
p2
sS'Created At'
p3
S'2015-11-29 01:53:06'
p4
s.(dp0
S'Text'
p1
S'cruzing through tinder on my android\nswiping the bitches looking for hoes'
p2
sS'Created At'
p3
S'2015-11-29 01:53:06'
p4
s.(dp0
S'Text'
p1
S'android app developers to provide more flexibility. https://t.co/cihvm6ypbv'
p2
sS'Created At'
p3
S'2015-11-29 01:53:07'
p4
s.(dp0
S'Text'
p1
S'@danigarcia_ca via #chefstalk app - https://t.co/oewvdpr0lp - download now for android and ios! https://t.co/sc0egbjvcv'
p2
sS'Created At'
p3
S'2015-11-29 01:53:07'
p4
s.(dp0
S'Text'
p1
S'new 8gb irulu 7" android 4.4 kitkat tablet pc quad core dual camera purple - bid now! only\xe2\x80\xa6 https://t.co/qxqbdx6z5n https://t.co/1ivmpipsmg'
p2
sS'Created At'
p3
S'2015-11-29 01:53:07'
p4
s.(dp0
S'Text'
p1
S'nice! using taploot i can earn free amazon gift cards just for trying out new android apps https://t.co/qhkiwu95y2 #taploot'
p2
sS'Created At'
p3
S'2015-11-29 01:53:07'
p4
s.(dp0
S'Text'
p1
S'samsung galaxy tab pro sm-t520 10.1" 16gb android tablet - bid now! only $101.38 https://t.co/a1bbkexaqd https://t.co/ltawh0zyrv'
p2
sS'Created At'
p3
S'2015-11-29 01:53:07'
p4
s.(dp0
S'Text'
p1
S'android app developers to provide more flexibility. https://t.co/kyzbkqah0b'
p2
sS'Created At'
p3
S'2015-11-29 01:53:08'
p4
s.(dp0
S'Text'
p1
S'used  samsung galaxy tab s   sm-t800n 10.5" 16 gb  android tablet - bid now! only $185.18 https://t.co/cxlpkzixfm https://t.co/mnwxncspfn'
p2
sS'Created At'
p3
S'2015-11-29 01:53:08'
p4
s.(dp0
S'Text'
p1
S'the great android holiday giveaway - https://t.co/ummsp5pmpj'
p2
sS'Created At'
p3
S'2015-11-29 01:53:09'
p4
s.(dp0
S'Text'
p1
S'16gb archos 101 android internet wifi 10.1" tablet with charger + accessories - bid now! o\xe2\x80\xa6 https://t.co/farorlgczl https://t.co/xzly7ywd2g'
p2
sS'Created At'
p3
S'2015-11-29 01:53:09'
p4
s.(dp0
S'Text'
p1
S'the great android holiday giveaway - https://t.co/loycv4skoc'
p2
sS'Created At'
p3
S'2015-11-29 01:53:10'
p4
s.(dp0
S'Text'
p1
S'rt @icasnetwork2015: https://t.co/ax1vqjuder android m coming soon - icas @icasnetwork2015'
p2
sS'Created At'
p3
S'2015-11-29 01:53:10'
p4
s.(dp0
S'Text'
p1
S'enter to win a google nexus 5 android smartphone @androidheadline #android #nexus #nexus5x  https://t.co/qntfhitrwx'
p2
sS'Created At'
p3
S'2015-11-29 01:53:11'
p4
s.(dp0
S'Text'
p1
S'github cfo vlado herman is no longer at the company https://t.co/mnichjdza5 #trending #news #startups #howto #diy #android #howto #apps'
p2
sS'Created At'
p3
S'2015-11-29 01:53:11'
p4
s.(dp0
S'Text'
p1
S'android app developers to provide more flexibility. https://t.co/nbjunwxyor'
p2
sS'Created At'
p3
S'2015-11-29 01:53:12'
p4
s.(dp0
S'Text'
p1
S'#top3apps for #nfvnz\n\ntwitter for iphone 61%\ntwitter web client 20%\ntwitter for android 15%'
p2
sS'Created At'
p3
S'2015-11-29 01:53:12'
p4
s.(dp0
S'Text'
p1
S'16gb archos 101 android internet wifi 10.1" tablet with charger + accessories - bid now! o\xe2\x80\xa6 https://t.co/jlscqb6hc1 https://t.co/v2adv1jd5a'
p2
sS'Created At'
p3
S'2015-11-29 01:53:12'
p4
s.(dp0
S'Text'
p1
S"i'm now a b-list celebrity in kim kardashian: hollywood. you can be famous too by playing on android! https://t.co/norfxxfftb"
p2
sS'Created At'
p3
S'2015-11-29 01:53:13'
p4
s.(dp0
S'Text'
p1
S"i don't like the way notifications work for twitter on this phone tho, it was easier on the android. they're so much harder to keep around"
p2
sS'Created At'
p3
S'2015-11-29 01:53:14'
p4
s.(dp0
S'Text'
p1
S'kids memory game candy android app is now available at https://t.co/xqd0fun7n1 repository. https://t.co/jkfnknphso'
p2
sS'Created At'
p3
S'2015-11-29 01:53:14'
p4
s.(dp0
S'Text'
p1
S'got an android phone? give the @reflexgamingltd app a try! https://t.co/scoxucq4xc'
p2
sS'Created At'
p3
S'2015-11-29 01:53:14'
p4
s.(dp0
S'Text'
p1
S'when a crackhead steals your iphone so you gotta downgrade to a android smh'
p2
sS'Created At'
p3
S'2015-11-29 01:53:15'
p4
s.(dp0
S'Text'
p1
S'android app developers to provide more flexibility. https://t.co/nxlhjwqukz'
p2
sS'Created At'
p3
S'2015-11-29 01:53:15'
p4
s.(dp0
S'Text'
p1
S'android app developers to provide more flexibility. https://t.co/ecoxzsnvdf'
p2
sS'Created At'
p3
S'2015-11-29 01:53:16'
p4
s.(dp0
S'Text'
p1
S'android app developers to provide more flexibility. https://t.co/fcbyqcjp8q'
p2
sS'Created At'
p3
S'2015-11-29 01:53:18'
p4
s.(dp0
S'Text'
p1
S'android app developers to provide more flexibility. https://t.co/7rgz1ogxjn'
p2
sS'Created At'
p3
S'2015-11-29 01:53:19'
p4
s.(dp0
S'Text'
p1
S'3-port car charger ,thzy 6.6amps 33w 3-port car charger for apple and android devices - $12.89 https://t.co/3mhowrb65w'
p2
sS'Created At'
p3
S'2015-11-29 01:53:19'
p4
s.(dp0
S'Text'
p1
S'16gb archos 101 android internet wifi 10.1" tablet with charger + accessories - bid now! o\xe2\x80\xa6 https://t.co/7ttvxd5smh https://t.co/djbqxwhy05'
p2
sS'Created At'
p3
S'2015-11-29 01:53:21'
p4
s.(dp0
S'Text'
p1
S'android app developers to provide more flexibility. https://t.co/vyc0j23xiv'
p2
sS'Created At'
p3
S'2015-11-29 01:53:21'
p4
s.(dp0
S'Text'
p1
S'android app developers to provide more flexibility. https://t.co/zecpbxueye'
p2
sS'Created At'
p3
S'2015-11-29 01:53:22'
p4
s.(dp0
S'Text'
p1
S'[official] install aosp android 5.1 lollipop on moto g 1st gen xt1033 https://t.co/cun1lvp0pn #androidlollipop #howto'
p2
sS'Created At'
p3
S'2015-11-29 01:53:23'
p4
s.(dp0
S'Text'
p1
S'how to zoom instagram photos on android - best method https://t.co/kr2fughfsk #tips'
p2
sS'Created At'
p3
S'2015-11-29 01:53:23'
p4
s.(dp0
S'Text'
p1
S'android app developers to provide more flexibility. https://t.co/xlys94c5i0'
p2
sS'Created At'
p3
S'2015-11-29 01:53:23'
p4
s.(dp0
S'Text'
p1
S'android app developers to provide more flexibility. https://t.co/3ofgd9ni5i'
p2
sS'Created At'
p3
S'2015-11-29 01:53:23'
p4
s.(dp0
S'Text'
p1
S"i'm earning #mplusrewards in tap da cookie android. https://t.co/rmipe2ttdv"
p2
sS'Created At'
p3
S'2015-11-29 01:53:25'
p4
s.(dp0
S'Text'
p1
S'get cash rewards just for using your android phone! after registering enter code mue6fm1ctd so we both get a bonus. https://t.co/3owo87bill'
p2
sS'Created At'
p3
S'2015-11-29 01:53:25'
p4
s.(dp0
S'Text'
p1
S'#amazon: ticket to ride by days of wonder 78% sales rank in appstore for android: 230 (was 411 yes... https://t.co/kpsb15rt75 #app #store'
p2
sS'Created At'
p3
S'2015-11-29 01:53:26'
p4
s.(dp0
S'Text'
p1
S'#amazon: princess royal haircuts salon by mgamey 78% sales rank in appstore for android: 383 (was ... https://t.co/9l2mygipej #app #store'
p2
sS'Created At'
p3
S'2015-11-29 01:53:26'
p4
s.(dp0
S'Text'
p1
S'#amazon: dream league soccer by empireapps 79% sales rank in appstore for android: 388 (was 695 ye... https://t.co/epjpsldtvg #app #store'
p2
sS'Created At'
p3
S'2015-11-29 01:53:26'
p4
s.(dp0
S'Text'
p1
S'#amazon: ultimate dragon simulator     by gluten free games  sales rank in appstore for android: 2... https://t.co/bb9gcn5lgm #app #store'
p2
sS'Created At'
p3
S'2015-11-29 01:53:27'
p4
s.(dp0
S'Text'
p1
S'thor (the powerhead) #manowar #metal download android rnrplayer &amp; free listen us.!... https://t.co/zo07c7mjnj'
p2
sS'Created At'
p3
S'2015-11-29 01:53:27'
p4
s.(dp0
S'Text'
p1
S"i'm earning #mplusrewards in zap da bug android. https://t.co/o8g3blsyjw"
p2
sS'Created At'
p3
S'2015-11-29 01:53:27'
p4
s.(dp0
S'Text'
p1
S"doctor's office ultimatedi nutty appsacquista: eur 1,50\n(visita bestseller in app-shop per android l'elenco delle... https://t.co/tyowjaw0cw"
p2
sS'Created At'
p3
S'2015-11-29 01:53:28'
p4
s.(dp0
S'Text'
p1
S"i'm earning #mplusrewards in name da president (android). https://t.co/xtmi71up7y"
p2
sS'Created At'
p3
S'2015-11-29 01:53:27'
p4
s.(dp0
S'Text'
p1
S'rt @octogamesstudio: new addictive game on #android -&gt; https://t.co/m0nj0hydqp\n"brother of flappy bird" #indiedev #indiegame #mobilegames h\xe2\x80\xa6'
p2
sS'Created At'
p3
S'2015-11-29 01:53:28'
p4
s.(dp0
S'Text'
p1
S'hangman pro android app is now available at https://t.co/xqd0fun7n1 repository. https://t.co/nfblxaijx0'
p2
sS'Created At'
p3
S'2015-11-29 01:53:29'
p4
s.(dp0
S'Text'
p1
S"@sherofglobe almost 1 week. i'm trying to download speedtest with my android phone now."
p2
sS'Created At'
p3
S'2015-11-29 01:53:29'
p4
s.(dp0
S'Text'
p1
S'rt @marshalltx_: if you got an android please delete snapchat fam'
p2
sS'Created At'
p3
S'2015-11-29 01:53:29'
p4
s.(dp0
S'Text'
p1
S"i'm earning #mplusrewards in word meister friends free android. https://t.co/87838qgiqa"
p2
sS'Created At'
p3
S'2015-11-29 01:53:30'
p4
s.(dp0
S'Text'
p1
S"i'm earning #mplusrewards in family feud 2 android. https://t.co/n9xnbcbmds"
p2
sS'Created At'
p3
S'2015-11-29 01:53:31'
p4
s.(dp0
S'Text'
p1
S'candy world android app is now available at https://t.co/xqd0fun7n1 repository. https://t.co/pnisd7aksz'
p2
sS'Created At'
p3
S'2015-11-29 01:53:32'
p4
s.(dp0
S'Text'
p1
S'android app developers to provide more flexibility. https://t.co/p3yz99vmuz'
p2
sS'Created At'
p3
S'2015-11-29 01:53:33'
p4
s.(dp0
S'Text'
p1
S'android app developers to provide more flexibility. https://t.co/7bb4wjucsw'
p2
sS'Created At'
p3
S'2015-11-29 01:53:35'
p4
s.(dp0
S'Text'
p1
S'@king_parker android problems https://t.co/ycituf7yfl'
p2
sS'Created At'
p3
S'2015-11-29 01:53:35'
p4
s.(dp0
S'Text'
p1
S'android app developers to provide more flexibility. https://t.co/dcaocgkuot'
p2
sS'Created At'
p3
S'2015-11-29 01:53:37'
p4
s.(dp0
S'Text'
p1
S'rt @octogamesstudio: new addictive game on #android -&gt; https://t.co/m0nj0hydqp\n"brother of flappy bird" #indiedev #indiegame #mobilegames h\xe2\x80\xa6'
p2
sS'Created At'
p3
S'2015-11-29 01:53:38'
p4
s.(dp0
S'Text'
p1
S'rt @octogamesstudio: new addictive game on #android -&gt; https://t.co/m0nj0hydqp\n"brother of flappy bird" #indiedev #indiegame #mobilegames h\xe2\x80\xa6'
p2
sS'Created At'
p3
S'2015-11-29 01:53:39'
p4
s.(dp0
S'Text'
p1
S"i'm earning #mplusrewards in flip da coin android. https://t.co/kutswqziyz"
p2
sS'Created At'
p3
S'2015-11-29 01:53:40'
p4
s.(dp0
S'Text'
p1
S'rt @icasnetwork2015: https://t.co/ax1vqjuder android m coming soon - icas @icasnetwork2015'
p2
sS'Created At'
p3
S'2015-11-29 01:53:42'
p4
s.(dp0
S'Text'
p1
S'app logo quiz - android apps on google play https://t.co/wddm6yzgwl'
p2
sS'Created At'
p3
S'2015-11-29 01:53:42'
p4
s.(dp0
S'Text'
p1
S'recommend #virtualtabletennis. iphone:https://t.co/yv2b2wdn45 android:https://t.co/87wk3dfm8q https://t.co/xta7hflxtz'
p2
sS'Created At'
p3
S'2015-11-29 01:53:43'
p4
s.(dp0
S'Text'
p1
S'download #joyrewards ! earn money &amp; gift cards for trying android apps. get 200 extra coins by promo code 2335590 - https://t.co/c4djhpnsh2'
p2
sS'Created At'
p3
S'2015-11-29 01:53:46'
p4
s.(dp0
S'Text'
p1
S"i'm earning #mplusrewards in office zombie - android. https://t.co/8uzjyo9pmf"
p2
sS'Created At'
p3
S'2015-11-29 01:53:46'
p4
s.(dp0
S'Text'
p1
S'#kindlefire https://t.co/8qtuni0jzy product review - vodacom smart tab 3g - android tablet https://t.co/igmt8svelx #thelifesway'
p2
sS'Created At'
p3
S'2015-11-29 01:53:46'
p4
s.(dp0
S'Text'
p1
S"i'm playing mystery manor on #android! join me in this adventure! https://t.co/in2dhtyrh8  #gameinsight https://t.co/qsd9ejqrpt"
p2
sS'Created At'
p3
S'2015-11-29 01:53:48'
p4
s.(dp0
S'Text'
p1
S'android app developers to provide more flexibility. https://t.co/1spokadhh6'
p2
sS'Created At'
p3
S'2015-11-29 01:53:49'
p4
s.(dp0
S'Text'
p1
S'new 8gb irulu 7" android 4.4 kitkat tablet pc quad core dual camera purple - bid now! only\xe2\x80\xa6 https://t.co/9upnh4ntvl https://t.co/omlcap99yd'
p2
sS'Created At'
p3
S'2015-11-29 01:53:49'
p4
s.(dp0
S'Text'
p1
S'samsung galaxy tab pro sm-t520 10.1" 16gb android tablet - bid now! only $101.38 https://t.co/xkxtdxassn https://t.co/bmngixukwz'
p2
sS'Created At'
p3
S'2015-11-29 01:53:50'
p4
s.(dp0
S'Text'
p1
S"i'm earning #mplusrewards in da daily compliment android. https://t.co/acbc7zazbu"
p2
sS'Created At'
p3
S'2015-11-29 01:53:51'
p4
s.(dp0
S'Text'
p1
S'lg thrive prepaid android gophone (at&amp;t) https://t.co/kmlrz4khiw'
p2
sS'Created At'
p3
S'2015-11-29 01:53:51'
p4
s.(dp0
S'Text'
p1
S'8gb tablet 7" android hd display camera wifi quad core &amp; case kids xmas gift new - bid now\xe2\x80\xa6 https://t.co/zfgzlgmddn https://t.co/giljvcnpa3'
p2
sS'Created At'
p3
S'2015-11-29 01:53:52'
p4
s.(dp0
S'Text'
p1
S'used  samsung galaxy tab s   sm-t800n 10.5" 16 gb  android tablet - bid now! only $185.18 https://t.co/n7zqtahur9 https://t.co/odd2ezvvci'
p2
sS'Created At'
p3
S'2015-11-29 01:53:53'
p4
s.(dp0
S'Text'
p1
S'irulu 7" babypad android quad core educational reader wifi 8gb kids tablet pc  - bid now! \xe2\x80\xa6 https://t.co/rsv8wbzrk4 https://t.co/uuymx5sars'
p2
sS'Created At'
p3
S'2015-11-29 01:53:53'
p4
s.(dp0
S'Text'
p1
S"i'm earning #mplusrewards in cut da deck android. https://t.co/v1rdesdxzj"
p2
sS'Created At'
p3
S'2015-11-29 01:53:54'
p4
s.(dp0
S'Text'
p1
S'@cjcarr41 thanks for following! have you tried our app? find it on android: https://t.co/0hnuhggcvy or ios: https://t.co/ko9ix9huyn'
p2
sS'Created At'
p3
S'2015-11-29 01:53:54'
p4
s.(dp0
S'Text'
p1
S'rt @movies_sharing: download money making software free available for all operating system also for android and ios https://t.co/urezgdgsnv'
p2
sS'Created At'
p3
S'2015-11-29 01:53:57'
p4
s.(dp0
S'Text'
p1
S'brand new samsung galaxy tab 4 - 7.0"  8gb wi-fi android tablet black - bid now! only $101\xe2\x80\xa6 https://t.co/lek8nepvsi https://t.co/2aun3r6z8o'
p2
sS'Created At'
p3
S'2015-11-29 01:53:57'
p4
s.(dp0
S'Text'
p1
S'\xe2\x9d\xa4 [free] adult comic viewer (android)\xe2\x9d\xa4 app download \xe2\x96\xba https://t.co/t3jrdr9dk6   #hentai #ecchi #anime #porn2008 https://t.co/ndhhtihg2u'
p2
sS'Created At'
p3
S'2015-11-29 01:53:57'
p4
s.(dp0
S'Text'
p1
S'rt @highend_usa: #amazon: princess royal haircuts salon by mgamey 78% sales rank in appstore for android: 383 (was ... https://t.co/9l2mygi\xe2\x80\xa6'
p2
sS'Created At'
p3
S'2015-11-29 01:53:58'
p4
s.(dp0
S'Text'
p1
S'android app developers to provide more flexibility. https://t.co/hffcrm27tn'
p2
sS'Created At'
p3
S'2015-11-29 01:53:58'
p4
s.(dp0
S'Text'
p1
S'20+ free best text messaging apps for android *free download* https://t.co/g3h51k3pgc'
p2
sS'Created At'
p3
S'2015-11-29 01:53:58'
p4
s.(dp0
S'Text'
p1
S'#\xe4\xbf\xba\xe3\x81\xae\xe3\x82\xb9\xe3\x83\x88\xe3\x83\xbc\xe3\x82\xab\xe3\x83\xbc\niphone\xe3\x83\xbbipad \nhttps://t.co/mm6i8zdwhg\nandroid \nhttps://t.co/oo9ntrj3ww https://t.co/yzkc9wehas'
p2
sS'Created At'
p3
S'2015-11-29 01:54:01'
p4
s.(dp0
S'Text'
p1
S'#oneclickroot: how-to safely #root #lge lg-su760 running #android 2.3.5 https://t.co/ikyxow6ylm'
p2
sS'Created At'
p3
S'2015-11-29 01:54:02'
p4
s.(dp0
S'Text'
p1
S'#top3apps for #nfvnz\n\ntwitter for iphone 61%\ntwitter web client 20%\ntwitter for android 15%'
p2
sS'Created At'
p3
S'2015-11-29 01:54:02'
p4
s.(dp0
S'Text'
p1
S'#oneclickroot: how-to safely #root #samsung gt-i9000 (build: gingerbread\xe2\x80\xa4zsjv6) running #android 2.3.3 https://t.co/wdmp3tkl1b'
p2
sS'Created At'
p3
S'2015-11-29 01:54:02'
p4
s.(dp0
S'Text'
p1
S'publisher android phones application the immediate cultural revolution: xqkfglynf https://t.co/yquuhwwatm'
p2
sS'Created At'
p3
S'2015-11-29 01:54:02'
p4
s.(dp0
S'Text'
p1
S'#oneclickroot: how-to safely #root #alps dm-7g running #android 4.2.2 https://t.co/olgaeetgbk'
p2
sS'Created At'
p3
S'2015-11-29 01:54:02'
p4
s.(dp0
S'Text'
p1
S'livecams for android and desktop https://t.co/6fw7irzpnc'
p2
sS'Created At'
p3
S'2015-11-29 01:54:03'
p4
s.(dp0
S'Text'
p1
S"rt @woridstarhiphop: why do android snapchats look like they're from the 1800's https://t.co/lsmibdqjce"
p2
sS'Created At'
p3
S'2015-11-29 01:54:04'
p4
s.(dp0
S'Text'
p1
S'#download android apps kindle fire https://t.co/eu7336wcyg'
p2
sS'Created At'
p3
S'2015-11-29 01:54:05'
p4
s.(dp0
S'Text'
p1
S"i'm earning #mplusrewards in cut da deck android. https://t.co/x8oepcechw"
p2
sS'Created At'
p3
S'2015-11-29 01:54:05'
p4
s.(dp0
S'Text'
p1
S"@android @wasted23k @donorschoose no i won't!! hahahaha poor people!!!"
p2
sS'Created At'
p3
S'2015-11-29 01:54:06'
p4
s.(dp0
S'Text'
p1
S"there were no cellphones in the 1800's........ https://t.co/fb0rspcrpq"
p2
sS'Created At'
p3
S'2015-11-29 01:54:06'
p4
s.(dp0
S'Text'
p1
S"it's both the first week of christmas, and the first week of finals https://t.co/tbjznfl3cu #gameinsight #android \xe2\x80\xa6 https://t.co/dz7hquons7"
p2
sS'Created At'
p3
S'2015-11-29 01:54:06'
p4
s.(dp0
S'Text'
p1
S'promote your android app - buy #android #app #installs and #reviews for #google #play #marketing \xe2\x80\xa2\xe2\x80\xa2\xe2\x96\xba https://t.co/xlikrytlf5'
p2
sS'Created At'
p3
S'2015-11-29 01:54:07'
p4
s.(dp0
S'Text'
p1
S'this bridge will connect 90% of the chinese population https://t.co/8zdoj6wy0e #apps #news #startups #howto #diy #android #howto #apps'
p2
sS'Created At'
p3
S'2015-11-29 01:54:08'
p4
s.(dp0
S'Text'
p1
S'android app developers to provide more flexibility. https://t.co/raehkuztb9'
p2
sS'Created At'
p3
S'2015-11-29 01:54:09'
p4
s.(dp0
S'Text'
p1
S'@bringmybooks do you use an android phone, by chance?'
p2
sS'Created At'
p3
S'2015-11-29 01:54:10'
p4
s.(dp0
S'Text'
p1
S'hero soldier jump android app is now available at https://t.co/xqd0fun7n1 repository. https://t.co/q67bfthwlp'
p2
sS'Created At'
p3
S'2015-11-29 01:54:10'
p4
s.(dp0
S'Text'
p1
S"@brocklesnitch they should've given him like hulk type stuff or like swamp thing type stuff https://t.co/5yhdswo3va"
p2
sS'Created At'
p3
S'2015-11-29 01:54:10'
p4
s.(dp0
S'Text'
p1
S'mirrors of albion: hidden objects has superb visuals! try it! my code is: hcksvd https://t.co/3awxuzqbue #gameinsight #android'
p2
sS'Created At'
p3
S'2015-11-29 01:54:11'
p4
s.(dp0
S'Text'
p1
S"i'm earning #mplusrewards in flip da coin android. https://t.co/mjtdux4v96"
p2
sS'Created At'
p3
S'2015-11-29 01:54:13'
p4
s.(dp0
S'Text'
p1
S'so much this! \n\ninstagram is testing support for multiple accounts on android https://t.co/thd26ajavw'
p2
sS'Created At'
p3
S'2015-11-29 01:54:14'
p4
s.(dp0
S'Text'
p1
S"i'm now a d-list+ celebrity in kim kardashian: hollywood. you can be famous too by playing on android! https://t.co/jxf8xhfk90"
p2
sS'Created At'
p3
S'2015-11-29 01:54:14'
p4
s.(dp0
S'Text'
p1
S'rt @icasnetwork2015: https://t.co/ax1vqjuder android m coming soon - icas @icasnetwork2015'
p2
sS'Created At'
p3
S'2015-11-29 01:54:15'
p4
s.(dp0
S'Text'
p1
S'\xf0\x9f\x91\x8d#smartwatch best u8 #bluetooth smart wrist watch phone mate for #android;ios #iphone\xe2\x80\xa6 https://t.co/gpdkuwe95m https://t.co/9rgxuqdbsp'
p2
sS'Created At'
p3
S'2015-11-29 01:54:15'
p4
s.(dp0
S'Text'
p1
S'#smartwatches hot u8 smart watch mate #bluetooth phone for #iphone #android\xe2\x80\xa6 https://t.co/qboyulm9xl #smartwatch https://t.co/d1wwnmde5l'
p2
sS'Created At'
p3
S'2015-11-29 01:54:16'
p4
s.(dp0
S'Text'
p1
S'nowplaying : vintage beats - birds\n\ntune in https://t.co/opfsd3gfno\n #android app https://t.co/mfyw7heajd\n#peripouwebradio'
p2
sS'Created At'
p3
S'2015-11-29 01:54:17'
p4
s.(dp0
S'Text'
p1
S'funny goblin car android app is now available at https://t.co/xqd0fun7n1 repository. https://t.co/d93yjafjdl'
p2
sS'Created At'
p3
S'2015-11-29 01:54:18'
p4
s.(dp0
S'Text'
p1
S"i'm earning #mplusrewards in cut da deck android. https://t.co/a1fwj9oiyr"
p2
sS'Created At'
p3
S'2015-11-29 01:54:18'
p4
s.(dp0
S'Text'
p1
S"rt @danielnewman: i can't believe half a million of you follow me &amp; have downloaded my album!\xe2\x9d\xa4  itunes https://t.co/2oobcdecsn android http\xe2\x80\xa6"
p2
sS'Created At'
p3
S'2015-11-29 01:54:19'
p4
s.(dp0
S'Text'
p1
S'android app developers to provide more flexibility. https://t.co/1agrtkmkba'
p2
sS'Created At'
p3
S'2015-11-29 01:54:19'
p4
s.(dp0
S'Text'
p1
S'eset: mobile security for all things android https://t.co/uunjatfo2v #gamedev #russian #grammys #indiedev https://t.co/3wftgqttk1'
p2
sS'Created At'
p3
S'2015-11-29 01:54:23'
p4
s.(dp0
S'Text'
p1
S'i added a video to a @youtube playlist https://t.co/in8oq57lrx how to install a custom rom on any android device (nov 2015)'
p2
sS'Created At'
p3
S'2015-11-29 01:54:24'
p4
s.(dp0
S'Text'
p1
S'rt @m_sharjel: the amazing #visualstudio emulator for android, that can run on all the ides including android studio and... https://t.co/kq\xe2\x80\xa6'
p2
sS'Created At'
p3
S'2015-11-29 01:54:24'
p4
s.(dp0
S'Text'
p1
S'eset: mobile security for all things android https://t.co/8m03xgbiql #gamedev #russian #grammys #indiedev https://t.co/mu3wckmlok'
p2
sS'Created At'
p3
S'2015-11-29 01:54:24'
p4
s.(dp0
S'Text'
p1
S'niall horan and selena gomez \xe2\x80\x94 no direction \xe2\x80\xa6 stric https://t.co/c7dc3xvgv1 #trending #news #startups #howto #diy #android #howto #apps'
p2
sS'Created At'
p3
S'2015-11-29 01:54:25'
p4
s.(dp0
S'Text'
p1
S'cnntrending: eset: mobile security for all things android https://t.co/echg9j7sjq #gamedev #russian #grammys #ind\xe2\x80\xa6 https://t.co/3wftgqttk1'
p2
sS'Created At'
p3
S'2015-11-29 01:54:26'
p4
s.(dp0
S'Text'
p1
S'rt @engrossingfacts: google maps calculates traffic by tracking how fast android devices are moving on the road.'
p2
sS'Created At'
p3
S'2015-11-29 01:54:27'
p4
s.(dp0
S'Text'
p1
S"rt @woridstarhiph0p: why do android snapchats look like they're from the 1800's https://t.co/eu3u01uecp"
p2
sS'Created At'
p3
S'2015-11-29 01:54:27'
p4
s.(dp0
S'Text'
p1
S'\xe2\x99\xa3\xe2\x9d\x81 samsung i535 galaxy s3 verizon wireless android wifi 16gb 8mp camera cell phone https://t.co/5erezic3ci https://t.co/fnk0mchmpq'
p2
sS'Created At'
p3
S'2015-11-29 01:54:28'
p4
s.(dp0
S'Text'
p1
S'i managed to finish the cheshire welcomes you! assignment! try it for yourself! https://t.co/rxxdpco22m #gameinsight #android'
p2
sS'Created At'
p3
S'2015-11-29 01:54:29'
p4
s.(dp0
S'Text'
p1
S'i\'ve just finished "warm reception"! i\'d love for you to come and get a gift from me! https://t.co/exqfggpyhj #android  #gameinsight'
p2
sS'Created At'
p3
S'2015-11-29 01:54:29'
p4
s.(dp0
S'Text'
p1
S"rt @woridstarhiph0p: why do android snapchats look like they're from the 1800's https://t.co/eu3u01uecp"
p2
sS'Created At'
p3
S'2015-11-29 01:54:29'
p4
s.(dp0
S'Text'
p1
S'#10billionwives \ni married308,080,320,848wives!\n\nios: https://t.co/ciypqxp8dq\nandroid: https://t.co/f6p2curmbm https://t.co/zoea2i3ufr'
p2
sS'Created At'
p3
S'2015-11-29 01:54:30'
p4
s.(dp0
S'Text'
p1
S'#android - here are our samsung galaxy s6 and nexus 6p contest winners! -&gt; #dameandroid - https://t.co/txr5js08ra \xe2\x80\xa6 https://t.co/txs1ejtduz'
p2
sS'Created At'
p3
S'2015-11-29 01:54:30'
p4
s.(dp0
S'Text'
p1
S'android: activating accessibility on s5 https://t.co/oemmkvqu1z'
p2
sS'Created At'
p3
S'2015-11-29 01:54:31'
p4
s.(dp0
S'Text'
p1
S'i like twitter iphone better than twitter android'
p2
sS'Created At'
p3
S'2015-11-29 01:54:31'
p4
s.(dp0
S'Text'
p1
S'robot run adventure android app is now available at https://t.co/xqd0fun7n1 repository. https://t.co/zjftydryeb'
p2
sS'Created At'
p3
S'2015-11-29 01:54:31'
p4
s.(dp0
S'Text'
p1
S'@nottomentionit luv4luv ukg vol.1 mixed by @djpyro android https://t.co/ddhmpa05om / iphone https://t.co/vh380mztbb https://t.co/2uxw5chen7'
p2
sS'Created At'
p3
S'2015-11-29 01:54:32'
p4
s.(dp0
S'Text'
p1
S'arma iii cg - andy milonakis aka android miller https://t.co/tthj8w97rm via @twitch'
p2
sS'Created At'
p3
S'2015-11-29 01:54:32'
p4
s.(dp0
S'Text'
p1
S'#smartwatch nice u8 smart watch mate #bluetooth phone for #iphone #android samsung htc lg red new https://t.co/prx2mlzqrz #smartwatches'
p2
sS'Created At'
p3
S'2015-11-29 01:54:33'
p4
s.(dp0
S'Text'
p1
S'rt @marshalltx_: if you got an android please delete snapchat fam'
p2
sS'Created At'
p3
S'2015-11-29 01:54:34'
p4
s.(dp0
S'Text'
p1
S'#smartwatches top u8 smart watch mate #bluetooth phone for #iphone #android\xe2\x80\xa6 https://t.co/xnjdrsnwbq #smartwatch https://t.co/ctclcnofkw'
p2
sS'Created At'
p3
S'2015-11-29 01:54:34'
p4
s.(dp0
S'Text'
p1
S"i'm earning #mplusrewards in light da fuse android. https://t.co/jbxgp3a3ub"
p2
sS'Created At'
p3
S'2015-11-29 01:54:38'
p4
s.(dp0
S'Text'
p1
S'rt @kypreeaf: she fuckin with someone with an android https://t.co/iccbmzucte'
p2
sS'Created At'
p3
S'2015-11-29 01:54:38'
p4
s.(dp0
S'Text'
p1
S"i'm earning #mplusrewards in light da fuse android. https://t.co/tylfxes5rk"
p2
sS'Created At'
p3
S'2015-11-29 01:54:39'
p4
s.(dp0
S'Text'
p1
S'@harrymccracken a friend uses this to get\nphoto books from cell phone pictures. \nthe app.is for android an apple.'
p2
sS'Created At'
p3
S'2015-11-29 01:54:41'
p4
s.(dp0
S'Text'
p1
S"i showed my aunt the android 5.1 easter egg, and she's getting kinda mad with it, lol xd"
p2
sS'Created At'
p3
S'2015-11-29 01:54:42'
p4
s.(dp0
S'Text'
p1
S'miss ios twitter. android twitter is so dead, and hardly get notifications. can someone recommend an alternative app'
p2
sS'Created At'
p3
S'2015-11-29 01:54:43'
p4
s.(dp0
S'Text'
p1
S'jump soldier android app is now available at https://t.co/xqd0fun7n1 repository. https://t.co/hfjv39kc6a'
p2
sS'Created At'
p3
S'2015-11-29 01:54:46'
p4
s.(dp0
S'Text'
p1
S'yes i hate texting android users'
p2
sS'Created At'
p3
S'2015-11-29 01:54:47'
p4
s.(dp0
S'Text'
p1
S'apparatus headed for have in view against android forcing procreation flying column: blkw'
p2
sS'Created At'
p3
S'2015-11-29 01:54:47'
p4
s.(dp0
S'Text'
p1
S'rt @icasnetwork2015: https://t.co/ax1vqjuder android m coming soon - icas @icasnetwork2015'
p2
sS'Created At'
p3
S'2015-11-29 01:54:47'
p4
s.(dp0
S'Text'
p1
S'ministers have tense meeting with mayor over https://t.co/t74n1jvzbr #trending #trending #news #startups #howto #diy #android #howto #apps'
p2
sS'Created At'
p3
S'2015-11-29 01:54:49'
p4
s.(dp0
S'Text'
p1
S"android app - bestseller: #8: doctor's office ultimate          https://t.co/jwikyzwasj"
p2
sS'Created At'
p3
S'2015-11-29 01:54:50'
p4
s.(dp0
S'Text'
p1
S'hahahahahahahah i also play this game https://t.co/vfos9cp6os'
p2
sS'Created At'
p3
S'2015-11-29 01:54:51'
p4
s.(dp0
S'Text'
p1
S"i'm earning #mplusrewards in tap da cookie android. https://t.co/nxu1y15rnv"
p2
sS'Created At'
p3
S'2015-11-29 01:54:51'
p4
s.(dp0
S'Text'
p1
S"i'm earning #mplusrewards in light da fuse android. https://t.co/pcxhncutcc"
p2
sS'Created At'
p3
S'2015-11-29 01:54:52'
p4
s.(dp0
S'Text'
p1
S"1910s rt @guyl_: there were no cellphones in the 1800's........ https://t.co/mw4prhgh2m"
p2
sS'Created At'
p3
S'2015-11-29 01:54:52'
p4
s.(dp0
S'Text'
p1
S'just earned 759 points in crazy city race. #tirr5 try to beat my score. download now for android: https://t.co/dcuznzdm0u'
p2
sS'Created At'
p3
S'2015-11-29 01:54:52'
p4
s.(dp0
S'Text'
p1
S'if there are any #cricut users who have android phones - please let me know! i have an exciting project to share with you!'
p2
sS'Created At'
p3
S'2015-11-29 01:54:53'
p4
s.(dp0
S'Text'
p1
S'if there are any #cricut users who have android phones - please let me know! i have an exciting project to share with you!'
p2
sS'Created At'
p3
S'2015-11-29 01:54:53'
p4
s.(dp0
S'Text'
p1
S'acer iconia one 10 b3-a20-k8uh 10.1-inch hd tablet (android\xc2\xa0lollipop) https://t.co/px3h7ewiml https://t.co/yaq6ogfdsk'
p2
sS'Created At'
p3
S'2015-11-29 01:54:54'
p4
s.(dp0
S'Text'
p1
S"i'm earning #mplusrewards in light da fuse android. https://t.co/nileeg6chf"
p2
sS'Created At'
p3
S'2015-11-29 01:54:56'
p4
s.(dp0
S'Text'
p1
S'\xe2\x96\xba https://t.co/k5zument7z \xe2\x9d\xa4 [free] adult comic viewer (android)\xe2\x9d\xa4  #hentai #ecchi #anime #porn 58 https://t.co/mcge6oarud'
p2
sS'Created At'
p3
S'2015-11-29 01:54:58'
p4
s.(dp0
S'Text'
p1
S'instagram tests multiple #accountsupport on android https://t.co/79u2op7eb1 https://t.co/wellvfc9jc'
p2
sS'Created At'
p3
S'2015-11-29 01:54:59'
p4
s.(dp0
S'Text'
p1
S"@timlarcos unfortunately there's no set date, our mobile eng team is currently focused on ios and android develop... https://t.co/7icyd14cmo"
p2
sS'Created At'
p3
S'2015-11-29 01:55:00'
p4
s.(dp0
S'Text'
p1
S'#nowplaying on prysm dance revival egma - never gonna lose your love - app: https://t.co/ko4reqclye'
p2
sS'Created At'
p3
S'2015-11-29 01:55:02'
p4
s.(dp0
S'Text'
p1
S"rt @klose_gail: i'm playing mystery manor on #android! join me in this adventure! https://t.co/in2dhtyrh8  #gameinsight https://t.co/qsd9ej\xe2\x80\xa6"
p2
sS'Created At'
p3
S'2015-11-29 01:55:02'
p4
s.(dp0
S'Text'
p1
S'new 8gb irulu 7" android 4.4 kitkat tablet pc quad core dual camera purple - bid now! only\xe2\x80\xa6 https://t.co/oomge0lmru https://t.co/wsgt3miae3'
p2
sS'Created At'
p3
S'2015-11-29 01:55:02'
p4
s.(dp0
S'Text'
p1
S"rt @danielnewman: i can't believe half a million of you follow me &amp; have downloaded my album!\xe2\x9d\xa4  itunes https://t.co/2oobcdecsn android http\xe2\x80\xa6"
p2
sS'Created At'
p3
S'2015-11-29 01:55:03'
p4
s.(dp0
S'Text'
p1
S'samsung galaxy tab pro sm-t520 10.1" 16gb android tablet - bid now! only $101.38 https://t.co/b48aug8nah https://t.co/57unqvqa5d'
p2
sS'Created At'
p3
S'2015-11-29 01:55:03'
p4
s.(dp0
S'Text'
p1
S"i'm earning #mplusrewards in airliners android. https://t.co/e8igcgb8h0"
p2
sS'Created At'
p3
S'2015-11-29 01:55:03'
p4
s.(dp0
S'Text'
p1
S"@crawf33 @brocklesnitch they should've made him like the hulk or swamp thing! \nhttps://t.co/5yhdswo3va"
p2
sS'Created At'
p3
S'2015-11-29 01:55:03'
p4
s.(dp0
S'Text'
p1
S"ok bedtime for real now, but i'l leave you all with this mental image: \nan android built to not really be sentient/think of human life --&gt;"
p2
sS'Created At'
p3
S'2015-11-29 01:55:03'
p4
s.(dp0
S'Text'
p1
S'used  samsung galaxy tab s   sm-t800n 10.5" 16 gb  android tablet - bid now! only $185.18 https://t.co/xszs28wrsd https://t.co/qwyuq2e2oy'
p2
sS'Created At'
p3
S'2015-11-29 01:55:03'
p4
s.(dp0
S'Text'
p1
S'rt @cartierxhoe: i would rather stick my dick in a lake full of piranhas then watch a fucking snapchat story recorded by a android'
p2
sS'Created At'
p3
S'2015-11-29 01:55:04'
p4
s.(dp0
S'Text'
p1
S"i'm earning #mplusrewards in pga tour (android). https://t.co/f35kg27ozi"
p2
sS'Created At'
p3
S'2015-11-29 01:55:05'
p4
s.(dp0
S'Text'
p1
S'16gb archos 101 android internet wifi 10.1" tablet with charger + accessories - bid now! o\xe2\x80\xa6 https://t.co/7ex1jn6se7 https://t.co/pmnprsqsns'
p2
sS'Created At'
p3
S'2015-11-29 01:55:05'
p4
s.(dp0
S'Text'
p1
S'#lumia950xl #windows10 \xe2\x80\x93 microsoft lumia 950 xl review roundup: does the windows\xe2\x80\xa6 https://t.co/jjxyjzcw4l #android https://t.co/fcjphdk0iu'
p2
sS'Created At'
p3
S'2015-11-29 01:55:05'
p4
s.(dp0
S'Text'
p1
S'#lumia950xl #windows10 \xe2\x80\x93 microsoft lumia 950 xl review roundup: does the windows\xe2\x80\xa6 https://t.co/cldty7oysq #android https://t.co/n3nzbomw2q'
p2
sS'Created At'
p3
S'2015-11-29 01:55:06'
p4
s.(dp0
S'Text'
p1
S'#lumia950xl #windows10 \xe2\x80\x93 microsoft lumia 950 xl review roundup: does the windows\xe2\x80\xa6 https://t.co/uqc3nrr9y6 #android https://t.co/mongkpdfuu'
p2
sS'Created At'
p3
S'2015-11-29 01:55:06'
p4
s.(dp0
S'Text'
p1
S'#lumia950xl #windows10 \xe2\x80\x93 microsoft lumia 950 xl review roundup: does the windows\xe2\x80\xa6 https://t.co/ld7yukz2ti #android https://t.co/kvlrazcoif'
p2
sS'Created At'
p3
S'2015-11-29 01:55:06'
p4
s.(dp0
S'Text'
p1
S'#lumia950xl #windows10 \xe2\x80\x93 microsoft lumia 950 xl review roundup: does the windows\xe2\x80\xa6 https://t.co/zznjg26u0c #android https://t.co/aash70xc3t'
p2
sS'Created At'
p3
S'2015-11-29 01:55:07'
p4
s.(dp0
S'Text'
p1
S'#lumia950xl #windows10 \xe2\x80\x93 microsoft lumia 950 xl review roundup: does the windows\xe2\x80\xa6 https://t.co/zinbmv5kxl #android https://t.co/rs6fknggsm'
p2
sS'Created At'
p3
S'2015-11-29 01:55:07'
p4
s.(dp0
S'Text'
p1
S'#lumia950xl #windows10 \xe2\x80\x93 microsoft lumia 950 xl review roundup: does the windows\xe2\x80\xa6 https://t.co/nxgszqsg90 #android https://t.co/lvngnyvtpq'
p2
sS'Created At'
p3
S'2015-11-29 01:55:07'
p4
s.(dp0
S'Text'
p1
S'#lumia950xl #windows10 \xe2\x80\x93 microsoft lumia 950 xl review roundup: does the windows\xe2\x80\xa6 https://t.co/sgn9enokuv #android https://t.co/qdmuumfmpw'
p2
sS'Created At'
p3
S'2015-11-29 01:55:07'
p4
s.(dp0
S'Text'
p1
S'#lumia950xl #windows10 \xe2\x80\x93 microsoft lumia 950 xl review roundup: does the windows\xe2\x80\xa6 https://t.co/bovud7iogu #android https://t.co/d5wtp9a2hx'
p2
sS'Created At'
p3
S'2015-11-29 01:55:07'
p4
s.(dp0
S'Text'
p1
S'#lumia950xl #windows10 \xe2\x80\x93 microsoft lumia 950 xl review roundup: does the windows\xe2\x80\xa6 https://t.co/rjc4hwkttp #android https://t.co/brptfqqomj'
p2
sS'Created At'
p3
S'2015-11-29 01:55:09'
p4
s.(dp0
S'Text'
p1
S'77.6% of all orders made on mobile devices happened on apple devices, while only 22.1% happened on android devices #blackfriday'
p2
sS'Created At'
p3
S'2015-11-29 01:55:10'
p4
s.(dp0
S'Text'
p1
S"z the people - where's the music coming from\nnow playing on #whitecuberadio available on iphone and android"
p2
sS'Created At'
p3
S'2015-11-29 01:55:11'
p4
s.(dp0
S'Text'
p1
S"i'm earning #mplusrewards in name da state android. https://t.co/togk9mzzbn"
p2
sS'Created At'
p3
S'2015-11-29 01:55:11'
p4
s.(dp0
S'Text'
p1
S'mobile application developers (ios and/or android) - drake international and vertical talent hk https://t.co/nkhanftsoj'
p2
sS'Created At'
p3
S'2015-11-29 01:55:11'
p4
s.(dp0
S'Text'
p1
S"i'm earning #mplusrewards in light da fuse android. https://t.co/l2ilxda1i8"
p2
sS'Created At'
p3
S'2015-11-29 01:55:12'
p4
s.(dp0
S'Text'
p1
S'android snapchats piss me off!!!'
p2
sS'Created At'
p3
S'2015-11-29 01:55:12'
p4
s.(dp0
S'Text'
p1
S"i'm earning #mplusrewards in guess da number android. https://t.co/uy0j1laocl"
p2
sS'Created At'
p3
S'2015-11-29 01:55:12'
p4
s.(dp0
S'Text'
p1
S'mobile application developers (ios and/or android) - drake international and vertical talent hk https://t.co/gjyx92tmle'
p2
sS'Created At'
p3
S'2015-11-29 01:55:14'
p4
s.(dp0
S'Text'
p1
S'new 8gb irulu 7" android 4.4 kitkat tablet pc quad core dual camera purple - bid now! only\xe2\x80\xa6 https://t.co/ikilkyhc7h https://t.co/ai7watcszc'
p2
sS'Created At'
p3
S'2015-11-29 01:55:15'
p4
s.(dp0
S'Text'
p1
S"it's been over 20 days since i last used my (android) phone. i'm hella sad that i've missed so much that idek abt"
p2
sS'Created At'
p3
S'2015-11-29 01:55:16'
p4
s.(dp0
S'Text'
p1
S'rt @octogamesstudio: new addictive game on #android -&gt; https://t.co/m0nj0hydqp\n"brother of flappy bird" #indiedev #indiegame #mobilegames h\xe2\x80\xa6'
p2
sS'Created At'
p3
S'2015-11-29 01:55:16'
p4
s.(dp0
S'Text'
p1
S'long asymmetrical blue taupe stone necklace by alfadesigns https://t.co/8bax0dnkgg via @etsy  #google #android #bing'
p2
sS'Created At'
p3
S'2015-11-29 01:55:16'
p4
s.(dp0
S'Text'
p1
S'samsung galaxy tab pro sm-t520 10.1" 16gb android tablet - bid now! only $101.38 https://t.co/zszvhoox7b https://t.co/eg2x6v5ldz'
p2
sS'Created At'
p3
S'2015-11-29 01:55:16'
p4
s.(dp0
S'Text'
p1
S'used  samsung galaxy tab s   sm-t800n 10.5" 16 gb  android tablet - bid now! only $185.18 https://t.co/magcgwjctg https://t.co/kiwcoxzezf'
p2
sS'Created At'
p3
S'2015-11-29 01:55:17'
p4
s.(dp0
S'Text'
p1
S'placing bets on different events has been popular. #bettingandroid best for gaming industry https://t.co/dbmujt54jn https://t.co/x7vpp11e4x'
p2
sS'Created At'
p3
S'2015-11-29 01:55:18'
p4
s.(dp0
S'Text'
p1
S'rt @milanfernandez: from nbc sports talk for android:\n\njohn wall to pay wizards assistant $100 per three-turnover game\nhttp://t.co/ppoxpgn6\xe2\x80\xa6'
p2
sS'Created At'
p3
S'2015-11-29 01:55:19'
p4
s.(dp0
S'Text'
p1
S'rt @icasnetwork2015: https://t.co/ax1vqjuder android m coming soon - icas @icasnetwork2015'
p2
sS'Created At'
p3
S'2015-11-29 01:55:20'
p4
s.(dp0
S'Text'
p1
S'rt @octogamesstudio: new addictive game on #android -&gt; https://t.co/m0nj0hydqp\n"brother of flappy bird" #indiedev #indiegame #mobilegames h\xe2\x80\xa6'
p2
sS'Created At'
p3
S'2015-11-29 01:55:20'
p4
s.(dp0
S'Text'
p1
S'rt @cartierxhoe: i would rather stick my dick in a lake full of piranhas then watch a fucking snapchat story recorded by a android'
p2
sS'Created At'
p3
S'2015-11-29 01:55:21'
p4
s.(dp0
S'Text'
p1
S'five months with the lg g4: an editorial and review #facebook #android #app go to https://t.co/nrxa2oizfs'
p2
sS'Created At'
p3
S'2015-11-29 01:55:22'
p4
s.(dp0
S'Text'
p1
S"how's the new chromecast different from the original? #facebook #android #app go to https://t.co/nrxa2oizfs"
p2
sS'Created At'
p3
S'2015-11-29 01:55:22'
p4
s.(dp0
S'Text'
p1
S'power amp is on sale for .99 cents! #facebook #android #app go to https://t.co/nrxa2oizfs'
p2
sS'Created At'
p3
S'2015-11-29 01:55:22'
p4
s.(dp0
S'Text'
p1
S'flaws of material design #facebook #android #app go to https://t.co/nrxa2oizfs'
p2
sS'Created At'
p3
S'2015-11-29 01:55:23'
p4
s.(dp0
S'Text'
p1
S"ben carson: syrian refugees don't want to come to the u.s. #facebook #android #app go to https://t.co/nrxa2oizfs"
p2
sS'Created At'
p3
S'2015-11-29 01:55:24'
p4
s.(dp0
S'Text'
p1
S'enter to win "the great android holiday giveaway" from https://t.co/qvawlpxuuo https://t.co/ira5iakq7x ,  over 25 #android prizes to be won!'
p2
sS'Created At'
p3
S'2015-11-29 01:55:24'
p4
s.(dp0
S'Text'
p1
S'rt @octogamesstudio: new addictive game on #android -&gt; https://t.co/m0nj0hydqp\n"brother of flappy bird" #indiedev #indiegame #mobilegames h\xe2\x80\xa6'
p2
sS'Created At'
p3
S'2015-11-29 01:55:25'
p4
s.(dp0
S'Text'
p1
S'@snoggingidols it goes to your music player which for android is google play'
p2
sS'Created At'
p3
S'2015-11-29 01:55:26'
p4
s.(dp0
S'Text'
p1
S'the android twitter app is way better.'
p2
sS'Created At'
p3
S'2015-11-29 01:55:27'
p4
s.(dp0
S'Text'
p1
S"rt @worldstarc0medy: why do android snapchats look like they're from the 1800's https://t.co/6piabkvgcr"
p2
sS'Created At'
p3
S'2015-11-29 01:55:27'
p4
s.(dp0
S'Text'
p1
S"i'm earning #mplusrewards in dragons: rise of berk android. https://t.co/bnnailhzmi"
p2
sS'Created At'
p3
S'2015-11-29 01:55:28'
p4
s.(dp0
S'Text'
p1
S'check out the "ultimate holiday tech gift guide 2015 \xe2\x80\x93 2016" tons of #android and tech gift ideas https://t.co/j9h0lutwzj #christmas #xmas'
p2
sS'Created At'
p3
S'2015-11-29 01:55:29'
p4
s.(dp0
S'Text'
p1
S"best friend wedding\nmay's\n#maturi\n https://t.co/nnc1ht218s"
p2
sS'Created At'
p3
S'2015-11-29 01:55:30'
p4
s.(dp0
S'Text'
p1
S'rt @sengineland: weekend review: google updates adwords android app to include video campaigns by @ginnymarvin https://t.co/aqfwhp02iy'
p2
sS'Created At'
p3
S'2015-11-29 01:55:30'
p4
s.(dp0
S'Text'
p1
S'@ozy_zorba luv4luv ukg vol.1 mixed by @djpyro android https://t.co/1ubx99fqud / iphone https://t.co/hrngph0t9q https://t.co/sjx0omugew'
p2
sS'Created At'
p3
S'2015-11-29 01:55:32'
p4
s.(dp0
S'Text'
p1
S'#lumia950xl #windows10 \xe2\x80\x93 microsoft lumia 950 xl review roundup: does the windows\xe2\x80\xa6 https://t.co/rdqptttmbx #android https://t.co/rhgmy2i7uo'
p2
sS'Created At'
p3
S'2015-11-29 01:55:33'
p4
s.(dp0
S'Text'
p1
S'#lumia950xl #windows10 \xe2\x80\x93 microsoft lumia 950 xl review roundup: does the windows\xe2\x80\xa6 https://t.co/rs34ugr1ql #android https://t.co/bh81fq0zqi'
p2
sS'Created At'
p3
S'2015-11-29 01:55:33'
p4
s.(dp0
S'Text'
p1
S'#lumia950xl #windows10 \xe2\x80\x93 microsoft lumia 950 xl review roundup: does the windows\xe2\x80\xa6 https://t.co/vuz2dhxnjv #android https://t.co/plsn2h0t5o'
p2
sS'Created At'
p3
S'2015-11-29 01:55:33'
p4
s.(dp0
S'Text'
p1
S'#lumia950xl #windows10 \xe2\x80\x93 microsoft lumia 950 xl review roundup: does the windows\xe2\x80\xa6 https://t.co/8lrglwtqex #android https://t.co/djezkjuulk'
p2
sS'Created At'
p3
S'2015-11-29 01:55:33'
p4
s.(dp0
S'Text'
p1
S'#lumia950xl #windows10 \xe2\x80\x93 microsoft lumia 950 xl review roundup: does the windows\xe2\x80\xa6 https://t.co/mtbvcrakqa #android https://t.co/ueky4xxdnw'
p2
sS'Created At'
p3
S'2015-11-29 01:55:33'
p4
s.(dp0
S'Text'
p1
S'#lumia950xl #windows10 \xe2\x80\x93 microsoft lumia 950 xl review roundup: does the windows\xe2\x80\xa6 https://t.co/o5aum8mfrh #android https://t.co/9i4v96ns2u'
p2
sS'Created At'
p3
S'2015-11-29 01:55:33'
p4
s.(dp0
S'Text'
p1
S'#lumia950xl #windows10 \xe2\x80\x93 microsoft lumia 950 xl review roundup: does the windows\xe2\x80\xa6 https://t.co/awwxxfo77v #android https://t.co/vpjcovku7d'
p2
sS'Created At'
p3
S'2015-11-29 01:55:33'
p4
s.(dp0
S'Text'
p1
S'claim your free "unlocked black 5.7" samsung galaxy note 3 4g android gsm smartphone 32gb a60 dhl" here \xe2\x80\xa6 https://t.co/y7fskg9ke2'
p2
sS'Created At'
p3
S'2015-11-29 01:55:33'
p4
s.(dp0
S'Text'
p1
S'rt @vixxsupport: [seoul music awards]\n\nvote for #vixx bonsang award!\ntutorial (android) https://t.co/ua0fm9tugq \npc https://t.co/nirbtkd0ru'
p2
sS'Created At'
p3
S'2015-11-29 01:55:33'
p4
s.(dp0
S'Text'
p1
S'#lumia950xl #windows10 \xe2\x80\x93 microsoft lumia 950 xl review roundup: does the windows\xe2\x80\xa6 https://t.co/c20xtijgoc #android https://t.co/7lbhfkjucq'
p2
sS'Created At'
p3
S'2015-11-29 01:55:33'
p4
s.(dp0
S'Text'
p1
S'#lumia950xl #windows10 \xe2\x80\x93 microsoft lumia 950 xl review roundup: does the windows\xe2\x80\xa6 https://t.co/evg0j37cby #android https://t.co/fwfeizqtkh'
p2
sS'Created At'
p3
S'2015-11-29 01:55:33'
p4
s.(dp0
S'Text'
p1
S'#lumia950xl #windows10 \xe2\x80\x93 microsoft lumia 950 xl review roundup: does the windows\xe2\x80\xa6 https://t.co/oqmazrbdkx #android https://t.co/8273t5nboi'
p2
sS'Created At'
p3
S'2015-11-29 01:55:33'
p4
s.(dp0
S'Text'
p1
S'get #wildwallet on android - https://t.co/rboox83b5t to earn amazing rewards for trying free apps. use code 2179949 for 200 bonus credits!'
p2
sS'Created At'
p3
S'2015-11-29 01:55:33'
p4
s.(dp0
S'Text'
p1
S'#lumia950xl #windows10 \xe2\x80\x93 microsoft lumia 950 xl review roundup: does the windows\xe2\x80\xa6 https://t.co/sg8wwywaoe #android https://t.co/minfnqdxx8'
p2
sS'Created At'
p3
S'2015-11-29 01:55:34'
p4
s.(dp0
S'Text'
p1
S'#lumia950xl #windows10 \xe2\x80\x93 microsoft lumia 950 xl review roundup: does the windows\xe2\x80\xa6 https://t.co/cqn57cpneb #android https://t.co/u0u5zmejv6'
p2
sS'Created At'
p3
S'2015-11-29 01:55:34'
p4
s.(dp0
S'Text'
p1
S'#lumia950xl #windows10 \xe2\x80\x93 microsoft lumia 950 xl review roundup: does the windows\xe2\x80\xa6 https://t.co/dftxnnwrhd #android https://t.co/ri4vyijwvy'
p2
sS'Created At'
p3
S'2015-11-29 01:55:34'
p4
s.(dp0
S'Text'
p1
S'#lumia950xl #windows10 \xe2\x80\x93 microsoft lumia 950 xl review roundup: does the windows\xe2\x80\xa6 https://t.co/gybjgd4ijc #android https://t.co/9amdy5phe5'
p2
sS'Created At'
p3
S'2015-11-29 01:55:34'
p4
s.(dp0
S'Text'
p1
S'#lumia950xl #windows10 \xe2\x80\x93 microsoft lumia 950 xl review roundup: does the windows\xe2\x80\xa6 https://t.co/jsz0f4q2ge #android https://t.co/z5uqtzd2rx'
p2
sS'Created At'
p3
S'2015-11-29 01:55:34'
p4
s.(dp0
S'Text'
p1
S"rt @dory: why do android snapchats look like they're from the 1800's https://t.co/2xwu9jpti5"
p2
sS'Created At'
p3
S'2015-11-29 01:55:35'
p4
s.(dp0
S'Text'
p1
S'#lumia950xl #windows10 \xe2\x80\x93 microsoft lumia 950 xl review roundup: does the windows\xe2\x80\xa6 https://t.co/55xac7uwor #android https://t.co/qwxbbevrnt'
p2
sS'Created At'
p3
S'2015-11-29 01:55:35'
p4
s.(dp0
S'Text'
p1
S'#lumia950xl #windows10 \xe2\x80\x93 microsoft lumia 950 xl review roundup: does the windows\xe2\x80\xa6 https://t.co/nkkfr1e5iv #android https://t.co/xkxidtuoco'
p2
sS'Created At'
p3
S'2015-11-29 01:55:35'
p4
s.(dp0
S'Text'
p1
S'new 8gb irulu 7" android 4.4 kitkat tablet pc quad core dual camera purple - bid now! only\xe2\x80\xa6 https://t.co/0ee9guqos7 https://t.co/vdchvnzlmf'
p2
sS'Created At'
p3
S'2015-11-29 01:55:35'
p4
s.(dp0
S'Text'
p1
S'#lumia950xl #windows10 \xe2\x80\x93 microsoft lumia 950 xl review roundup: does the windows\xe2\x80\xa6 https://t.co/e1c4f7lfsm #android https://t.co/qpgdwx2yrk'
p2
sS'Created At'
p3
S'2015-11-29 01:55:35'
p4
s.(dp0
S'Text'
p1
S'#lumia950xl #windows10 \xe2\x80\x93 microsoft lumia 950 xl review roundup: does the windows\xe2\x80\xa6 https://t.co/gbc3qgo1fm #android https://t.co/bgkovzebsb'
p2
sS'Created At'
p3
S'2015-11-29 01:55:36'
p4
s.(dp0
S'Text'
p1
S'#lumia950xl #windows10 \xe2\x80\x93 microsoft lumia 950 xl review roundup: does the windows\xe2\x80\xa6 https://t.co/46f3r6uteg #android https://t.co/8szerwojgu'
p2
sS'Created At'
p3
S'2015-11-29 01:55:36'
p4
s.(dp0
S'Text'
p1
S'samsung galaxy tab pro sm-t520 10.1" 16gb android tablet - bid now! only $101.38 https://t.co/heay3gy1l0 https://t.co/j9m1ucclye'
p2
sS'Created At'
p3
S'2015-11-29 01:55:36'
p4
s.(dp0
S'Text'
p1
S'used  samsung galaxy tab s   sm-t800n 10.5" 16 gb  android tablet - bid now! only $185.18 https://t.co/xevowzgg4s https://t.co/0cogwlazcs'
p2
sS'Created At'
p3
S'2015-11-29 01:55:37'
p4
s.(dp0
S'Text'
p1
S'#lumia950xl #windows10 \xe2\x80\x93 microsoft lumia 950 xl review roundup: does the windows\xe2\x80\xa6 https://t.co/w26uwgznke #android https://t.co/3xeqbwfsd7'
p2
sS'Created At'
p3
S'2015-11-29 01:55:37'
p4
s.(dp0
S'Text'
p1
S'#lumia950xl #windows10 \xe2\x80\x93 microsoft lumia 950 xl review roundup: does the windows\xe2\x80\xa6 https://t.co/bjxaz5d2gs #android https://t.co/u1rovyudwv'
p2
sS'Created At'
p3
S'2015-11-29 01:55:37'
p4
s.(dp0
S'Text'
p1
S'#lumia950xl #windows10 \xe2\x80\x93 microsoft lumia 950 xl review roundup: does the windows\xe2\x80\xa6 https://t.co/my6rchkwze #android https://t.co/5csyqgmwmw'
p2
sS'Created At'
p3
S'2015-11-29 01:55:38'
p4
s.(dp0
S'Text'
p1
S'#lumia950xl #windows10 \xe2\x80\x93 microsoft lumia 950 xl review roundup: does the windows\xe2\x80\xa6 https://t.co/bgsfzss5ov #android https://t.co/vhuzvfyjw7'
p2
sS'Created At'
p3
S'2015-11-29 01:55:38'
p4
s.(dp0
S'Text'
p1
S'asus chromebit review - the little chrome os dongle that could - android authority\xe2\x80\xa6 https://t.co/2wdpmtaydi #google'
p2
sS'Created At'
p3
S'2015-11-29 01:55:38'
p4
s.(dp0
S'Text'
p1
S'#lumia950xl #windows10 \xe2\x80\x93 microsoft lumia 950 xl review roundup: does the windows\xe2\x80\xa6 https://t.co/6gyd5bxywc #android https://t.co/590a370llw'
p2
sS'Created At'
p3
S'2015-11-29 01:55:39'
p4
s.(dp0
S'Text'
p1
S'rt @heimdalsecurity: black friday deals? nope, this fake amazon android app only harvests your personal data: https://t.co/efmapp65oc via @\xe2\x80\xa6'
p2
sS'Created At'
p3
S'2015-11-29 01:55:39'
p4
s.(dp0
S'Text'
p1
S'#lumia950xl #windows10 \xe2\x80\x93 microsoft lumia 950 xl review roundup: does the windows\xe2\x80\xa6 https://t.co/kkpjodo6v2 #android https://t.co/0nqsc4eg9p'
p2
sS'Created At'
p3
S'2015-11-29 01:55:39'
p4
s.(dp0
S'Text'
p1
S'android - #10: doodle jump  https://t.co/sn6n1virr3'
p2
sS'Created At'
p3
S'2015-11-29 01:55:40'
p4
s.(dp0
S'Text'
p1
S'#lumia950xl #windows10 \xe2\x80\x93 microsoft lumia 950 xl review roundup: does the windows\xe2\x80\xa6 https://t.co/lhvdkf8mzx #android https://t.co/guqrerh8qu'
p2
sS'Created At'
p3
S'2015-11-29 01:55:40'
p4
s.(dp0
S'Text'
p1
S'android - #9: gangstar rio: city of saints (kindle tablet edition)  https://t.co/sn6n1virr3'
p2
sS'Created At'
p3
S'2015-11-29 01:55:40'
p4
s.(dp0
S'Text'
p1
S'android - #7: arctic escape hd (kindle tablet edition)  https://t.co/sn6n1virr3'
p2
sS'Created At'
p3
S'2015-11-29 01:55:41'
p4
s.(dp0
S'Text'
p1
S'android - #5: the room (kindle tablet edition)  https://t.co/sn6n1virr3'
p2
sS'Created At'
p3
S'2015-11-29 01:55:41'
p4
s.(dp0
S'Text'
p1
S"i'm earning #mplusrewards in name da flag android. https://t.co/atztmo8dxd"
p2
sS'Created At'
p3
S'2015-11-29 01:55:41'
p4
s.(dp0
S'Text'
p1
S'android - #4: scrabble  https://t.co/sn6n1virr3'
p2
sS'Created At'
p3
S'2015-11-29 01:55:41'
p4
s.(dp0
S'Text'
p1
S"i'm earning #mplusrewards in light da fuse android. https://t.co/ua1txabmff"
p2
sS'Created At'
p3
S'2015-11-29 01:55:43'
p4
s.(dp0
S'Text'
p1
S'@sanch2mario hi hope u love\xf0\x9f\x92\x92that addictiva android/ios/web gam^ https://t.co/j8vti2ojyn thx!'
p2
sS'Created At'
p3
S'2015-11-29 01:55:43'
p4
s.(dp0
S'Text'
p1
S"android history interview: lg's dr. ramchan woo https://t.co/znutis0laf via @androidcentral https://t.co/egwuq4245y"
p2
sS'Created At'
p3
S'2015-11-29 01:55:43'
p4
s.(dp0
S'Text'
p1
S'rt @stephankesting: all grapplearts #bjj mobile apps for apple, android and kindle devices 50% off till monday\nhttps://t.co/zgdocgticz http\xe2\x80\xa6'
p2
sS'Created At'
p3
S'2015-11-29 01:55:43'
p4
s.(dp0
S'Text'
p1
S'#top3apps for #ans\xc4\xb1z\xc4\xb1ngelse\n\ntwitter web client 59%\ntwitter for android 25%\ntwitter for iphone 9%'
p2
sS'Created At'
p3
S'2015-11-29 01:55:43'
p4
s.(dp0
S'Text'
p1
S"i'm playing the @reflexgamingltd app, available on android! https://t.co/duka1n9xni"
p2
sS'Created At'
p3
S'2015-11-29 01:55:44'
p4
s.(dp0
S'Text'
p1
S'@nsybliss just try #gears2contest https://t.co/5faqiw8vo6'
p2
sS'Created At'
p3
S'2015-11-29 01:55:46'
p4
s.(dp0
S'Text'
p1
S"doctor's office ultimate di nutty apps acquista: eur 1,50 (visita bestseller in app-shop per android l'elenco... https://t.co/ywrnitfgtk"
p2
sS'Created At'
p3
S'2015-11-29 01:55:46'
p4
s.(dp0
S'Text'
p1
S'\xe2\x9d\x9d\xe2\x9d\x81 samsung i535 galaxy s3 verizon wireless android wifi 16gb 8mp camera cell phone https://t.co/5erezic3ci https://t.co/c2fcm6kdyv'
p2
sS'Created At'
p3
S'2015-11-29 01:55:49'
p4
s.(dp0
S'Text'
p1
S'sci-fi epic shooting game. download for wp8 https://t.co/o8j44qfyta ios https://t.co/5skvzoqebu android https://t.co/q0p9tznbmd'
p2
sS'Created At'
p3
S'2015-11-29 01:55:49'
p4
s.(dp0
S'Text'
p1
S'rt @samsungcrbn: the #gears2 is compatible with non-samsung android devices! read more&gt;&gt; https://t.co/w2msyjk8ru #rt for a chance to win ou\xe2\x80\xa6'
p2
sS'Created At'
p3
S'2015-11-29 01:55:50'
p4
s.(dp0
S'Text'
p1
S'rt @icasnetwork2015: https://t.co/ax1vqjuder android m coming soon - icas @icasnetwork2015'
p2
sS'Created At'
p3
S'2015-11-29 01:55:52'
p4
s.(dp0
S'Text'
p1
S"i'm earning #mplusrewards in da daily insult android. https://t.co/qjiobrkhdh"
p2
sS'Created At'
p3
S'2015-11-29 01:55:53'
p4
s.(dp0
S'Text'
p1
S'just earned 16280 points in crazy city race. #tirr5 try to beat my score. download now for android: https://t.co/dcuznzdm0u'
p2
sS'Created At'
p3
S'2015-11-29 01:55:54'
p4
s.(dp0
S'Text'
p1
S"rt @dory: why do android snapchats look like they're from the 1800's https://t.co/2xwu9jpti5"
p2
sS'Created At'
p3
S'2015-11-29 01:55:59'
p4
s.(dp0
S'Text'
p1
S'hero boy run adventure android app is now available at https://t.co/xqd0fun7n1 repository. https://t.co/ixricgnmws'
p2
sS'Created At'
p3
S'2015-11-29 01:56:01'
p4
s.(dp0
S'Text'
p1
S'new 8gb irulu 7" android 4.4 kitkat tablet pc quad core dual camera purple - bid now! only\xe2\x80\xa6 https://t.co/y2yp0vnlhz https://t.co/hhzfx0dbvq'
p2
sS'Created At'
p3
S'2015-11-29 01:56:02'
p4
s.(dp0
S'Text'
p1
S'#oneclickroot: how-to safely #root #samsung sm-t255s (build: jls36c\xe2\x80\xa4t255sksuanf3) running #android 4.3 https://t.co/sdbluhub1h'
p2
sS'Created At'
p3
S'2015-11-29 01:56:02'
p4
s.(dp0
S'Text'
p1
S'samsung galaxy tab pro sm-t520 10.1" 16gb android tablet - bid now! only $101.38 https://t.co/wtlehxs7sp https://t.co/bfj5iqisy3'
p2
sS'Created At'
p3
S'2015-11-29 01:56:02'
p4
s.(dp0
S'Text'
p1
S'16gb archos 101 android internet wifi 10.1" tablet with charger + accessories - bid now! o\xe2\x80\xa6 https://t.co/o5ne6nm0vd https://t.co/k83sti0awf'
p2
sS'Created At'
p3
S'2015-11-29 01:56:02'
p4
s.(dp0
S'Text'
p1
S'#oneclickroot: how-to safely #root #samsung sgh-t839 (build: froyo\xe2\x80\xa4uvkj2) running #android 2.2.1 https://t.co/zrpbkg8k7j'
p2
sS'Created At'
p3
S'2015-11-29 01:56:03'
p4
s.(dp0
S'Text'
p1
S'#oneclickroot: how-to safely #root #huawei y300-0100 running #android 4.1.1 https://t.co/l58vbndl8f'
p2
sS'Created At'
p3
S'2015-11-29 01:56:03'
p4
s.(dp0
S'Text'
p1
S'used  samsung galaxy tab s   sm-t800n 10.5" 16 gb  android tablet - bid now! only $185.18 https://t.co/ehazqgroib https://t.co/ocume6zcyx'
p2
sS'Created At'
p3
S'2015-11-29 01:56:03'
p4
s.(dp0
S'Text'
p1
S'rt @hi__courtney: android snapchats piss me off!!!'
p2
sS'Created At'
p3
S'2015-11-29 01:56:04'
p4
s.(dp0
S'Text'
p1
S'16gb archos 101 android internet wifi 10.1" tablet with charger + accessories - bid now! o\xe2\x80\xa6 https://t.co/kiyebovucw https://t.co/v2nn4hfd2r'
p2
sS'Created At'
p3
S'2015-11-29 01:56:05'
p4
s.(dp0
S'Text'
p1
S'#lumia950xl #windows10 \xe2\x80\x93 microsoft lumia 950 xl review roundup: does the windows\xe2\x80\xa6 https://t.co/tzv0tdxcgb #android https://t.co/jf8yxx1tta'
p2
sS'Created At'
p3
S'2015-11-29 01:56:05'
p4
s.(dp0
S'Text'
p1
S'#lumia950xl #windows10 \xe2\x80\x93 microsoft lumia 950 xl review roundup: does the windows\xe2\x80\xa6 https://t.co/p6yfq6cvdl #android https://t.co/kqdkc56vwd'
p2
sS'Created At'
p3
S'2015-11-29 01:56:05'
p4
s.(dp0
S'Text'
p1
S'#lumia950xl #windows10 \xe2\x80\x93 microsoft lumia 950 xl review roundup: does the windows\xe2\x80\xa6 https://t.co/1hlkyzqyyz #android https://t.co/h2wxmibbdh'
p2
sS'Created At'
p3
S'2015-11-29 01:56:05'
p4
s.(dp0
S'Text'
p1
S'#lumia950xl #windows10 \xe2\x80\x93 microsoft lumia 950 xl review roundup: does the windows\xe2\x80\xa6 https://t.co/ktntohzeyz #android https://t.co/ernnqcbd3p'
p2
sS'Created At'
p3
S'2015-11-29 01:56:06'
p4
s.(dp0
S'Text'
p1
S'#lumia950xl #windows10 \xe2\x80\x93 microsoft lumia 950 xl review roundup: does the windows\xe2\x80\xa6 https://t.co/7ksliomq1r #android https://t.co/onl5t76fk9'
p2
sS'Created At'
p3
S'2015-11-29 01:56:06'
p4
s.(dp0
S'Text'
p1
S'i need your help on this level of #whatstheemoji! play on ios or android: https://t.co/rioqgdv3sy https://t.co/2cgulmyeia'
p2
sS'Created At'
p3
S'2015-11-29 01:56:06'
p4
s.(dp0
S'Text'
p1
S'@_jaketucker @nielsen_holly @wordmercenary but jake. fun little favelas on stilts with roof patios and possible android creeps'
p2
sS'Created At'
p3
S'2015-11-29 01:56:06'
p4
s.(dp0
S'Text'
p1
S'#lumia950xl #windows10 \xe2\x80\x93 microsoft lumia 950 xl review roundup: does the windows\xe2\x80\xa6 https://t.co/kkld3i4xlp #android https://t.co/rgpenzweng'
p2
sS'Created At'
p3
S'2015-11-29 01:56:06'
p4
s.(dp0
S'Text'
p1
S'#lumia950xl #windows10 \xe2\x80\x93 microsoft lumia 950 xl review roundup: does the windows\xe2\x80\xa6 https://t.co/dkjgzgic0o #android https://t.co/st9qeyftpy'
p2
sS'Created At'
p3
S'2015-11-29 01:56:06'
p4
s.(dp0
S'Text'
p1
S'#lumia950xl #windows10 \xe2\x80\x93 microsoft lumia 950 xl review roundup: does the windows\xe2\x80\xa6 https://t.co/xbxcmcr4yo #android https://t.co/m2fiecqdtw'
p2
sS'Created At'
p3
S'2015-11-29 01:56:07'
p4
s.(dp0
S'Text'
p1
S'#lumia950xl #windows10 \xe2\x80\x93 microsoft lumia 950 xl review roundup: does the windows\xe2\x80\xa6 https://t.co/vlrohgft8d #android https://t.co/jbctfmyqao'
p2
sS'Created At'
p3
S'2015-11-29 01:56:07'
p4
s.(dp0
S'Text'
p1
S'#lumia950xl #windows10 \xe2\x80\x93 microsoft lumia 950 xl review roundup: does the windows\xe2\x80\xa6 https://t.co/usmej916kq #android https://t.co/ik9h78gfyn'
p2
sS'Created At'
p3
S'2015-11-29 01:56:07'
p4
s.(dp0
S'Text'
p1
S'#lumia950xl #windows10 \xe2\x80\x93 microsoft lumia 950 xl review roundup: does the windows\xe2\x80\xa6 https://t.co/wjhdvymhod #android https://t.co/dchvrycpgf'
p2
sS'Created At'
p3
S'2015-11-29 01:56:07'
p4
s.(dp0
S'Text'
p1
S'#lumia950xl #windows10 \xe2\x80\x93 microsoft lumia 950 xl review roundup: does the windows\xe2\x80\xa6 https://t.co/gwbgx0ktyp #android https://t.co/gt8ipyuhym'
p2
sS'Created At'
p3
S'2015-11-29 01:56:07'
p4
s.(dp0
S'Text'
p1
S'#lumia950xl #windows10 \xe2\x80\x93 microsoft lumia 950 xl review roundup: does the windows\xe2\x80\xa6 https://t.co/wtkuhffjqp #android https://t.co/ygi4nnugks'
p2
sS'Created At'
p3
S'2015-11-29 01:56:07'
p4
s.(dp0
S'Text'
p1
S'#lumia950xl #windows10 \xe2\x80\x93 microsoft lumia 950 xl review roundup: does the windows\xe2\x80\xa6 https://t.co/zqisrpyobi #android https://t.co/7fdkak8o40'
p2
sS'Created At'
p3
S'2015-11-29 01:56:07'
p4
s.(dp0
S'Text'
p1
S'#lumia950xl #windows10 \xe2\x80\x93 microsoft lumia 950 xl review roundup: does the windows\xe2\x80\xa6 https://t.co/fr4yvrl9sw #android https://t.co/gnocntoabn'
p2
sS'Created At'
p3
S'2015-11-29 01:56:07'
p4
s.(dp0
S'Text'
p1
S'#lumia950xl #windows10 \xe2\x80\x93 microsoft lumia 950 xl review roundup: does the windows\xe2\x80\xa6 https://t.co/nukvpyenoy #android https://t.co/0miftj5l4g'
p2
sS'Created At'
p3
S'2015-11-29 01:56:07'
p4
s.(dp0
S'Text'
p1
S'#lumia950xl #windows10 \xe2\x80\x93 microsoft lumia 950 xl review roundup: does the windows\xe2\x80\xa6 https://t.co/jeot2isj3j #android https://t.co/p3vdlhrdmi'
p2
sS'Created At'
p3
S'2015-11-29 01:56:07'
p4
s.(dp0
S'Text'
p1
S'16gb archos 101 android internet wifi 10.1" tablet with charger + accessories - bid now! o\xe2\x80\xa6 https://t.co/pprdt41zjf https://t.co/rm7u72oo9o'
p2
sS'Created At'
p3
S'2015-11-29 01:56:08'
p4
s.(dp0
S'Text'
p1
S'#lumia950xl #windows10 \xe2\x80\x93 microsoft lumia 950 xl review roundup: does the windows\xe2\x80\xa6 https://t.co/yvfynb2s17 #android https://t.co/yxcjtkztgu'
p2
sS'Created At'
p3
S'2015-11-29 01:56:08'
p4
s.(dp0
S'Text'
p1
S'#lumia950xl #windows10 \xe2\x80\x93 microsoft lumia 950 xl review roundup: does the windows\xe2\x80\xa6 https://t.co/fsyfdfubnj #android https://t.co/us6fv8ah5y'
p2
sS'Created At'
p3
S'2015-11-29 01:56:08'
p4
s.(dp0
S'Text'
p1
S'#lumia950xl #windows10 \xe2\x80\x93 microsoft lumia 950 xl review roundup: does the windows\xe2\x80\xa6 https://t.co/kh8nog386b #android https://t.co/z0tiblstvj'
p2
sS'Created At'
p3
S'2015-11-29 01:56:08'
p4
s.(dp0
S'Text'
p1
S'#lumia950xl #windows10 \xe2\x80\x93 microsoft lumia 950 xl review roundup: does the windows\xe2\x80\xa6 https://t.co/hhksmwfbkr #android https://t.co/2izhseaih5'
p2
sS'Created At'
p3
S'2015-11-29 01:56:08'
p4
s.(dp0
S'Text'
p1
S'#lumia950xl #windows10 \xe2\x80\x93 microsoft lumia 950 xl review roundup: does the windows\xe2\x80\xa6 https://t.co/lhjsbnnw7p #android https://t.co/9vwzau3bgx'
p2
sS'Created At'
p3
S'2015-11-29 01:56:08'
p4
s.(dp0
S'Text'
p1
S'#lumia950xl #windows10 \xe2\x80\x93 microsoft lumia 950 xl review roundup: does the windows\xe2\x80\xa6 https://t.co/3hu1grleo0 #android https://t.co/c3i1gpvrep'
p2
sS'Created At'
p3
S'2015-11-29 01:56:08'
p4
s.(dp0
S'Text'
p1
S'#lumia950xl #windows10 \xe2\x80\x93 microsoft lumia 950 xl review roundup: does the windows\xe2\x80\xa6 https://t.co/9qmjqm47qc #android https://t.co/gjmjinbgry'
p2
sS'Created At'
p3
S'2015-11-29 01:56:08'
p4
s.(dp0
S'Text'
p1
S'#lumia950xl #windows10 \xe2\x80\x93 microsoft lumia 950 xl review roundup: does the windows\xe2\x80\xa6 https://t.co/oocchldnm9 #android https://t.co/cik6dsk8gf'
p2
sS'Created At'
p3
S'2015-11-29 01:56:08'
p4
s.(dp0
S'Text'
p1
S'#lumia950xl #windows10 \xe2\x80\x93 microsoft lumia 950 xl review roundup: does the windows\xe2\x80\xa6 https://t.co/9n13xy1hde #android https://t.co/d08bya56cr'
p2
sS'Created At'
p3
S'2015-11-29 01:56:08'
p4
s.(dp0
S'Text'
p1
S'#lumia950xl #windows10 \xe2\x80\x93 microsoft lumia 950 xl review roundup: does the windows\xe2\x80\xa6 https://t.co/irj85r4uru #android https://t.co/yskglq1qd3'
p2
sS'Created At'
p3
S'2015-11-29 01:56:08'
p4
s.(dp0
S'Text'
p1
S'happy car jump android app is now available at https://t.co/xqd0fun7n1 repository. https://t.co/norinfjcpj'
p2
sS'Created At'
p3
S'2015-11-29 01:56:09'
p4
s.(dp0
S'Text'
p1
S'#lumia950xl #windows10 \xe2\x80\x93 microsoft lumia 950 xl review roundup: does the windows\xe2\x80\xa6 https://t.co/o1vssjdxaj #android https://t.co/ufs9kkwp68'
p2
sS'Created At'
p3
S'2015-11-29 01:56:08'
p4
s.(dp0
S'Text'
p1
S'@beardeddoomguy rip android'
p2
sS'Created At'
p3
S'2015-11-29 01:56:09'
p4
s.(dp0
S'Text'
p1
S'#lumia950xl #windows10 \xe2\x80\x93 microsoft lumia 950 xl review roundup: does the windows\xe2\x80\xa6 https://t.co/iu9hsizrzx #android https://t.co/s6zdeu7sqg'
p2
sS'Created At'
p3
S'2015-11-29 01:56:09'
p4
s.(dp0
S'Text'
p1
S'#lumia950xl #windows10 \xe2\x80\x93 microsoft lumia 950 xl review roundup: does the windows\xe2\x80\xa6 https://t.co/ieim8ab2ry #android https://t.co/145pskkxid'
p2
sS'Created At'
p3
S'2015-11-29 01:56:09'
p4
s.(dp0
S'Text'
p1
S'#lumia950xl #windows10 \xe2\x80\x93 microsoft lumia 950 xl review roundup: does the windows\xe2\x80\xa6 https://t.co/vxgjyo1tii #android https://t.co/ipkwojukyx'
p2
sS'Created At'
p3
S'2015-11-29 01:56:09'
p4
s.(dp0
S'Text'
p1
S'#lumia950xl #windows10 \xe2\x80\x93 microsoft lumia 950 xl review roundup: does the windows\xe2\x80\xa6 https://t.co/lnjlaaqc6p #android https://t.co/kotlkpz7wy'
p2
sS'Created At'
p3
S'2015-11-29 01:56:09'
p4
s.(dp0
S'Text'
p1
S'#lumia950xl #windows10 \xe2\x80\x93 microsoft lumia 950 xl review roundup: does the windows\xe2\x80\xa6 https://t.co/4pemifwnc9 #android https://t.co/m5h8wjqnwn'
p2
sS'Created At'
p3
S'2015-11-29 01:56:09'
p4
s.(dp0
S'Text'
p1
S'#lumia950xl #windows10 \xe2\x80\x93 microsoft lumia 950 xl review roundup: does the windows\xe2\x80\xa6 https://t.co/wr6qq2ktms #android https://t.co/uebybl2rde'
p2
sS'Created At'
p3
S'2015-11-29 01:56:10'
p4
s.(dp0
S'Text'
p1
S'enter to win a google nexus 6p android smartphone @androidheadline #android #nexus #nexus6p https://t.co/1ywtceim0f'
p2
sS'Created At'
p3
S'2015-11-29 01:56:10'
p4
s.(dp0
S'Text'
p1
S'#lumia950xl #windows10 \xe2\x80\x93 microsoft lumia 950 xl review roundup: does the windows\xe2\x80\xa6 https://t.co/octkywnedd #android https://t.co/gryq31moki'
p2
sS'Created At'
p3
S'2015-11-29 01:56:10'
p4
s.(dp0
S'Text'
p1
S'#lumia950xl #windows10 \xe2\x80\x93 microsoft lumia 950 xl review roundup: does the windows\xe2\x80\xa6 https://t.co/dipwkfvo94 #android https://t.co/rrys2uafwe'
p2
sS'Created At'
p3
S'2015-11-29 01:56:10'
p4
s.(dp0
S'Text'
p1
S'#lumia950xl #windows10 \xe2\x80\x93 microsoft lumia 950 xl review roundup: does the windows\xe2\x80\xa6 https://t.co/fdgin42bol #android https://t.co/f59t3dxwf3'
p2
sS'Created At'
p3
S'2015-11-29 01:56:10'
p4
s.(dp0
S'Text'
p1
S'#lumia950xl #windows10 \xe2\x80\x93 microsoft lumia 950 xl review roundup: does the windows\xe2\x80\xa6 https://t.co/areuhh1orb #android https://t.co/n7xgbetw7v'
p2
sS'Created At'
p3
S'2015-11-29 01:56:10'
p4
s.(dp0
S'Text'
p1
S'#lumia950xl #windows10 \xe2\x80\x93 microsoft lumia 950 xl review roundup: does the windows\xe2\x80\xa6 https://t.co/sj32dvuqdm #android https://t.co/illpthghdf'
p2
sS'Created At'
p3
S'2015-11-29 01:56:10'
p4
s.(dp0
S'Text'
p1
S'#lumia950xl #windows10 \xe2\x80\x93 microsoft lumia 950 xl review roundup: does the windows\xe2\x80\xa6 https://t.co/webjmbgboj #android https://t.co/s98seswyhx'
p2
sS'Created At'
p3
S'2015-11-29 01:56:11'
p4
s.(dp0
S'Text'
p1
S'#lumia950xl #windows10 \xe2\x80\x93 microsoft lumia 950 xl review roundup: does the windows\xe2\x80\xa6 https://t.co/pbcb10wz1x #android https://t.co/pjwdacpbgj'
p2
sS'Created At'
p3
S'2015-11-29 01:56:11'
p4
s.(dp0
S'Text'
p1
S'#lumia950xl #windows10 \xe2\x80\x93 microsoft lumia 950 xl review roundup: does the windows\xe2\x80\xa6 https://t.co/ps7ostah3f #android https://t.co/vsylbosqo4'
p2
sS'Created At'
p3
S'2015-11-29 01:56:11'
p4
s.(dp0
S'Text'
p1
S'#lumia950xl #windows10 \xe2\x80\x93 microsoft lumia 950 xl review roundup: does the windows\xe2\x80\xa6 https://t.co/qekm88ymo9 #android https://t.co/b8sfpnz5po'
p2
sS'Created At'
p3
S'2015-11-29 01:56:11'
p4
s.(dp0
S'Text'
p1
S'#lumia950xl #windows10 \xe2\x80\x93 microsoft lumia 950 xl review roundup: does the windows\xe2\x80\xa6 https://t.co/y5kutpuk6i #android https://t.co/u5w4esvikw'
p2
sS'Created At'
p3
S'2015-11-29 01:56:11'
p4
s.(dp0
S'Text'
p1
S'#lumia950xl #windows10 \xe2\x80\x93 microsoft lumia 950 xl review roundup: does the windows\xe2\x80\xa6 https://t.co/i1hsp8pmf8 #android https://t.co/9tipyulme1'
p2
sS'Created At'
p3
S'2015-11-29 01:56:12'
p4
s.(dp0
S'Text'
p1
S'#lumia950xl #windows10 \xe2\x80\x93 microsoft lumia 950 xl review roundup: does the windows\xe2\x80\xa6 https://t.co/dcwg0aierd #android https://t.co/z0prvzvvqe'
p2
sS'Created At'
p3
S'2015-11-29 01:56:12'
p4
s.(dp0
S'Text'
p1
S'#lumia950xl #windows10 \xe2\x80\x93 microsoft lumia 950 xl review roundup: does the windows\xe2\x80\xa6 https://t.co/kqsnzosr7r #android https://t.co/mthn68rjik'
p2
sS'Created At'
p3
S'2015-11-29 01:56:12'
p4
s.(dp0
S'Text'
p1
S'#lumia950xl #windows10 \xe2\x80\x93 microsoft lumia 950 xl review roundup: does the windows\xe2\x80\xa6 https://t.co/bndskxm6i4 #android https://t.co/fek8nrjawe'
p2
sS'Created At'
p3
S'2015-11-29 01:56:12'
p4
s.(dp0
S'Text'
p1
S'#lumia950xl #windows10 \xe2\x80\x93 microsoft lumia 950 xl review roundup: does the windows\xe2\x80\xa6 https://t.co/y3ndufn5jc #android https://t.co/pumdzsollh'
p2
sS'Created At'
p3
S'2015-11-29 01:56:12'
p4
s.(dp0
S'Text'
p1
S"rt @radioperipou: nowplaying : gramatik - doin' it\n\ntune in https://t.co/opfsd3gfno\n #android app https://t.co/mfyw7heajd\n#peripouwebradio"
p2
sS'Created At'
p3
S'2015-11-29 01:56:13'
p4
s.(dp0
S'Text'
p1
S'#lumia950xl #windows10 \xe2\x80\x93 microsoft lumia 950 xl review roundup: does the windows\xe2\x80\xa6 https://t.co/6pxs1ivnzu #android https://t.co/gj2is4htqc'
p2
sS'Created At'
p3
S'2015-11-29 01:56:13'
p4
s.(dp0
S'Text'
p1
S'#lumia950xl #windows10 \xe2\x80\x93 microsoft lumia 950 xl review roundup: does the windows\xe2\x80\xa6 https://t.co/nvct23sdt4 #android https://t.co/o3thgmagn5'
p2
sS'Created At'
p3
S'2015-11-29 01:56:13'
p4
s.(dp0
S'Text'
p1
S'#lumia950xl #windows10 \xe2\x80\x93 microsoft lumia 950 xl review roundup: does the windows\xe2\x80\xa6 https://t.co/fy4w8absca #android https://t.co/exozmkwlru'
p2
sS'Created At'
p3
S'2015-11-29 01:56:13'
p4
s.(dp0
S'Text'
p1
S'#lumia950xl #windows10 \xe2\x80\x93 microsoft lumia 950 xl review roundup: does the windows\xe2\x80\xa6 https://t.co/ha9tmvlred #android https://t.co/p28dxi7vuo'
p2
sS'Created At'
p3
S'2015-11-29 01:56:14'
p4
s.(dp0
S'Text'
p1
S'#lumia950xl #windows10 \xe2\x80\x93 microsoft lumia 950 xl review roundup: does the windows\xe2\x80\xa6 https://t.co/p8ecyabslr #android https://t.co/aqktsay9ir'
p2
sS'Created At'
p3
S'2015-11-29 01:56:14'
p4
s.(dp0
S'Text'
p1
S'#lumia950xl #windows10 \xe2\x80\x93 microsoft lumia 950 xl review roundup: does the windows\xe2\x80\xa6 https://t.co/kpngcli4fy #android https://t.co/tymjpizjii'
p2
sS'Created At'
p3
S'2015-11-29 01:56:14'
p4
s.(dp0
S'Text'
p1
S'#lumia950xl #windows10 \xe2\x80\x93 microsoft lumia 950 xl review roundup: does the windows\xe2\x80\xa6 https://t.co/xbmdvbpavj #android https://t.co/18smbggan0'
p2
sS'Created At'
p3
S'2015-11-29 01:56:15'
p4
s.(dp0
S'Text'
p1
S'@outsourcetw luv4luv ukg vol.1 mixed by @djpyro android https://t.co/an8soszojn / iphone https://t.co/qshrdu1qut https://t.co/ezkvhcs6np'
p2
sS'Created At'
p3
S'2015-11-29 01:56:15'
p4
s.(dp0
S'Text'
p1
S'#lumia950xl #windows10 \xe2\x80\x93 microsoft lumia 950 xl review roundup: does the windows\xe2\x80\xa6 https://t.co/uze2jyn7wh #android https://t.co/iy52jsdin3'
p2
sS'Created At'
p3
S'2015-11-29 01:56:15'
p4
s.(dp0
S'Text'
p1
S'#lumia950xl #windows10 \xe2\x80\x93 microsoft lumia 950 xl review roundup: does the windows\xe2\x80\xa6 https://t.co/4rf2c5joxb #android https://t.co/vufyxte3gz'
p2
sS'Created At'
p3
S'2015-11-29 01:56:15'
p4
s.(dp0
S'Text'
p1
S'#lumia950xl #windows10 \xe2\x80\x93 microsoft lumia 950 xl review roundup: does the windows\xe2\x80\xa6 https://t.co/iy7rmcwzg3 #android https://t.co/dii96o7zbd'
p2
sS'Created At'
p3
S'2015-11-29 01:56:15'
p4
s.(dp0
S'Text'
p1
S'#lumia950xl #windows10 \xe2\x80\x93 microsoft lumia 950 xl review roundup: does the windows\xe2\x80\xa6 https://t.co/5jyp0u47pu #android https://t.co/5zlob6ywkh'
p2
sS'Created At'
p3
S'2015-11-29 01:56:16'
p4
s.(dp0
S'Text'
p1
S'#computer #tablet #deals : https://t.co/pagiiocfvu 3x griffin universal stylus touch pens for android ipad tablet \xe2\x80\xa6 https://t.co/eusjj8twip'
p2
sS'Created At'
p3
S'2015-11-29 01:56:16'
p4
s.(dp0
S'Text'
p1
S'#lumia950xl #windows10 \xe2\x80\x93 microsoft lumia 950 xl review roundup: does the windows\xe2\x80\xa6 https://t.co/rneogshzte #android https://t.co/t9gdkt7scu'
p2
sS'Created At'
p3
S'2015-11-29 01:56:16'
p4
s.(dp0
S'Text'
p1
S'#lumia950xl #windows10 \xe2\x80\x93 microsoft lumia 950 xl review roundup: does the windows\xe2\x80\xa6 https://t.co/ze5ysukxiy #android https://t.co/jifwpisx8q'
p2
sS'Created At'
p3
S'2015-11-29 01:56:17'
p4
s.(dp0
S'Text'
p1
S'#lumia950xl #windows10 \xe2\x80\x93 microsoft lumia 950 xl review roundup: does the windows\xe2\x80\xa6 https://t.co/4hwa2v8gos #android https://t.co/hzaq14an5t'
p2
sS'Created At'
p3
S'2015-11-29 01:56:18'
p4
s.(dp0
S'Text'
p1
S'#computer #tablet #deals : https://t.co/4asncyej2r xgody 10.1" quad core google android 4.4 kitkat tablet 8gb blue\xe2\x80\xa6 https://t.co/lsumt4yhbi'
p2
sS'Created At'
p3
S'2015-11-29 01:56:18'
p4
s.(dp0
S'Text'
p1
S'#lumia950xl #windows10 \xe2\x80\x93 microsoft lumia 950 xl review roundup: does the windows\xe2\x80\xa6 https://t.co/onrbxkyrgh #android https://t.co/t1w9joxdde'
p2
sS'Created At'
p3
S'2015-11-29 01:56:18'
p4
s.(dp0
S'Text'
p1
S"i'm playing the @reflexgamingltd app, available on android! https://t.co/mdc3wymt9s"
p2
sS'Created At'
p3
S'2015-11-29 01:56:19'
p4
s.(dp0
S'Text'
p1
S'@lex_og lmao he team android'
p2
sS'Created At'
p3
S'2015-11-29 01:56:19'
p4
s.(dp0
S'Text'
p1
S'#lumia950xl #windows10 \xe2\x80\x93 microsoft lumia 950 xl review roundup: does the windows\xe2\x80\xa6 https://t.co/azymttykdg #android https://t.co/euysqntgoe'
p2
sS'Created At'
p3
S'2015-11-29 01:56:19'
p4
s.(dp0
S'Text'
p1
S'#computer #tablet #deals : https://t.co/0hurru1hpr 7" irulu babypad quad core android 3g tablet pc 1/8gb learning \xe2\x80\xa6 https://t.co/bvdmbvmqm0'
p2
sS'Created At'
p3
S'2015-11-29 01:56:20'
p4
s.(dp0
S'Text'
p1
S'#lumia950xl #windows10 \xe2\x80\x93 microsoft lumia 950 xl review roundup: does the windows\xe2\x80\xa6 https://t.co/d27gdfbn3e #android https://t.co/s6wfyqptcg'
p2
sS'Created At'
p3
S'2015-11-29 01:56:20'
p4
s.(dp0
S'Text'
p1
S'rt @octogamesstudio: new addictive game on #android -&gt; https://t.co/m0nj0hydqp\n"brother of flappy bird" #indiedev #indiegame #mobilegames h\xe2\x80\xa6'
p2
sS'Created At'
p3
S'2015-11-29 01:56:21'
p4
s.(dp0
S'Text'
p1
S'the game \xe2\x80\x94 instagram to pull epic penis pics https://t.co/kvcok3cvty #trending #news #startups #howto #diy #android #howto #apps'
p2
sS'Created At'
p3
S'2015-11-29 01:56:23'
p4
s.(dp0
S'Text'
p1
S"i'm earning #mplusrewards in office jerk - android. https://t.co/cxjmsccl62"
p2
sS'Created At'
p3
S'2015-11-29 01:56:23'
p4
s.(dp0
S'Text'
p1
S'rt @icasnetwork2015: https://t.co/ax1vqjuder android m coming soon - icas @icasnetwork2015'
p2
sS'Created At'
p3
S'2015-11-29 01:56:25'
p4
s.(dp0
S'Text'
p1
S'just earned 4751 points in crazy city race. #tirr5 try to beat my score. download now for android: https://t.co/dcuznzdm0u'
p2
sS'Created At'
p3
S'2015-11-29 01:56:25'
p4
s.(dp0
S'Text'
p1
S'#10billionwives \ni married123,192,250,377,616wives!\n\nios: https://t.co/gjxexisei7\nandroid: https://t.co/hy3vfvjopl https://t.co/1iaik3xxvw'
p2
sS'Created At'
p3
S'2015-11-29 01:56:26'
p4
s.(dp0
S'Text'
p1
S'android app: chloes x diary https://t.co/szlgycxcwd'
p2
sS'Created At'
p3
S'2015-11-29 01:56:28'
p4
s.(dp0
S'Text'
p1
S"rt @benostler1: my mom says i can't hang out with you because you have an android."
p2
sS'Created At'
p3
S'2015-11-29 01:56:28'
p4
s.(dp0
S'Text'
p1
S'ripjkanime - anime in spanish android app is now available at https://t.co/xqd0fun7n1 repository. https://t.co/tqd5exacna'
p2
sS'Created At'
p3
S'2015-11-29 01:56:29'
p4
s.(dp0
S'Text'
p1
S'the best deal https://t.co/hvcuebzze5 #1226 2.4g rf mini wireless keyboard mouse touchpad handheld android tv box \xe2\x80\xa6 https://t.co/goichvgitd'
p2
sS'Created At'
p3
S'2015-11-29 01:56:30'
p4
s.(dp0
S'Text'
p1
S'#nowplaying on 8tracks: "k-pop - girl group highlights of 2015" \n\nhttps://t.co/fczg7mdu6x - sent from the #8tracks #android #musicapp'
p2
sS'Created At'
p3
S'2015-11-29 01:56:30'
p4
s.(dp0
S'Text'
p1
S'@pizzapartyben android goat'
p2
sS'Created At'
p3
S'2015-11-29 01:56:31'
p4
s.(dp0
S'Text'
p1
S"rt @hardwarenewz: fossil's q founder android wear watch is out now https://t.co/wmwahdzo1h https://t.co/uvbab3t0jb"
p2
sS'Created At'
p3
S'2015-11-29 01:56:33'
p4
s.(dp0
S'Text'
p1
S'6b0b4a3a-963c-11e5-bd51-0246bf74738d here come the rose gold android phones'
p2
sS'Created At'
p3
S'2015-11-29 01:56:35'
p4
s.(dp0
S'Text'
p1
S"i'm earning #mplusrewards in guess da number android. https://t.co/ihcijizp1k"
p2
sS'Created At'
p3
S'2015-11-29 01:56:36'
p4
s.(dp0
S'Text'
p1
S"rt @woridstarhiphop: why do android snapchats look like they're from the 1800's https://t.co/lsmibdqjce"
p2
sS'Created At'
p3
S'2015-11-29 01:56:38'
p4
s.(dp0
S'Text'
p1
S'i\'ve just finished "domestic pen"! i\'d love for you to come and get a gift from me! https://t.co/kfbmtt7ava #android  #gameinsight'
p2
sS'Created At'
p3
S'2015-11-29 01:56:38'
p4
s.(dp0
S'Text'
p1
S'cell phones : lg g3 android phone (verizon-unlocked) vs985 32gb black / white / blue / red (b) \xe2\x80\xa6 https://t.co/xm9dwyqu0k'
p2
sS'Created At'
p3
S'2015-11-29 01:56:38'
p4
s.(dp0
S'Text'
p1
S'i need your help on this level of #whatsthesaying! play on ios or android: https://t.co/vbnl4iaitn https://t.co/zat00oqwhz'
p2
sS'Created At'
p3
S'2015-11-29 01:56:38'
p4
s.(dp0
S'Text'
p1
S'planned parenthood gunman lived in nc woods with no electricity, running water https://t.co/chwvj3uykj via the @foxnews android app'
p2
sS'Created At'
p3
S'2015-11-29 01:56:41'
p4
s.(dp0
S'Text'
p1
S'cell phones : motorola xt907 droid razr m 4g verizon wireless camera android smartphone https://t.co/hlsjsdxm4g #8\xe2\x80\xa6 https://t.co/h72vhllszl'
p2
sS'Created At'
p3
S'2015-11-29 01:56:41'
p4
s.(dp0
S'Text'
p1
S'final fantasy brave exvius gameplay hd \xe2\x80\x93 rpg android \xe2\x80\x93 ios https://t.co/t3gczloazp'
p2
sS'Created At'
p3
S'2015-11-29 01:56:42'
p4
s.(dp0
S'Text'
p1
S"i'm earning #mplusrewards in https://t.co/jjsrbuwkvz for android. https://t.co/izlul2scyc @dictionarycom"
p2
sS'Created At'
p3
S'2015-11-29 01:56:45'
p4
s.(dp0
S'Text'
p1
S'just earned 702 points in crazy city race. #tirr5 try to beat my score. download now for android: https://t.co/dcuznzdm0u'
p2
sS'Created At'
p3
S'2015-11-29 01:56:46'
p4
s.(dp0
S'Text'
p1
S'here are our samsung galaxy s6 and nexus 6p contest winners!:  november is just about finished for an... https://t.co/qlg7qjjofo #android'
p2
sS'Created At'
p3
S'2015-11-29 01:56:46'
p4
s.(dp0
S'Text'
p1
S'here are our samsung galaxy s6 and nexus 6p contest winners! https://t.co/yebrx2blp5 #android #apps #news'
p2
sS'Created At'
p3
S'2015-11-29 01:56:47'
p4
s.(dp0
S'Text'
p1
S'here are our samsung galaxy s6 and nexus 6p contest winners!:  november is just about finished for an... https://t.co/grdhg1yf2q #android'
p2
sS'Created At'
p3
S'2015-11-29 01:56:48'
p4
s.(dp0
S'Text'
p1
S'\xe2\x99\xae\xe2\x99\xaa samsung i535 galaxy s3 verizon wireless android wifi 16gb 8mp camera cell phone https://t.co/5erezic3ci https://t.co/srpqbugup2'
p2
sS'Created At'
p3
S'2015-11-29 01:56:49'
p4
s.(dp0
S'Text'
p1
S'#android central here are our samsung galaxy s6 and nexus 6p contest winners!:  november is just about... https://t.co/w9caakqvdq #phones'
p2
sS'Created At'
p3
S'2015-11-29 01:56:49'
p4
s.(dp0
S'Text'
p1
S'rt @operationabdi: when a crackhead steals your iphone so you gotta downgrade to a android smh'
p2
sS'Created At'
p3
S'2015-11-29 01:56:50'
p4
s.(dp0
S'Text'
p1
S"i'm earning #mplusrewards in name da state android. https://t.co/jhtyoowhgj"
p2
sS'Created At'
p3
S'2015-11-29 01:56:51'
p4
s.(dp0
S'Text'
p1
S'here are our samsung galaxy s6 and nexus 6p contest winners!:  november is just about finished for an... https://t.co/qjlrkhgbwj #android'
p2
sS'Created At'
p3
S'2015-11-29 01:56:51'
p4
s.(dp0
S'Text'
p1
S'#10billionwives \ni married60,104,888,010,646wives!\n\nios: https://t.co/49vylavoen\nandroid: https://t.co/3vuq2mhsin https://t.co/m5gc3phnv5'
p2
sS'Created At'
p3
S'2015-11-29 01:56:52'
p4
s.(dp0
S'Text'
p1
S'nowplaying : 40 winks - city dweller\n\ntune in https://t.co/opfsd3gfno\n #android app https://t.co/mfyw7heajd\n#peripouwebradio'
p2
sS'Created At'
p3
S'2015-11-29 01:56:53'
p4
s.(dp0
S'Text'
p1
S'new 8gb irulu 7" android 4.4 kitkat tablet pc quad core dual camera purple - bid now! only\xe2\x80\xa6 https://t.co/fuazclansm https://t.co/x7sj6ojjpb'
p2
sS'Created At'
p3
S'2015-11-29 01:56:54'
p4
s.(dp0
S'Text'
p1
S'samsung galaxy tab pro sm-t520 10.1" 16gb android tablet - bid now! only $101.38 https://t.co/k0cab8d0ol https://t.co/ysjejl1j75'
p2
sS'Created At'
p3
S'2015-11-29 01:56:54'
p4
s.(dp0
S'Text'
p1
S'used  samsung galaxy tab s   sm-t800n 10.5" 16 gb  android tablet - bid now! only $185.18 https://t.co/ilal9cf4ki https://t.co/9ktcld3fzi'
p2
sS'Created At'
p3
S'2015-11-29 01:56:55'
p4
s.(dp0
S'Text'
p1
S'just downloaded the free app donateaphoto from johnson &amp; johnson. for android or iphone. #charity #donate #photos https://t.co/lytvmtmwqj'
p2
sS'Created At'
p3
S'2015-11-29 01:56:56'
p4
s.(dp0
S'Text'
p1
S'donald trump and john oliver fought it o https://t.co/gazr01zd2c #uncategorized #trending #news #startups #howto #diy #android #howto #apps'
p2
sS'Created At'
p3
S'2015-11-29 01:56:56'
p4
s.(dp0
S'Text'
p1
S"i'm earning #mplusrewards in name da president (android). https://t.co/ohke4kgtcw"
p2
sS'Created At'
p3
S'2015-11-29 01:56:57'
p4
s.(dp0
S'Text'
p1
S'rt @icasnetwork2015: https://t.co/ax1vqjuder android m coming soon - icas @icasnetwork2015'
p2
sS'Created At'
p3
S'2015-11-29 01:56:57'
p4
s.(dp0
S'Text'
p1
S'\xe2\x9d\xa4 [free] adult comic viewer (android)\xe2\x9d\xa4 app download \xe2\x96\xba https://t.co/t3jrdr9dk6   #hentai #ecchi #anime #porn207 https://t.co/hxlqic66up'
p2
sS'Created At'
p3
S'2015-11-29 01:56:58'
p4
s.(dp0
S'Text'
p1
S"i'm earning #mplusrewards in zap da bug android. https://t.co/jmsdoxh389"
p2
sS'Created At'
p3
S'2015-11-29 01:57:03'
p4
s.(dp0
S'Text'
p1
S'#lumia950xl #windows10 \xe2\x80\x93 microsoft lumia 950 xl review roundup: does the windows\xe2\x80\xa6 https://t.co/h5qxashu7j #android https://t.co/xq6thlivta'
p2
sS'Created At'
p3
S'2015-11-29 01:57:05'
p4
s.(dp0
S'Text'
p1
S'#lumia950xl #windows10 \xe2\x80\x93 microsoft lumia 950 xl review roundup: does the windows\xe2\x80\xa6 https://t.co/bdvkxusjdf #android https://t.co/bamrl5xism'
p2
sS'Created At'
p3
S'2015-11-29 01:57:06'
p4
s.(dp0
S'Text'
p1
S'rt @octogamesstudio: new addictive game on #android -&gt; https://t.co/m0nj0hydqp\n"brother of flappy bird" #indiedev #indiegame #mobilegames h\xe2\x80\xa6'
p2
sS'Created At'
p3
S'2015-11-29 01:57:07'
p4
s.(dp0
S'Text'
p1
S'#lumia950xl #windows10 \xe2\x80\x93 microsoft lumia 950 xl review roundup: does the windows\xe2\x80\xa6 https://t.co/8wy41qjjqv #android https://t.co/daufk0r2jd'
p2
sS'Created At'
p3
S'2015-11-29 01:57:07'
p4
s.(dp0
S'Text'
p1
S'#lumia950xl #windows10 \xe2\x80\x93 microsoft lumia 950 xl review roundup: does the windows\xe2\x80\xa6 https://t.co/vl4ll7qz9j #android https://t.co/5mnv5oedvi'
p2
sS'Created At'
p3
S'2015-11-29 01:57:08'
p4
s.(dp0
S'Text'
p1
S"i'm earning #mplusrewards in splat da bat android. https://t.co/1szbe92ryl"
p2
sS'Created At'
p3
S'2015-11-29 01:57:08'
p4
s.(dp0
S'Text'
p1
S'#lumia950xl #windows10 \xe2\x80\x93 microsoft lumia 950 xl review roundup: does the windows\xe2\x80\xa6 https://t.co/eub9iq6plw #android https://t.co/n3fpi6f00t'
p2
sS'Created At'
p3
S'2015-11-29 01:57:08'
p4
s.(dp0
S'Text'
p1
S'#lumia950xl #windows10 \xe2\x80\x93 microsoft lumia 950 xl review roundup: does the windows\xe2\x80\xa6 https://t.co/7dlikq6kpe #android https://t.co/gobzszzqjc'
p2
sS'Created At'
p3
S'2015-11-29 01:57:08'
p4
s.(dp0
S'Text'
p1
S'#lumia950xl #windows10 \xe2\x80\x93 microsoft lumia 950 xl review roundup: does the windows\xe2\x80\xa6 https://t.co/v0mvsrq2zn #android https://t.co/eqmthjwh9p'
p2
sS'Created At'
p3
S'2015-11-29 01:57:10'
p4
s.(dp0
S'Text'
p1
S'#lumia950xl #windows10 \xe2\x80\x93 microsoft lumia 950 xl review roundup: does the windows\xe2\x80\xa6 https://t.co/gboigcnl4n #android https://t.co/1t3qsvyt6f'
p2
sS'Created At'
p3
S'2015-11-29 01:57:10'
p4
s.(dp0
S'Text'
p1
S'#lumia950xl #windows10 \xe2\x80\x93 microsoft lumia 950 xl review roundup: does the windows\xe2\x80\xa6 https://t.co/onps2l1fta #android https://t.co/01stdlgzxt'
p2
sS'Created At'
p3
S'2015-11-29 01:57:11'
p4
s.(dp0
S'Text'
p1
S'#lumia950xl #windows10 \xe2\x80\x93 microsoft lumia 950 xl review roundup: does the windows\xe2\x80\xa6 https://t.co/hv2b3yjgdl #android https://t.co/db0kh8rx7x'
p2
sS'Created At'
p3
S'2015-11-29 01:57:12'
p4
s.(dp0
S'Text'
p1
S'#lumia950xl #windows10 \xe2\x80\x93 microsoft lumia 950 xl review roundup: does the windows\xe2\x80\xa6 https://t.co/h3vxnop9n1 #android https://t.co/poikifmegf'
p2
sS'Created At'
p3
S'2015-11-29 01:57:12'
p4
s.(dp0
S'Text'
p1
S'rt @marshalltx_: if you got an android please delete snapchat fam'
p2
sS'Created At'
p3
S'2015-11-29 01:57:12'
p4
s.(dp0
S'Text'
p1
S'#lumia950xl #windows10 \xe2\x80\x93 microsoft lumia 950 xl review roundup: does the windows\xe2\x80\xa6 https://t.co/lv09tkttky #android https://t.co/r5uzoaso6w'
p2
sS'Created At'
p3
S'2015-11-29 01:57:12'
p4
s.(dp0
S'Text'
p1
S'#lumia950xl #windows10 \xe2\x80\x93 microsoft lumia 950 xl review roundup: does the windows\xe2\x80\xa6 https://t.co/49q8xond6z #android https://t.co/g2tlrvb1xf'
p2
sS'Created At'
p3
S'2015-11-29 01:57:13'
p4
s.(dp0
S'Text'
p1
S'#lumia950xl #windows10 \xe2\x80\x93 microsoft lumia 950 xl review roundup: does the windows\xe2\x80\xa6 https://t.co/l3k0civmkq #android https://t.co/kznezfiebc'
p2
sS'Created At'
p3
S'2015-11-29 01:57:14'
p4
s.(dp0
S'Text'
p1
S'@heatherhalley @lorialan1 @yuda1994da playing blaster master on my nes (nintendo) emulator, i\'ve made it to area 6: "icy caves"! #android\xf0\x9f\x99\x8c\xe2\x9d\x84\xe2\x9b\x84'
p2
sS'Created At'
p3
S'2015-11-29 01:57:14'
p4
s.(dp0
S'Text'
p1
S'#lumia950xl #windows10 \xe2\x80\x93 microsoft lumia 950 xl review roundup: does the windows\xe2\x80\xa6 https://t.co/9a9e6tngqt #android https://t.co/s88cm436np'
p2
sS'Created At'
p3
S'2015-11-29 01:57:15'
p4
s.(dp0
S'Text'
p1
S'#lumia950xl #windows10 \xe2\x80\x93 microsoft lumia 950 xl review roundup: does the windows\xe2\x80\xa6 https://t.co/73wgksqhdt #android https://t.co/485ys3z2xs'
p2
sS'Created At'
p3
S'2015-11-29 01:57:15'
p4
s.(dp0
S'Text'
p1
S'#lumia950xl #windows10 \xe2\x80\x93 microsoft lumia 950 xl review roundup: does the windows\xe2\x80\xa6 https://t.co/azlrzkav7l #android https://t.co/ytzljno5ba'
p2
sS'Created At'
p3
S'2015-11-29 01:57:16'
p4
s.(dp0
S'Text'
p1
S"i'm earning #mplusrewards in dragons: rise of berk android. https://t.co/eimfwiwjuo"
p2
sS'Created At'
p3
S'2015-11-29 01:57:17'
p4
s.(dp0
S'Text'
p1
S'#lumia950xl #windows10 \xe2\x80\x93 microsoft lumia 950 xl review roundup: does the windows\xe2\x80\xa6 https://t.co/uqbojyd73x #android https://t.co/ou1irgiedf'
p2
sS'Created At'
p3
S'2015-11-29 01:57:16'
p4
s.(dp0
S'Text'
p1
S'rt @octogamesstudio: new addictive game on #android -&gt; https://t.co/m0nj0hydqp\n"brother of flappy bird" #indiedev #indiegame #mobilegames h\xe2\x80\xa6'
p2
sS'Created At'
p3
S'2015-11-29 01:57:17'
p4
s.(dp0
S'Text'
p1
S'#lumia950xl #windows10 \xe2\x80\x93 microsoft lumia 950 xl review roundup: does the windows\xe2\x80\xa6 https://t.co/agxfsumqqe #android https://t.co/t7z8yznfxa'
p2
sS'Created At'
p3
S'2015-11-29 01:57:18'
p4
s.(dp0
S'Text'
p1
S"i'm now an e-list celebrity in kim kardashian: hollywood. you can be famous too by playing on android! https://t.co/yj3ybuknuc"
p2
sS'Created At'
p3
S'2015-11-29 01:57:18'
p4
s.(dp0
S'Text'
p1
S'#lumia950xl #windows10 \xe2\x80\x93 microsoft lumia 950 xl review roundup: does the windows\xe2\x80\xa6 https://t.co/s2pg0okgr7 #android https://t.co/y6q8g80cpe'
p2
sS'Created At'
p3
S'2015-11-29 01:57:19'
p4
s.(dp0
S'Text'
p1
S'rt @markfidelman: 77.6% of all orders made on mobile devices happened on apple devices, while only 22.1% happened on android devices #black\xe2\x80\xa6'
p2
sS'Created At'
p3
S'2015-11-29 01:57:20'
p4
s.(dp0
S'Text'
p1
S'#lumia950xl #windows10 \xe2\x80\x93 microsoft lumia 950 xl review roundup: does the windows\xe2\x80\xa6 https://t.co/yjlhm9aahc #android https://t.co/duhqvmxla8'
p2
sS'Created At'
p3
S'2015-11-29 01:57:20'
p4
s.(dp0
S'Text'
p1
S'rt @appsguideindia: search ifsc of #greater bombay of all bank and branch on bank ifsc micr android apps https://t.co/fnbpreh3s1 #retweet p\xe2\x80\xa6'
p2
sS'Created At'
p3
S'2015-11-29 01:57:23'
p4
s.(dp0
S'Text'
p1
S'the us emv migration report: what new chip cards mean for c https://t.co/uybpnliavj #apps #news #startups #howto #diy #android #howto #apps'
p2
sS'Created At'
p3
S'2015-11-29 01:57:24'
p4
s.(dp0
S'Text'
p1
S'# impact of latest android devices and android versions on android application\xc2\xa0development https://t.co/x11wh0yx4k'
p2
sS'Created At'
p3
S'2015-11-29 01:57:25'
p4
s.(dp0
S'Text'
p1
S'help the smurfs build a village to call home! play on ios and android. @beelinegames #smurfsvillage https://t.co/dkphephyju'
p2
sS'Created At'
p3
S'2015-11-29 01:57:26'
p4
s.(dp0
S'Text'
p1
S'rt @nochillposts: snapchat on android be like  https://t.co/adjyplrcxy'
p2
sS'Created At'
p3
S'2015-11-29 01:57:26'
p4
s.(dp0
S'Text'
p1
S"rt @danielnewman: i can't believe half a million of you follow me &amp; have downloaded my album!\xe2\x9d\xa4  itunes https://t.co/2oobcdecsn android http\xe2\x80\xa6"
p2
sS'Created At'
p3
S'2015-11-29 01:57:26'
p4
s.(dp0
S'Text'
p1
S"i'm earning #mplusrewards in light da fuse android. https://t.co/3f64s74mwo"
p2
sS'Created At'
p3
S'2015-11-29 01:57:27'
p4
s.(dp0
S'Text'
p1
S'tablets shop #541 : https://t.co/c3rrkbdydo 10.1" android 4.4 quad-core 1gb + 8gb dual camera 10 point touch bt ta\xe2\x80\xa6 https://t.co/vijwqv8xip'
p2
sS'Created At'
p3
S'2015-11-29 01:57:28'
p4
s.(dp0
S'Text'
p1
S'rt @icasnetwork2015: https://t.co/ax1vqjuder android m coming soon - icas @icasnetwork2015'
p2
sS'Created At'
p3
S'2015-11-29 01:57:30'
p4
s.(dp0
S'Text'
p1
S'rt @octogamesstudio: new addictive game on #android -&gt; https://t.co/m0nj0hydqp\n"brother of flappy bird" #indiedev #indiegame #mobilegames h\xe2\x80\xa6'
p2
sS'Created At'
p3
S'2015-11-29 01:57:30'
p4
s.(dp0
S'Text'
p1
S"i'm earning #mplusrewards in flip da coin android. https://t.co/es7j1zfz2r"
p2
sS'Created At'
p3
S'2015-11-29 01:57:30'
p4
s.(dp0
S'Text'
p1
S'@mattfulbrook luv4luv ukg vol.1 mixed by @djpyro android https://t.co/bbqh7p0xcg / iphone https://t.co/w2dbdu5hif https://t.co/qwauehruks'
p2
sS'Created At'
p3
S'2015-11-29 01:57:31'
p4
s.(dp0
S'Text'
p1
S'flaws of material design https://t.co/sqaytay2qi'
p2
sS'Created At'
p3
S'2015-11-29 01:57:32'
p4
s.(dp0
S'Text'
p1
S'see who viewed your instagram profile recently with instaview iphone and android app.. @instaviewapps: https://t.co/evokli4fat'
p2
sS'Created At'
p3
S'2015-11-29 01:57:32'
p4
s.(dp0
S'Text'
p1
S'andru android robot usb cell phone travel charger - retail packaging - green https://t.co/2tpdqij5b7'
p2
sS'Created At'
p3
S'2015-11-29 01:57:32'
p4
s.(dp0
S'Text'
p1
S'#smartwatch best s2 waterproof #bluetooth round smart watch phone mate camera for #android #iphone https://t.co/xfn9xqftgf #smartwatches'
p2
sS'Created At'
p3
S'2015-11-29 01:57:33'
p4
s.(dp0
S'Text'
p1
S'"you have an android mom!!!!" \xf0\x9f\x98\x82'
p2
sS'Created At'
p3
S'2015-11-29 01:57:33'
p4
s.(dp0
S'Text'
p1
S'here are our samsung galaxy s6 and nexus 6p contest winners!: november is just about finished for another\xe2\x80\xa6 https://t.co/6cx2c9d0bp #android'
p2
sS'Created At'
p3
S'2015-11-29 01:57:33'
p4
s.(dp0
S'Text'
p1
S'here are our samsung galaxy s6 and nexus 6p contest winners! https://t.co/3qag9buqq2 #android #tech #news https://t.co/8tfgnkhfpx'
p2
sS'Created At'
p3
S'2015-11-29 01:57:33'
p4
s.(dp0
S'Text'
p1
S'here are our samsung galaxy s6 and nexus 6p contest winners!: november is just about finished for\xe2\x80\xa6 https://t.co/o6buhpyad3 #android #india'
p2
sS'Created At'
p3
S'2015-11-29 01:57:34'
p4
s.(dp0
S'Text'
p1
S'here are our samsung galaxy s6 and nexus 6p contest winners! https://t.co/rpsutin2zq  #android #google'
p2
sS'Created At'
p3
S'2015-11-29 01:57:34'
p4
s.(dp0
S'Text'
p1
S'here are our samsung galaxy s6 and nexus 6p contest winners! https://t.co/asg1e7rjcb via @androidcentral #android'
p2
sS'Created At'
p3
S'2015-11-29 01:57:35'
p4
s.(dp0
S'Text'
p1
S'here are our samsung galaxy s6 and nexus 6p contest winners! https://t.co/kqcbgxolxu via android central https://t.co/rwacup43xr'
p2
sS'Created At'
p3
S'2015-11-29 01:57:36'
p4
s.(dp0
S'Text'
p1
S'#lumia950xl #windows10 \xe2\x80\x93 microsoft lumia 950 xl review roundup: does the windows\xe2\x80\xa6 https://t.co/xgmaw7evxe #android https://t.co/gsmjpbke0q'
p2
sS'Created At'
p3
S'2015-11-29 01:57:36'
p4
s.(dp0
S'Text'
p1
S'#lumia950xl #windows10 \xe2\x80\x93 microsoft lumia 950 xl review roundup: does the windows\xe2\x80\xa6 https://t.co/atx1akucqd #android https://t.co/n0kjtmxdts'
p2
sS'Created At'
p3
S'2015-11-29 01:57:36'
p4
s.(dp0
S'Text'
p1
S'#lumia950xl #windows10 \xe2\x80\x93 microsoft lumia 950 xl review roundup: does the windows\xe2\x80\xa6 https://t.co/vl6ngv11pw #android https://t.co/oeoctpq3fz'
p2
sS'Created At'
p3
S'2015-11-29 01:57:37'
p4
s.(dp0
S'Text'
p1
S'#lumia950xl #windows10 \xe2\x80\x93 microsoft lumia 950 xl review roundup: does the windows\xe2\x80\xa6 https://t.co/e6ukmy79qv #android https://t.co/ddpqrxphha'
p2
sS'Created At'
p3
S'2015-11-29 01:57:39'
p4
s.(dp0
S'Text'
p1
S'*** find out where all the gogo shows  are with the gogo app: https://t.co/zejxip071e   just click on gogo shows'
p2
sS'Created At'
p3
S'2015-11-29 01:57:40'
p4
s.(dp0
S'Text'
p1
S'via android central: here are our samsung galaxy s6 and nexus 6p contest winners! https://t.co/agwvhmzk2t'
p2
sS'Created At'
p3
S'2015-11-29 01:57:40'
p4
s.(dp0
S'Text'
p1
S'#lumia950xl #windows10 \xe2\x80\x93 microsoft lumia 950 xl review roundup: does the windows\xe2\x80\xa6 https://t.co/ujk2nvm59u #android https://t.co/3gd9jzuwsf'
p2
sS'Created At'
p3
S'2015-11-29 01:57:40'
p4
s.(dp0
S'Text'
p1
S"@thefringthing @pocketcasts fwiw, i'm pretty happy with the android app, but i couldn't even get through a single radiolab episode on web"
p2
sS'Created At'
p3
S'2015-11-29 01:57:41'
p4
s.(dp0
S'Text'
p1
S'compu deals : https://t.co/rvuq8vzuyd irulu babypad 7" 8gb quad core android 4.4 learning ereader kid\'s tablet pc \xe2\x80\xa6 https://t.co/u58zjt9ube'
p2
sS'Created At'
p3
S'2015-11-29 01:57:41'
p4
s.(dp0
S'Text'
p1
S'compu deals : https://t.co/vzgvuevnsg 10.1" android 4.4 quad-core 1gb + 8gb dual camera 10 point touch bt tablet w\xe2\x80\xa6 https://t.co/ihxozyhref'
p2
sS'Created At'
p3
S'2015-11-29 01:57:42'
p4
s.(dp0
S'Text'
p1
S'rorimg reached a new level in the secret society https://t.co/rhxzsjrjih'
p2
sS'Created At'
p3
S'2015-11-29 01:57:43'
p4
s.(dp0
S'Text'
p1
S'rt @jhonlimpz: best applications for your android phones https://t.co/qtgvfucz1j https://t.co/smd6jjfhpt'
p2
sS'Created At'
p3
S'2015-11-29 01:57:45'
p4
s.(dp0
S'Text'
p1
S'there is a special app only for rooted android phones. https://t.co/nwxvuqjhey'
p2
sS'Created At'
p3
S'2015-11-29 01:57:46'
p4
s.(dp0
S'Text'
p1
S"i'm earning #mplusrewards in da daily compliment android. https://t.co/yrrlpjkuyu"
p2
sS'Created At'
p3
S'2015-11-29 01:57:47'
p4
s.(dp0
S'Text'
p1
S"i'm earning #mplusrewards in office jerk - android. https://t.co/mqtaebwz5z"
p2
sS'Created At'
p3
S'2015-11-29 01:57:49'
p4
s.(dp0
S'Text'
p1
S'# impact of latest android devices and android versions on android application\xc2\xa0development https://t.co/fegujnbwjw'
p2
sS'Created At'
p3
S'2015-11-29 01:57:50'
p4
s.(dp0
S'Text'
p1
S"i'm earning #mplusrewards in roll da dice android. https://t.co/lugkxrpoon"
p2
sS'Created At'
p3
S'2015-11-29 01:57:55'
p4
s.(dp0
S'Text'
p1
S"rt @dory: why do android snapchats look like they're from the 1800's https://t.co/2xwu9jpti5"
p2
sS'Created At'
p3
S'2015-11-29 01:57:55'
p4
s.(dp0
S'Text'
p1
S'rt @northead: i absolutely had no idea that #windows10mobile\xe2\x80\x99s start screen was so customisable. it almost looks like android. but differen\xe2\x80\xa6'
p2
sS'Created At'
p3
S'2015-11-29 01:57:57'
p4
s.(dp0
S'Text'
p1
S"rt @rldiculousness: why do android snapchats look like they're from the 1800's https://t.co/gau6teserr"
p2
sS'Created At'
p3
S'2015-11-29 01:57:58'
p4
s.(dp0
S'Text'
p1
S'rt @flashymigoo: iphone  https://t.co/ofprgz3t1f'
p2
sS'Created At'
p3
S'2015-11-29 01:57:58'
p4
s.(dp0
S'Text'
p1
S"@pocket i can't sort by tags in the android beta client anymore. known bug?"
p2
sS'Created At'
p3
S'2015-11-29 01:57:58'
p4
s.(dp0
S'Text'
p1
S'hiring now: android developer in san francisco, ca https://t.co/xufxodhjnp #androidjob'
p2
sS'Created At'
p3
S'2015-11-29 01:58:00'
p4
s.(dp0
S'Text'
p1
S'enter to win a google nexus 5 android smartphone @androidheadline #android #nexus #nexus5x  https://t.co/nbggs1rqqd'
p2
sS'Created At'
p3
S'2015-11-29 01:58:01'
p4
s.(dp0
S'Text'
p1
S'@eiizaschyler android problems'
p2
sS'Created At'
p3
S'2015-11-29 01:58:01'
p4
s.(dp0
S'Text'
p1
S'#oneclickroot: how-to safely #root #lge lg-d620 running #android 4.4.2 https://t.co/3ww44o1mtz'
p2
sS'Created At'
p3
S'2015-11-29 01:58:02'
p4
s.(dp0
S'Text'
p1
S'#oneclickroot: how-to safely #root #unknown toucan stick 3d pro running #android 4.2.2 https://t.co/ydd4i6hey1'
p2
sS'Created At'
p3
S'2015-11-29 01:58:02'
p4
s.(dp0
S'Text'
p1
S'just heard about this app - brings the marshmallow doze feature to older android versions. any good? https://t.co/vmdirfdt1b'
p2
sS'Created At'
p3
S'2015-11-29 01:58:02'
p4
s.(dp0
S'Text'
p1
S'#oneclickroot: how-to safely #root #alps karbonn a12* running #android 4.4.2 https://t.co/6tgyhazv1p'
p2
sS'Created At'
p3
S'2015-11-29 01:58:02'
p4
s.(dp0
S'Text'
p1
S"i'm earning #mplusrewards in ask da ball android. https://t.co/hkt5qdgmaa"
p2
sS'Created At'
p3
S'2015-11-29 01:58:02'
p4
s.(dp0
S'Text'
p1
S'rt @icasnetwork2015: https://t.co/ax1vqjuder android m coming soon - icas @icasnetwork2015'
p2
sS'Created At'
p3
S'2015-11-29 01:58:03'
p4
s.(dp0
S'Text'
p1
S'https://t.co/bvmfnyb9ji #7965 #7439 universal sd/tf card reader for all android... https://t.co/togxva4g1u'
p2
sS'Created At'
p3
S'2015-11-29 01:58:03'
p4
s.(dp0
S'Text'
p1
S"i'm now a d-list celebrity in kim kardashian: hollywood. you can be famous too by playing on android! https://t.co/bx3fbjaish"
p2
sS'Created At'
p3
S'2015-11-29 01:58:05'
p4
s.(dp0
S'Text'
p1
S'"android is so much better than apple"\nme: https://t.co/0tkzshhmk8'
p2
sS'Created At'
p3
S'2015-11-29 01:58:05'
p4
s.(dp0
S'Text'
p1
S'promote your android app - buy #android #app #installs and #reviews for #google #play #marketing \xe2\x80\xa2\xe2\x80\xa2\xe2\x96\xba https://t.co/c1j8pz6jui'
p2
sS'Created At'
p3
S'2015-11-29 01:58:06'
p4
s.(dp0
S'Text'
p1
S"rt @armin_dashti: i think @android don't lose to easy, but #smartphone market will be good with coming #windows10mobile.\n@microsoft @windows"
p2
sS'Created At'
p3
S'2015-11-29 01:58:07'
p4
s.(dp0
S'Text'
p1
S'new post: download tvu player android mobile https://t.co/qsvzyhwtix'
p2
sS'Created At'
p3
S'2015-11-29 01:58:07'
p4
s.(dp0
S'Text'
p1
S'squidoscom: check out free android app for wi-fi security and unblocking websites! https://t.co/vklu0ezfzt'
p2
sS'Created At'
p3
S'2015-11-29 01:58:08'
p4
s.(dp0
S'Text'
p1
S'familystele: check out free android app for wi-fi security and unblocking websites! https://t.co/vklu0ezfzt'
p2
sS'Created At'
p3
S'2015-11-29 01:58:08'
p4
s.(dp0
S'Text'
p1
S'tyuhaman: check out free android app for wi-fi security and unblocking websites! https://t.co/vklu0ezfzt'
p2
sS'Created At'
p3
S'2015-11-29 01:58:08'
p4
s.(dp0
S'Text'
p1
S'#10billionwives \ni married5,254,319,920wives!\n\nios: https://t.co/mm4rflmbxh\nandroid: https://t.co/z7vxkerkl6 https://t.co/lmpiu0pzwj'
p2
sS'Created At'
p3
S'2015-11-29 01:58:08'
p4
s.(dp0
S'Text'
p1
S'commuterline: check out free android app for wi-fi security and unblocking websites! https://t.co/vklu0ezfzt'
p2
sS'Created At'
p3
S'2015-11-29 01:58:09'
p4
s.(dp0
S'Text'
p1
S'crisb1984: check out free android app for wi-fi security and unblocking websites! https://t.co/vklu0ezfzt'
p2
sS'Created At'
p3
S'2015-11-29 01:58:09'
p4
s.(dp0
S'Text'
p1
S'iinalab: check out free android app for wi-fi security and unblocking websites! https://t.co/vklu0ezfzt'
p2
sS'Created At'
p3
S'2015-11-29 01:58:10'
p4
s.(dp0
S'Text'
p1
S'becknermargie: check out free android app for wi-fi security and unblocking websites! https://t.co/vklu0ezfzt'
p2
sS'Created At'
p3
S'2015-11-29 01:58:10'
p4
s.(dp0
S'Text'
p1
S'ricardolds1992: check out free android app for wi-fi security and unblocking websites! https://t.co/vklu0ezfzt'
p2
sS'Created At'
p3
S'2015-11-29 01:58:10'
p4
s.(dp0
S'Text'
p1
S'mobile development by rizkyahmat: i need an #android app. i would like it designed and built\xe2\x80\xa6 https://t.co/h0kko8ntd6'
p2
sS'Created At'
p3
S'2015-11-29 01:58:11'
p4
s.(dp0
S'Text'
p1
S'spasswarers: check out free android app for wi-fi security and unblocking websites! https://t.co/vklu0ezfzt'
p2
sS'Created At'
p3
S'2015-11-29 01:58:11'
p4
s.(dp0
S'Text'
p1
S'kimpscherir: check out free android app for wi-fi security and unblocking websites! https://t.co/vklu0ezfzt'
p2
sS'Created At'
p3
S'2015-11-29 01:58:11'
p4
s.(dp0
S'Text'
p1
S'wilsondemoura2: check out free android app for wi-fi security and unblocking websites! https://t.co/vklu0ezfzt'
p2
sS'Created At'
p3
S'2015-11-29 01:58:12'
p4
s.(dp0
S'Text'
p1
S"rt @a4_ent: now playing p.b.h's painful thoughts  via @datpiff's android app https://t.co/masj4euuln https://t.co/zpua1loduc"
p2
sS'Created At'
p3
S'2015-11-29 01:58:12'
p4
s.(dp0
S'Text'
p1
S'trackingandroid: check out free android app for wi-fi security and unblocking websites! https://t.co/vklu0ezfzt'
p2
sS'Created At'
p3
S'2015-11-29 01:58:12'
p4
s.(dp0
S'Text'
p1
S'[2015 official] high school story cheats hack tool for android ios | game hack https://t.co/o9ifmqktns'
p2
sS'Created At'
p3
S'2015-11-29 01:58:12'
p4
s.(dp0
S'Text'
p1
S'dlvrtech: check out free android app for wi-fi security and unblocking websites! https://t.co/vklu0ezfzt'
p2
sS'Created At'
p3
S'2015-11-29 01:58:13'
p4
s.(dp0
S'Text'
p1
S'androidinforum: check out free android app for wi-fi security and unblocking websites! https://t.co/vklu0ezfzt'
p2
sS'Created At'
p3
S'2015-11-29 01:58:13'
p4
s.(dp0
S'Text'
p1
S'androidisgod: check out free android app for wi-fi security and unblocking websites! https://t.co/vklu0ezfzt'
p2
sS'Created At'
p3
S'2015-11-29 01:58:13'
p4
s.(dp0
S'Text'
p1
S'droid: check out free android app for wi-fi security and unblocking websites! https://t.co/vklu0ezfzt'
p2
sS'Created At'
p3
S'2015-11-29 01:58:13'
p4
s.(dp0
S'Text'
p1
S'amelindanso: check out free android app for wi-fi security and unblocking websites! https://t.co/vklu0ezfzt'
p2
sS'Created At'
p3
S'2015-11-29 01:58:14'
p4
s.(dp0
S'Text'
p1
S'# impact of latest android devices and android versions on android application\xc2\xa0development https://t.co/7veswa7pdq'
p2
sS'Created At'
p3
S'2015-11-29 01:58:14'
p4
s.(dp0
S'Text'
p1
S'denishcolombo: check out free android app for wi-fi security and unblocking websites! https://t.co/vklu0ezfzt'
p2
sS'Created At'
p3
S'2015-11-29 01:58:14'
p4
s.(dp0
S'Text'
p1
S'2b22b4ab7ebe43d: check out free android app for wi-fi security and unblocking websites! https://t.co/vklu0ezfzt'
p2
sS'Created At'
p3
S'2015-11-29 01:58:15'
p4
s.(dp0
S'Text'
p1
S'the quality of my snapchat photos on my iphone 4 is worse than android... #sorry'
p2
sS'Created At'
p3
S'2015-11-29 01:58:15'
p4
s.(dp0
S'Text'
p1
S'#top3apps for #hbdrajabrar\n\ntwitter for android 59%\ntwitter for iphone 16%\ntwitter web client 10%'
p2
sS'Created At'
p3
S'2015-11-29 01:58:16'
p4
s.(dp0
S'Text'
p1
S'just downloaded free android psd mockup lady that helped sparkle my presentation. check it on https://t.co/mzvfq5esp2 via @mockupdeals'
p2
sS'Created At'
p3
S'2015-11-29 01:58:17'
p4
s.(dp0
S'Text'
p1
S'\xf0\x9f\x92\xaf who goes on kik ? android users? https://t.co/5aotvk1qmp'
p2
sS'Created At'
p3
S'2015-11-29 01:58:17'
p4
s.(dp0
S'Text'
p1
S"so @fatimakone141 is trying to tell me that her htc isn't an android \xf0\x9f\x99\x84\xf0\x9f\x98\x92 k."
p2
sS'Created At'
p3
S'2015-11-29 01:58:17'
p4
s.(dp0
S'Text'
p1
S"i'm earning #mplusrewards in https://t.co/jxkqvoidkk for android. https://t.co/qv8ku2u9gu @dictionarycom"
p2
sS'Created At'
p3
S'2015-11-29 01:58:18'
p4
s.(dp0
S'Text'
p1
S"that's why women must not steal watermelons https://t.co/6etzs8zniz"
p2
sS'Created At'
p3
S'2015-11-29 01:58:18'
p4
s.(dp0
S'Text'
p1
S'listening to robert palmer-bad case of loving you (doctor, doctor) on my android phone . a great song! https://t.co/smod4plpi1'
p2
sS'Created At'
p3
S'2015-11-29 01:58:20'
p4
s.(dp0
S'Text'
p1
S'rt evelynsmithh: rt antonette_armen: #smartwatches new u8 #bluetooth smart wrist watch phone mate for #android&amp;ios\xe2\x80\xa6 https://t.co/un1huaxzl8'
p2
sS'Created At'
p3
S'2015-11-29 01:58:21'
p4
s.(dp0
S'Text'
p1
S'rt evelynsmithh: rt myriam_bozak: \xf0\x9f\x91\x8d#smartwatches hot u8 #bluetooth smart wrist watch phone mate for #android;ios #\xe2\x80\xa6 https://t.co/nvud1vhdpq'
p2
sS'Created At'
p3
S'2015-11-29 01:58:21'
p4
s.(dp0
S'Text'
p1
S'android https://t.co/keft83zez7'
p2
sS'Created At'
p3
S'2015-11-29 01:58:21'
p4
s.(dp0
S'Text'
p1
S'@riahannah05 luv4luv ukg vol.1 mixed by @djpyro android https://t.co/fcyuhjxx0a / iphone https://t.co/zgnoqujudu https://t.co/qdh5jlppa5'
p2
sS'Created At'
p3
S'2015-11-29 01:58:22'
p4
s.(dp0
S'Text'
p1
S'rt myriam_bozak: \xf0\x9f\x91\x8d\xf0\x9f\x91\x8d#smartwatches hot u8 #bluetooth smart watch phone mate for ios #android samsung\xe2\x80\xa6 \xe2\x80\xa6 https://t.co/1473bgehqy'
p2
sS'Created At'
p3
S'2015-11-29 01:58:22'
p4
s.(dp0
S'Text'
p1
S'rt antonette_armen: \xf0\x9f\x91\x8d#smartwatches new u8 #bluetooth smart wrist watch phone mate for #android;ios #smartwatch\xe2\x80\xa6 \xe2\x80\xa6 https://t.co/lmyqhpwdfj'
p2
sS'Created At'
p3
S'2015-11-29 01:58:22'
p4
s.(dp0
S'Text'
p1
S'rt negreteeashley: \xf0\x9f\x91\x8d\xf0\x9f\x91\x8d#smartwatches top u8 #bluetooth smart watch phone mate for ios #android samsung\xe2\x80\xa6 \xe2\x80\xa6 https://t.co/whfspgxpbp'
p2
sS'Created At'
p3
S'2015-11-29 01:58:22'
p4
s.(dp0
S'Text'
p1
S'rt myriam_bozak: #smartwatches hot u8 smart watch mate #bluetooth phone for #iphone #android\xe2\x80\xa6 \xe2\x80\xa6 https://t.co/sznro0j1t6'
p2
sS'Created At'
p3
S'2015-11-29 01:58:23'
p4
s.(dp0
S'Text'
p1
S"i'm earning #mplusrewards in https://t.co/tptxum00xk for android. https://t.co/xqlhd0xdxw @dictionarycom"
p2
sS'Created At'
p3
S'2015-11-29 01:58:23'
p4
s.(dp0
S'Text'
p1
S'rt antonette_armen: #smartwatch nice u8 smart watch mate #bluetooth phone for #iphone #android samsung htc lg red new \xe2\x80\xa6'
p2
sS'Created At'
p3
S'2015-11-29 01:58:23'
p4
s.(dp0
S'Text'
p1
S'rt negreteeashley: #smartwatches top u8 smart watch mate #bluetooth phone for #iphone #android\xe2\x80\xa6 \xe2\x80\xa6 https://t.co/g6i9ws345c'
p2
sS'Created At'
p3
S'2015-11-29 01:58:23'
p4
s.(dp0
S'Text'
p1
S'android.util.sparsebooleanarray@41ab3700\nhttps://t.co/tkmx3al7nj'
p2
sS'Created At'
p3
S'2015-11-29 01:58:23'
p4
s.(dp0
S'Text'
p1
S'rt myriam_bozak: #smartwatch best s2 waterproof #bluetooth round smart watch phone mate camera for #android #iphone \xe2\x80\xa6'
p2
sS'Created At'
p3
S'2015-11-29 01:58:23'
p4
s.(dp0
S'Text'
p1
S"phone on 10% n i'm nowhere near a charger all these niggas got android \xf0\x9f\x98\x93\xef\xb8\x8f"
p2
sS'Created At'
p3
S'2015-11-29 01:58:24'
p4
s.(dp0
S'Text'
p1
S'us for jeep chrysler dodge android 4.4.4 os car dvd player gps u cd stereo 1080p https://t.co/ab9qdrnxdo https://t.co/esxyodbcuj'
p2
sS'Created At'
p3
S'2015-11-29 01:58:25'
p4
s.(dp0
S'Text'
p1
S"rt @dory: why do android snapchats look like they're from the 1800's https://t.co/2xwu9jpti5"
p2
sS'Created At'
p3
S'2015-11-29 01:58:26'
p4
s.(dp0
S'Text'
p1
S"i'm earning #mplusrewards in cut da deck android. https://t.co/uhnbosvuvi"
p2
sS'Created At'
p3
S'2015-11-29 01:58:26'
p4
s.(dp0
S'Text'
p1
S'@itsruthb do you know if/when your ep will  be available for android users?'
p2
sS'Created At'
p3
S'2015-11-29 01:58:27'
p4
s.(dp0
S'Text'
p1
S'black smart watch phone mate u8 bluetooth for sony android samsung htc lg - bid now! only \xe2\x80\xa6 https://t.co/x9ptaprbbv https://t.co/dkrpbtvmnd'
p2
sS'Created At'
p3
S'2015-11-29 01:58:28'
p4
s.(dp0
S'Text'
p1
S'rt @octogamesstudio: new addictive game on #android -&gt; https://t.co/m0nj0hydqp\n"brother of flappy bird" #indiedev #indiegame #mobilegames h\xe2\x80\xa6'
p2
sS'Created At'
p3
S'2015-11-29 01:58:29'
p4
s.(dp0
S'Text'
p1
S'black smart watch phone mate u8 bluetooth for sony android samsung htc lg - bid now! only \xe2\x80\xa6 https://t.co/pxpfmhvxka https://t.co/z2dcpum4lj'
p2
sS'Created At'
p3
S'2015-11-29 01:58:30'
p4
s.(dp0
S'Text'
p1
S"rt @worldstarc0medy: why do android snapchats look like they're from the 1800's https://t.co/6piabkvgcr"
p2
sS'Created At'
p3
S'2015-11-29 01:58:31'
p4
s.(dp0
S'Text'
p1
S"i'm using viber to make free phone calls and send free messages on my android phone https://t.co/fuujnvumuj"
p2
sS'Created At'
p3
S'2015-11-29 01:58:33'
p4
s.(dp0
S'Text'
p1
S'tablets offers #108 : https://t.co/j4z0qggoeu 10.1" android 4.4 quad-core 1gb + 8gb dual camera 10 point touch bt \xe2\x80\xa6 https://t.co/niwahowpr3'
p2
sS'Created At'
p3
S'2015-11-29 01:58:33'
p4
s.(dp0
S'Text'
p1
S'rt @octogamesstudio: new addictive game on #android -&gt; https://t.co/m0nj0hydqp\n"brother of flappy bird" #indiedev #indiegame #mobilegames h\xe2\x80\xa6'
p2
sS'Created At'
p3
S'2015-11-29 01:58:33'
p4
s.(dp0
S'Text'
p1
S"that federico carnales made android's most popular launcher, announced a big rewrite, and then disappeared, is play store's biggest mystery."
p2
sS'Created At'
p3
S'2015-11-29 01:58:34'
p4
s.(dp0
S'Text'
p1
S'rt @icasnetwork2015: https://t.co/ax1vqjuder android m coming soon - icas @icasnetwork2015'
p2
sS'Created At'
p3
S'2015-11-29 01:58:35'
p4
s.(dp0
S'Text'
p1
S'fallout shelter hack unlimited lunchboxes &amp; caps https://t.co/g14hddox6v'
p2
sS'Created At'
p3
S'2015-11-29 01:58:36'
p4
s.(dp0
S'Text'
p1
S'# impact of latest android devices and android versions on android application\xc2\xa0development https://t.co/p3mzelwicz'
p2
sS'Created At'
p3
S'2015-11-29 01:58:40'
p4
s.(dp0
S'Text'
p1
S'check out bankraid from @reflexgamingltd, available on android! https://t.co/dl9aa2zlyk'
p2
sS'Created At'
p3
S'2015-11-29 01:58:42'
p4
s.(dp0
S'Text'
p1
S'bbm app download free for android - app of the week bbm\xe2\x84\xa2 for android is officially released fro https://t.co/fc8ao6xjv4 #bbm #blackberry'
p2
sS'Created At'
p3
S'2015-11-29 01:58:43'
p4
s.(dp0
S'Text'
p1
S'9" inch google android 4.4 kitkat quad core tablet pc a33 8gb dual camera wi-fi https://t.co/uyvdwucji4 #8093 https://t.co/v5rofyhmht'
p2
sS'Created At'
p3
S'2015-11-29 01:58:43'
p4
s.(dp0
S'Text'
p1
S'mobile shop &gt;&gt; https://t.co/t7unrgskn0 #301 vivitar infinite ios android smartphones selfie stick built-in shutter\xe2\x80\xa6 https://t.co/lygfuzbozd'
p2
sS'Created At'
p3
S'2015-11-29 01:58:45'
p4
s.(dp0
S'Text'
p1
S'rt @androidgames06: rt androidgames06: rt sirfeveck: #indiegamedev #gameart #lighiting #render #gamedesign #mobilegames https://t.co/yme6lg\xe2\x80\xa6'
p2
sS'Created At'
p3
S'2015-11-29 01:58:45'
p4
s.(dp0
S'Text'
p1
S'black smart watch phone mate u8 bluetooth for sony android samsung htc lg - bid now! only \xe2\x80\xa6 https://t.co/exqigifgj3 https://t.co/ojjpy3ikjd'
p2
sS'Created At'
p3
S'2015-11-29 01:58:45'
p4
s.(dp0
S'Text'
p1
S'logitech tablet bluetooth keyboard for windows 8 windows rt android 3.0+ https://t.co/wjuedxcnxl #1028 https://t.co/dbluoiwr00'
p2
sS'Created At'
p3
S'2015-11-29 01:58:46'
p4
s.(dp0
S'Text'
p1
S'irulu 10.1" android 5.1 tablet pc 8gb quad core bluetooth 10 inch w/ case new https://t.co/fzbxwxazwf #8093 https://t.co/taexx58h6f'
p2
sS'Created At'
p3
S'2015-11-29 01:58:46'
p4
s.(dp0
S'Text'
p1
S'#10billionwives \ni married1,150,879,061,150wives!\n\nios: https://t.co/sgixa9ujsc\nandroid: https://t.co/nt4aiqpt6j https://t.co/suvxvud1c5'
p2
sS'Created At'
p3
S'2015-11-29 01:58:47'
p4
s.(dp0
S'Text'
p1
S'irulu 8gb hd 9" android 4.4 quad core dual camera tablet pc wifi w/ keyboards https://t.co/lyxsbuzwxf #1028 https://t.co/fzjr39nbjh'
p2
sS'Created At'
p3
S'2015-11-29 01:58:47'
p4
s.(dp0
S'Text'
p1
S"rt @whisperingriver: i have completed the quest 'build an ancient...' in the #android game the tribez.  https://t.co/y21812zp1n #androidgam\xe2\x80\xa6"
p2
sS'Created At'
p3
S'2015-11-29 01:58:50'
p4
s.(dp0
S'Text'
p1
S'rt highend_canada: #amazon #canada abacus learn by smart touch playable sales rank in appstore for android: 17... https://t.co/ktwdwh5lq1\xc2\xa0 \xe2\x80\xa6'
p2
sS'Created At'
p3
S'2015-11-29 01:58:52'
p4
s.(dp0
S'Text'
p1
S'#9721 logitech tablet bluetooth keyboard for windows 8 windows rt android 3.0+ https://t.co/yeylpprop6 https://t.co/9rycqvsb2c'
p2
sS'Created At'
p3
S'2015-11-29 01:58:53'
p4
s.(dp0
S'Text'
p1
S'rt highend_usa: #amazon: ticket to ride by days of wonder 78% sales rank in appstore for android: 230 (was 411 yes... \xe2\x80\xa6'
p2
sS'Created At'
p3
S'2015-11-29 01:58:53'
p4
s.(dp0
S'Text'
p1
S'rt highend_usa: #amazon: princess royal haircuts salon by mgamey 78% sales rank in appstore for android: 383 (was ... \xe2\x80\xa6'
p2
sS'Created At'
p3
S'2015-11-29 01:58:54'
p4
s.(dp0
S'Text'
p1
S"black friday: the uk's best samsung galaxy s6 deal: save \xc2\xa3100 with black friday code https://t.co/xnxht5p6dh"
p2
sS'Created At'
p3
S'2015-11-29 01:58:54'
p4
s.(dp0
S'Text'
p1
S'rt highend_usa: #amazon: dream league soccer by empireapps 79% sales rank in appstore for android: 388 (was 695 ye... \xe2\x80\xa6'
p2
sS'Created At'
p3
S'2015-11-29 01:58:54'
p4
s.(dp0
S'Text'
p1
S'black friday: the best apple deals for black friday 2015 https://t.co/wsmqa3llfr'
p2
sS'Created At'
p3
S'2015-11-29 01:58:54'
p4
s.(dp0
S'Text'
p1
S'#9721 irulu 8gb hd 9" android 4.4 quad core dual camera tablet pc wifi w/ keyboards https://t.co/3jjfsxk29l https://t.co/fhhcqeeafz'
p2
sS'Created At'
p3
S'2015-11-29 01:58:54'
p4
s.(dp0
S'Text'
p1
S'rt highend_usa: #amazon: ultimate dragon simulator by gluten free games sales rank in appstore for android: 2... https://t.co/4ufwgmbiaz\xc2\xa0 #\xe2\x80\xa6'
p2
sS'Created At'
p3
S'2015-11-29 01:58:54'
p4
s.(dp0
S'Text'
p1
S'black friday: the best john lewis deals for black friday 2015 https://t.co/fnbybc1egj'
p2
sS'Created At'
p3
S'2015-11-29 01:58:54'
p4
s.(dp0
S'Text'
p1
S'black friday: all of the best amazon deals for black friday 2015 https://t.co/dpdlktshiq'
p2
sS'Created At'
p3
S'2015-11-29 01:58:55'
p4
s.(dp0
S'Text'
p1
S'black friday: the best wearables deals for black friday 2015 https://t.co/jvjennx9o5'
p2
sS'Created At'
p3
S'2015-11-29 01:58:55'
p4
s.(dp0
S'Text'
p1
S'black friday: the best ipad and tablet deals for black friday 2015 https://t.co/uybbnnsnil'
p2
sS'Created At'
p3
S'2015-11-29 01:58:55'
p4
s.(dp0
S'Text'
p1
S'black friday: the best iphone 6s deals for black friday: save \xc2\xa3200 with code blackfri200 https://t.co/8weylj4opv'
p2
sS'Created At'
p3
S'2015-11-29 01:58:56'
p4
s.(dp0
S'Text'
p1
S'black friday: samsung galaxy s6 64gb deal: save \xc2\xa3100 with the black friday code blackfris6 https://t.co/axptuohu1o'
p2
sS'Created At'
p3
S'2015-11-29 01:58:56'
p4
s.(dp0
S'Text'
p1
S'rt @cjayytaughther: android users dont need snap chat they snaps be lookin like ah boot leg movie \xf0\x9f\x98\xa9\xf0\x9f\x98\xad\xf0\x9f\x98\x94'
p2
sS'Created At'
p3
S'2015-11-29 01:58:56'
p4
s.(dp0
S'Text'
p1
S'rt @blackberry: .@mashable review: #priv is the "best #blackberry in a decade" https://t.co/refhzlmkvi #android #smartphone'
p2
sS'Created At'
p3
S'2015-11-29 01:58:59'
p4
s.(dp0
S'Text'
p1
S'phones offers &gt;&gt; https://t.co/zrjoycgcrm #034 4.5" for at&amp;t straight talk t-mobile dual core android smart cell ph\xe2\x80\xa6 https://t.co/vrw8ejceiv'
p2
sS'Created At'
p3
S'2015-11-29 01:59:00'
p4
s.(dp0
S'Text'
p1
S'phones offers &gt;&gt; https://t.co/fzewpq1fjr #034 samsung i605 galaxy note 2 16gb verizon wireless 4g lte android wifi\xe2\x80\xa6 https://t.co/e2ie9nukfx'
p2
sS'Created At'
p3
S'2015-11-29 01:59:01'
p4
s.(dp0
S'Text'
p1
S'android circuit: samsung galaxy s7 u-turn, apple suffocates android, galaxy \nnote 5 defeated \n \nhttps://t.co/7nljumpp12'
p2
sS'Created At'
p3
S'2015-11-29 01:59:01'
p4
s.(dp0
S'Text'
p1
S"rt @woridstarhiphop: why do android snapchats look like they're from the 1800's https://t.co/lsmibdqjce"
p2
sS'Created At'
p3
S'2015-11-29 01:59:02'
p4
s.(dp0
S'Text'
p1
S"i'm earning #mplusrewards in pga tour (android). https://t.co/qecagcayca"
p2
sS'Created At'
p3
S'2015-11-29 01:59:02'
p4
s.(dp0
S'Text'
p1
S'black smart watch phone mate u8 bluetooth for sony android samsung htc lg - bid now! only \xe2\x80\xa6 https://t.co/bctb7qiait https://t.co/576crqhp1k'
p2
sS'Created At'
p3
S'2015-11-29 01:59:02'
p4
s.(dp0
S'Text'
p1
S'# impact of latest android devices and android versions on android application\xc2\xa0development https://t.co/4pnboz76ne'
p2
sS'Created At'
p3
S'2015-11-29 01:59:03'
p4
s.(dp0
S'Text'
p1
S'blackfriday_fm : rt dealsplus: get a #blackfriday weekend #deal on your next #iphone or #a\xe2\x80\xa6 https://t.co/hrymxvoh8j) https://t.co/8zeryqx2xr'
p2
sS'Created At'
p3
S'2015-11-29 01:59:04'
p4
s.(dp0
S'Text'
p1
S'm8 quad core android tv box jailbroken kodi xbmc ppv live tv movie fully loaded - bid now!\xe2\x80\xa6 https://t.co/qdbrkzq93m https://t.co/kf5pbhfqtw'
p2
sS'Created At'
p3
S'2015-11-29 01:59:04'
p4
s.(dp0
S'Text'
p1
S'new cars offers : https://t.co/wp1vj6bnbt #deals mini wifi elm327 obd2 ii car scan tool for iphone android pc blac\xe2\x80\xa6 https://t.co/rfcbcbpa0g'
p2
sS'Created At'
p3
S'2015-11-29 01:59:04'
p4
s.(dp0
S'Text'
p1
S'cell phone shop : https://t.co/cbpxmv5ho8 #629 portable power bank backup battery charger samsung android smartpho\xe2\x80\xa6 https://t.co/f0em8h7pcj'
p2
sS'Created At'
p3
S'2015-11-29 01:59:04'
p4
s.(dp0
S'Text'
p1
S'cell phone shop : https://t.co/hekpdxl7ht #629 motorola xt1080m droid maxx android verizon wireless smartphone https://t.co/azofo7nurg'
p2
sS'Created At'
p3
S'2015-11-29 01:59:05'
p4
s.(dp0
S'Text'
p1
S"i'm earning #mplusrewards in sworkit android. https://t.co/qfd7jzsu5l"
p2
sS'Created At'
p3
S'2015-11-29 01:59:06'
p4
s.(dp0
S'Text'
p1
S'rt @icasnetwork2015: https://t.co/ax1vqjuder android m coming soon - icas @icasnetwork2015'
p2
sS'Created At'
p3
S'2015-11-29 01:59:08'
p4
s.(dp0
S'Text'
p1
S'listen now :  rey salinero lindo cielo  on zen for you radio\nfree app iphone / android\nhttps://t.co/tqco4jxpnp'
p2
sS'Created At'
p3
S'2015-11-29 01:59:09'
p4
s.(dp0
S'Text'
p1
S"rt @taylerinthecity: no i'm talking about you android users  https://t.co/kxwe0ictfl"
p2
sS'Created At'
p3
S'2015-11-29 01:59:10'
p4
s.(dp0
S'Text'
p1
S"i'm earning #mplusrewards in da daily insult android. https://t.co/ie5qdgnab2"
p2
sS'Created At'
p3
S'2015-11-29 01:59:11'
p4
s.(dp0
S'Text'
p1
S'rt @asdasdy65arsty2: there is a special app only for rooted android phones. https://t.co/nwxvuqjhey'
p2
sS'Created At'
p3
S'2015-11-29 01:59:10'
p4
s.(dp0
S'Text'
p1
S'join the android: netrunner giveaway sponsored by @deck60online &amp; @boardgameprices via @bgamegiveaway #contestalert  https://t.co/nitijogts1'
p2
sS'Created At'
p3
S'2015-11-29 01:59:12'
p4
s.(dp0
S'Text'
p1
S'black smart watch phone mate u8 bluetooth for sony android samsung htc lg - bid now! only \xe2\x80\xa6 https://t.co/vehhzliwfn https://t.co/4hegb4zp2f'
p2
sS'Created At'
p3
S'2015-11-29 01:59:12'
p4
s.(dp0
S'Text'
p1
S'#apk candy crush saga v1.65.0.2 mod apk [unlimited lives] \xe2\x80\x93 android games - https://t.co/6ib2n3pomv #android https://t.co/epjxjxiifo'
p2
sS'Created At'
p3
S'2015-11-29 01:59:12'
p4
s.(dp0
S'Text'
p1
S"i'm earning #mplusrewards in https://t.co/jgwpomsgub for android. https://t.co/moqpmgiuwn @dictionarycom"
p2
sS'Created At'
p3
S'2015-11-29 01:59:12'
p4
s.(dp0
S'Text'
p1
S'#10billionwives \ni married23,881,411,431,081wives!\n\nios: https://t.co/3y4vgnvluw\nandroid: https://t.co/ljwqlmxjvh https://t.co/ajgjryufqk'
p2
sS'Created At'
p3
S'2015-11-29 01:59:12'
p4
s.(dp0
S'Text'
p1
S'#venezuela #cupocadivi #cadivi #sicad: smartphone android dual sim i9977 mtk6577, desbloqueado https://t.co/dcvnlqp6b9'
p2
sS'Created At'
p3
S'2015-11-29 01:59:14'
p4
s.(dp0
S'Text'
p1
S'cramphotoapp: rt iavenjqasdf1: i just crammed 1 photo and saved 4 mb with #cramapp. try free today: https://t.co/twl9wgfscq #android #ios \xe2\x80\xa6'
p2
sS'Created At'
p3
S'2015-11-29 01:59:14'
p4
s.(dp0
S'Text'
p1
S'samsung galaxy s5 sm-g900a - 16gb - charcoal black (at&amp;t) smartphone  $51.00 with 1m left https://t.co/rolynaswo7 #android'
p2
sS'Created At'
p3
S'2015-11-29 01:59:15'
p4
s.(dp0
S'Text'
p1
S'i\'ve just finished "travel arrangements"! i\'d love for you to come and get a gift from me! https://t.co/ktixkzrtr2 #android  #gameinsight'
p2
sS'Created At'
p3
S'2015-11-29 01:59:15'
p4
s.(dp0
S'Text'
p1
S'android app developers to provide more flexibility. https://t.co/xvhpsowtcq'
p2
sS'Created At'
p3
S'2015-11-29 01:59:16'
p4
s.(dp0
S'Text'
p1
S'6.0" unlocked dual core &amp; sim android 4.4 smartphone gsm gps 3g cell phone cam  $60.99 with 9m left https://t.co/xfeocqhfhl #android'
p2
sS'Created At'
p3
S'2015-11-29 01:59:16'
p4
s.(dp0
S'Text'
p1
S"@twitter @android what's good?"
p2
sS'Created At'
p3
S'2015-11-29 01:59:16'
p4
s.(dp0
S'Text'
p1
S'etymolearns: why you should hand your kid that smartphone https://t.co/e1oy7ouujb #edtech #android #ios https://t.co/cnv2usmmov ios games\xe2\x80\xa6'
p2
sS'Created At'
p3
S'2015-11-29 01:59:16'
p4
s.(dp0
S'Text'
p1
S'#top3apps for #dahsyatnyabikingemes\n\ntwitter for android 45%\ntwitter web client 28%\nmobile web (m2) 12%'
p2
sS'Created At'
p3
S'2015-11-29 01:59:17'
p4
s.(dp0
S'Text'
p1
S'cybermonday_fm : rt dealsplus: get a #blackfriday weekend #deal on your next #iphone or #a\xe2\x80\xa6 https://t.co/mckiyywdkq) https://t.co/lzyxduin5y'
p2
sS'Created At'
p3
S'2015-11-29 01:59:18'
p4
s.(dp0
S'Text'
p1
S'rt @engrossingfacts: google maps calculates traffic by tracking how fast android devices are moving on the road.'
p2
sS'Created At'
p3
S'2015-11-29 01:59:20'
p4
s.(dp0
S'Text'
p1
S'@_kadrick08 \xf0\x9f\x99\x84 this is true  https://t.co/uuwquopi8j'
p2
sS'Created At'
p3
S'2015-11-29 01:59:22'
p4
s.(dp0
S'Text'
p1
S'https://t.co/njwailmoda #6850 new lg google nexus 5 d820 unlocked gsm 4g lte 16gb/32gb 8mp android smartphone\n\n$17\xe2\x80\xa6 https://t.co/48s1wh9m2b'
p2
sS'Created At'
p3
S'2015-11-29 01:59:23'
p4
s.(dp0
S'Text'
p1
S'@alexdonovan85 luv4luv ukg vol.1 mixed by @djpyro android https://t.co/qy9o3higlw / iphone https://t.co/j5xbuxj02h https://t.co/0jofl0g46d'
p2
sS'Created At'
p3
S'2015-11-29 01:59:25'
p4
s.(dp0
S'Text'
p1
S'# impact of latest android devices and android versions on android application\xc2\xa0development https://t.co/uacgkti6el'
p2
sS'Created At'
p3
S'2015-11-29 01:59:27'
p4
s.(dp0
S'Text'
p1
S"i'm earning #mplusrewards in https://t.co/i72brm4xn0 for android. https://t.co/4hmsinun2t @dictionarycom"
p2
sS'Created At'
p3
S'2015-11-29 01:59:27'
p4
s.(dp0
S'Text'
p1
S'black smart watch phone mate u8 bluetooth for sony android samsung htc lg - bid now! only \xe2\x80\xa6 https://t.co/x3hn3tajqb https://t.co/xgvwxegenc'
p2
sS'Created At'
p3
S'2015-11-29 01:59:28'
p4
s.(dp0
S'Text'
p1
S'https://t.co/clgo78lq4v #3192 lg g3 android smartphone lg d850 32gb (gsm unlocked) black / white / blue (c)\n\n$154.\xe2\x80\xa6 https://t.co/mgd0mbau2h'
p2
sS'Created At'
p3
S'2015-11-29 01:59:28'
p4
s.(dp0
S'Text'
p1
S'https://t.co/d88vt81tng #5738 lg g2 d801 - 32gb - (gsm unlocked) android smartphone black / white (c)\n\n$99.99\nend \xe2\x80\xa6 https://t.co/rsdju3s4vw'
p2
sS'Created At'
p3
S'2015-11-29 01:59:28'
p4
s.(dp0
S'Text'
p1
S'6.0" unlocked dual core &amp; sim android 4.4 smartphone gsm gps 3g cell phone cam  $60.99 with 8m left https://t.co/xfeocqhfhl #android'
p2
sS'Created At'
p3
S'2015-11-29 01:59:29'
p4
s.(dp0
S'Text'
p1
S'lighting be all fucked up shit  https://t.co/ll0tyboa7w'
p2
sS'Created At'
p3
S'2015-11-29 01:59:30'
p4
s.(dp0
S'Text'
p1
S'https://t.co/clgo78lq4v #1162 lg g3 android smartphone lg d850 32gb (gsm unlocked) black / white / blue (c)\n\n$154.\xe2\x80\xa6 https://t.co/hrto38uhys'
p2
sS'Created At'
p3
S'2015-11-29 01:59:31'
p4
s.(dp0
S'Text'
p1
S'https://t.co/bzhhth3p6u #7905 lg optimus g pro e980 indigo black unlocked android 4.1 lte 32gb 13mp phone used\n\n$1\xe2\x80\xa6 https://t.co/zsji6cf1kf'
p2
sS'Created At'
p3
S'2015-11-29 01:59:31'
p4
s.(dp0
S'Text'
p1
S"rt @dory: why do android snapchats look like they're from the 1800's https://t.co/2xwu9jpti5"
p2
sS'Created At'
p3
S'2015-11-29 01:59:32'
p4
s.(dp0
S'Text'
p1
S"i'm now an e-list celebrity in kim kardashian: hollywood. you can be famous too by playing on android! https://t.co/zq0sqkvuk8"
p2
sS'Created At'
p3
S'2015-11-29 01:59:33'
p4
s.(dp0
S'Text'
p1
S'https://t.co/guv3w77dz3 #5444 new lg g2 d801 32gb black android brand t-mobile smartphone\n\n$186.00\nend date: satur\xe2\x80\xa6 https://t.co/hkm7gvnrlb'
p2
sS'Created At'
p3
S'2015-11-29 01:59:33'
p4
s.(dp0
S'Text'
p1
S'password to turn android off.: i have an app called sleep as android which is an alarm cl... https://t.co/zya49jygdz #reddit #androidapps'
p2
sS'Created At'
p3
S'2015-11-29 01:59:33'
p4
s.(dp0
S'Text'
p1
S'the 10 us cities most obsessed with thanksgiving https://t.co/isu7l9wdgy #apps #news #startups #howto #diy #android #howto #apps'
p2
sS'Created At'
p3
S'2015-11-29 01:59:36'
p4
s.(dp0
S'Text'
p1
S'i reached a new level: 4! help me save london from the horrors of the mirror world! https://t.co/rxxdpco22m #gameinsight #android'
p2
sS'Created At'
p3
S'2015-11-29 01:59:36'
p4
s.(dp0
S'Text'
p1
S'rt @octogamesstudio: new addictive game on #android -&gt; https://t.co/m0nj0hydqp\n"brother of flappy bird" #indiedev #indiegame #mobilegames h\xe2\x80\xa6'
p2
sS'Created At'
p3
S'2015-11-29 01:59:36'
p4
s.(dp0
S'Text'
p1
S"i'm earning #mplusrewards in the price is right\xe2\x84\xa2 slots - android. https://t.co/nkinwwic7u"
p2
sS'Created At'
p3
S'2015-11-29 01:59:37'
p4
s.(dp0
S'Text'
p1
S'rt @icasnetwork2015: https://t.co/ax1vqjuder android m coming soon - icas @icasnetwork2015'
p2
sS'Created At'
p3
S'2015-11-29 01:59:40'
p4
s.(dp0
S'Text'
p1
S'irulu tablet pc expro x1 7" android 4.4 quad core 8gb dual camera w/ keyboard #7482 https://t.co/by3hstqnst https://t.co/1iqilj8zpu'
p2
sS'Created At'
p3
S'2015-11-29 01:59:40'
p4
s.(dp0
S'Text'
p1
S"i'm earning #mplusrewards in https://t.co/jsdro2qdfz for android. https://t.co/cclnh6zqrm @dictionarycom"
p2
sS'Created At'
p3
S'2015-11-29 01:59:41'
p4
s.(dp0
S'Text'
p1
S'microsoft universal foldable keyboard for ipad, iphone, android devices, and windows tablets https://t.co/o4upnw6qsq'
p2
sS'Created At'
p3
S'2015-11-29 01:59:41'
p4
s.(dp0
S'Text'
p1
S'@smitlee123 luv4luv ukg vol.1 mixed by @djpyro android https://t.co/cbbmaquqkp / iphone https://t.co/enwlbs1qmu https://t.co/g3oyaqhkdd'
p2
sS'Created At'
p3
S'2015-11-29 01:59:42'
p4
s.(dp0
S'Text'
p1
S"i'm earning #mplusrewards in roll da dice android. https://t.co/q5tfbioq1t"
p2
sS'Created At'
p3
S'2015-11-29 01:59:43'
p4
s.(dp0
S'Text'
p1
S'black smart watch phone mate u8 bluetooth for sony android samsung htc lg - bid now! only \xe2\x80\xa6 https://t.co/egntgf83wh https://t.co/hug7cs9mzx'
p2
sS'Created At'
p3
S'2015-11-29 01:59:43'
p4
s.(dp0
S'Text'
p1
S'\xe2\x96\xba7 best android lock display screen applications and widgets - https://t.co/gvde8h6et3 https://t.co/ngixuqxlmy'
p2
sS'Created At'
p3
S'2015-11-29 01:59:45'
p4
s.(dp0
S'Text'
p1
S'#jav #creampie #blonde #naughty #ass #porn  #rt #sex #nsfw  #iphone #android \n\nsample: https://t.co/feb6szb6lq\n\n\xe2\x98\x86 https://t.co/gvzh5fpepk'
p2
sS'Created At'
p3
S'2015-11-29 01:59:45'
p4
s.(dp0
S'Text'
p1
S'rt @thugs4llfe: choose!\n\nrt for apple \nfav for android http://t.co/6lzpn2cgya'
p2
sS'Created At'
p3
S'2015-11-29 01:59:47'
p4
s.(dp0
S'Text'
p1
S'great deals #424 : https://t.co/z6w08abz0g u8 bluetooth smart wrist watch phone mate for android ios samsung iphon\xe2\x80\xa6 https://t.co/9cz0s4e8pb'
p2
sS'Created At'
p3
S'2015-11-29 01:59:48'
p4
s.(dp0
S'Text'
p1
S"i'm earning #mplusrewards in https://t.co/l29o8gwqyz for android. https://t.co/6xw8h2s3bk @dictionarycom"
p2
sS'Created At'
p3
S'2015-11-29 01:59:48'
p4
s.(dp0
S'Text'
p1
S'# impact of latest android devices and android versions on android application\xc2\xa0development https://t.co/o4o9agymzb'
p2
sS'Created At'
p3
S'2015-11-29 01:59:50'
p4
s.(dp0
S'Text'
p1
S'rt @unfccc: download now for free: #cop21 negotiator app for android https://t.co/uhqntqdbj2 and iphone https://t.co/0iodxykbfv https://t.c\xe2\x80\xa6'
p2
sS'Created At'
p3
S'2015-11-29 01:59:51'
p4
s.(dp0
S'Text'
p1
S'black smart watch phone mate u8 bluetooth for sony android samsung htc lg - bid now! only \xe2\x80\xa6 https://t.co/kltuhpo5mz https://t.co/a1mbooqezw'
p2
sS'Created At'
p3
S'2015-11-29 01:59:52'
p4
s.(dp0
S'Text'
p1
S"i'm earning #mplusrewards in flip da coin android. https://t.co/pxwhdmwqmb"
p2
sS'Created At'
p3
S'2015-11-29 01:59:55'
p4
s.(dp0
S'Text'
p1
S'nowplaying : wagon christ - boomer (bonus track)\n\ntune in https://t.co/opfsd3gfno\n #android app https://t.co/mfyw7heajd\n#peripouwebradio'
p2
sS'Created At'
p3
S'2015-11-29 01:59:56'
p4
s.(dp0
S'Text'
p1
S'@leka448 hi hope u pl1y that hooking android/ios/web\xe2\x84\xa2game https://t.co/dstgwjtv3d th!nks'
p2
sS'Created At'
p3
S'2015-11-29 01:59:56'
p4
s.(dp0
S'Text'
p1
S"i'm earning #mplusrewards in dragons: rise of berk android. https://t.co/uxm8ahlxt0"
p2
sS'Created At'
p3
S'2015-11-29 01:59:57'
p4
s.(dp0
S'Text'
p1
S'rt @thebasedxg0d: \xf0\x9f\x92\xaf who goes on kik ? android users? https://t.co/5aotvk1qmp'
p2
sS'Created At'
p3
S'2015-11-29 01:59:57'
p4
s.(dp0
S'Text'
p1
S'\xe2\x9d\xa4 [free] adult comic viewer (android)\xe2\x9d\xa4 app download \xe2\x96\xba https://t.co/t3jrdr9dk6   #hentai #ecchi #anime #porn838 https://t.co/nwddf0yunz'
p2
sS'Created At'
p3
S'2015-11-29 01:59:57'
p4
s.(dp0
S'Text'
p1
S'black smart watch phone mate u8 bluetooth for sony android samsung htc lg - bid now! only \xe2\x80\xa6 https://t.co/cscsws6c0e https://t.co/jsgbrzhyej'
p2
sS'Created At'
p3
S'2015-11-29 02:00:00'
p4
s.(dp0
S'Text'
p1
S'\xe2\x96\xba https://t.co/k5zument7z \xe2\x9d\xa4 [free] adult comic viewer (android)\xe2\x9d\xa4  #hentai #ecchi #anime #porn 327 https://t.co/bkhbopcjkg'
p2
sS'Created At'
p3
S'2015-11-29 02:00:00'
p4
s.(dp0
S'Text'
p1
S"rt @hardwarenewz: fossil's q founder android wear watch is out now https://t.co/wmwahdzo1h https://t.co/uvbab3t0jb"
p2
sS'Created At'
p3
S'2015-11-29 02:00:00'
p4
s.(dp0
S'Text'
p1
S'rt @octogamesstudio: new addictive game on #android -&gt; https://t.co/m0nj0hydqp\n"brother of flappy bird" #indiedev #indiegame #mobilegames h\xe2\x80\xa6'
p2
sS'Created At'
p3
S'2015-11-29 02:00:01'
p4
s.(dp0
S'Text'
p1
S"i'm earning #mplusrewards in family feud 2 android. https://t.co/fmfqexlbuj"
p2
sS'Created At'
p3
S'2015-11-29 02:00:01'
p4
s.(dp0
S'Text'
p1
S'#apps #ios #android aperion origins https://t.co/dyxrduqvtt'
p2
sS'Created At'
p3
S'2015-11-29 02:00:02'
p4
s.(dp0
S'Text'
p1
S'nursery rhymes songs 22.10.7 apk  #androidapps #apkdownload\n https://t.co/lxbzyahm6p https://t.co/npl8gin5mx'
p2
sS'Created At'
p3
S'2015-11-29 02:00:02'
p4
s.(dp0
S'Text'
p1
S'#oneclickroot: how-to safely #root #samsung gt-s7390 (build: jzo54k\xe2\x80\xa4s7390xxuamj3) running #android 4.1.2 https://t.co/fkxkp9ykui'
p2
sS'Created At'
p3
S'2015-11-29 02:00:03'
p4
s.(dp0
S'Text'
p1
S'rt @octogamesstudio: new addictive game on #android -&gt; https://t.co/m0nj0hydqp\n"brother of flappy bird" #indiedev #indiegame #mobilegames h\xe2\x80\xa6'
p2
sS'Created At'
p3
S'2015-11-29 02:00:03'
p4
s.(dp0
S'Text'
p1
S'cookie breaker!!!\nios: https://t.co/i6dtoqztqt\nandroid: https://t.co/uvyesk8xgw'
p2
sS'Created At'
p3
S'2015-11-29 02:00:03'
p4
s.(dp0
S'Text'
p1
S'#oneclickroot: how-to safely #root #samsung gt-i9082 (build: jdq39\xe2\x80\xa4i9082xxubmi1) running #android 4.2.2 https://t.co/vs4xef35n5'
p2
sS'Created At'
p3
S'2015-11-29 02:00:03'
p4
s.(dp0
S'Text'
p1
S'computer shop #1091 &gt; https://t.co/snfonx0qmv 9" inch google android 4.4 kitkat quad core tablet pc a33 8gb dual c\xe2\x80\xa6 https://t.co/xcj9sbnbku'
p2
sS'Created At'
p3
S'2015-11-29 02:00:03'
p4
s.(dp0
S'Text'
p1
S'#windows #phone internals opens custom rom world lumia phones https://t.co/aunlxu2fcf'
p2
sS'Created At'
p3
S'2015-11-29 02:00:03'
p4
s.(dp0
S'Text'
p1
S'#oneclickroot: how-to safely #root #quanta qtaqz3 running #android 4.4.2 https://t.co/qgvf5oyxvc'
p2
sS'Created At'
p3
S'2015-11-29 02:00:04'
p4
s.(dp0
S'Text'
p1
S'@ardayaman88 hello, you have played the poketrivia? it is a new game for android. download it, free here: https://t.co/kt6louzz0n'
p2
sS'Created At'
p3
S'2015-11-29 02:00:03'
p4
s.(dp0
S'Text'
p1
S"rt @birthdaysuit_: but this only applies to ppl who don't pay they bill lol..... https://t.co/plrsnqiynn"
p2
sS'Created At'
p3
S'2015-11-29 02:00:04'
p4
s.(dp0
S'Text'
p1
S'archivo: elephone vowney, un smartphone con android y windows 10 mobile elephone es un fa https://t.co/7nm2vjc35n https://t.co/dvm5dbsds7'
p2
sS'Created At'
p3
S'2015-11-29 02:00:05'
p4
s.(dp0
S'Text'
p1
S'help the smurfs build a village to call home! play on ios and android. @beelinegames #smurfsvillage https://t.co/pztoykgrxo'
p2
sS'Created At'
p3
S'2015-11-29 02:00:06'
p4
s.(dp0
S'Text'
p1
S'computer shop #1091 &gt; https://t.co/tm4b3iodlj irulu 10.1" android 5.1 tablet pc 8gb quad core bluetooth 10 inch w/\xe2\x80\xa6 https://t.co/iirqeimzg3'
p2
sS'Created At'
p3
S'2015-11-29 02:00:07'
p4
s.(dp0
S'Text'
p1
S'archivo: elephone vowney, un smartphone con android y windows 10 mobile elephone es un fa https://t.co/khwgzmc7rh https://t.co/vwwtoliq8m'
p2
sS'Created At'
p3
S'2015-11-29 02:00:07'
p4
s.(dp0
S'Text'
p1
S'how to transfer your contacts, messages, calendar entries, and app data from iphone to android https://t.co/b5rmcetiyx #android'
p2
sS'Created At'
p3
S'2015-11-29 02:00:08'
p4
s.(dp0
S'Text'
p1
S'archivo: elephone vowney, un smartphone con android y windows 10 mobile elephone es un fa https://t.co/ou5818xjpp https://t.co/vs1qk3bdzu'
p2
sS'Created At'
p3
S'2015-11-29 02:00:08'
p4
s.(dp0
S'Text'
p1
S'so i was focused exclusively on information from the media and technical publications. in other words, #android'
p2
sS'Created At'
p3
S'2015-11-29 02:00:11'
p4
s.(dp0
S'Text'
p1
S'rt @sparkyuina: [tutorial] how to vote kyuhyun &amp; super junior on seoul music awards \nandroid app: https://t.co/xtzovhdygj https://t.co/jagl\xe2\x80\xa6'
p2
sS'Created At'
p3
S'2015-11-29 02:00:12'
p4
s.(dp0
S'Text'
p1
S"i'm earning #mplusrewards in cut da deck android. https://t.co/x3hdhapmpb"
p2
sS'Created At'
p3
S'2015-11-29 02:00:13'
p4
s.(dp0
S'Text'
p1
S'rt @icasnetwork2015: https://t.co/ax1vqjuder android m coming soon - icas @icasnetwork2015'
p2
sS'Created At'
p3
S'2015-11-29 02:00:13'
p4
s.(dp0
S'Text'
p1
S'@daisukiphan i have an android it might not be for iphones i am not sure'
p2
sS'Created At'
p3
S'2015-11-29 02:00:13'
p4
s.(dp0
S'Text'
p1
S'# impact of latest android devices and android versions on android application\xc2\xa0development https://t.co/zdaetxlinf'
p2
sS'Created At'
p3
S'2015-11-29 02:00:13'
p4
s.(dp0
S'Text'
p1
S'rt @octogamesstudio: new addictive game on #android -&gt; https://t.co/m0nj0hydqp\n"brother of flappy bird" #indiedev #indiegame #mobilegames h\xe2\x80\xa6'
p2
sS'Created At'
p3
S'2015-11-29 02:00:15'
p4
s.(dp0
S'Text'
p1
S'hi im alex i make applications for the android platform amazon app store https://t.co/bimadlwlgn november 29, 2015 at 02:00am'
p2
sS'Created At'
p3
S'2015-11-29 02:00:17'
p4
s.(dp0
S'Text'
p1
S'@daisukiphan i use picsart and eraser, but i have an android so the apps are probably different if you have an iphone'
p2
sS'Created At'
p3
S'2015-11-29 02:00:18'
p4
s.(dp0
S'Text'
p1
S'ketchup leather is the ingenious solution to https://t.co/zm5qcsblyl #trending #trending #news #startups #howto #diy #android #howto #apps'
p2
sS'Created At'
p3
S'2015-11-29 02:00:19'
p4
s.(dp0
S'Text'
p1
S'cnpgd bluetooth smart wrist wrap watch phone for ios and android, black $11.97 (https://t.co/ilcs5whfij) #android #mobile #google'
p2
sS'Created At'
p3
S'2015-11-29 02:00:20'
p4
s.(dp0
S'Text'
p1
S'android news: "here are our samsung galaxy s6 and nexus 6p contest winners!" https://t.co/3w8jv3xqvi'
p2
sS'Created At'
p3
S'2015-11-29 02:00:21'
p4
s.(dp0
S'Text'
p1
S'rt @octogamesstudio: new addictive game on #android -&gt; https://t.co/m0nj0hydqp\n"brother of flappy bird" #indiedev #indiegame #mobilegames h\xe2\x80\xa6'
p2
sS'Created At'
p3
S'2015-11-29 02:00:21'
p4
s.(dp0
S'Text'
p1
S'mobiles : https://t.co/zk84mfsapp #4092 hot u8 bluetooth smart wrist watch phone mate for android ios samsung ipho\xe2\x80\xa6 https://t.co/cyo8h3wkps'
p2
sS'Created At'
p3
S'2015-11-29 02:00:22'
p4
s.(dp0
S'Text'
p1
S"rt @worldstarc0medy: why do android snapchats look like they're from the 1800's https://t.co/6piabkvgcr"
p2
sS'Created At'
p3
S'2015-11-29 02:00:22'
p4
s.(dp0
S'Text'
p1
S"rt @dory: why do android snapchats look like they're from the 1800's https://t.co/2xwu9jpti5"
p2
sS'Created At'
p3
S'2015-11-29 02:00:23'
p4
s.(dp0
S'Text'
p1
S'\xe2\x96\xba7 best android lock display screen applications and widgets - https://t.co/2kq2hy1zya https://t.co/78jcydih8i'
p2
sS'Created At'
p3
S'2015-11-29 02:00:24'
p4
s.(dp0
S'Text'
p1
S"rt @girlthatswellz: drop her rt @a_born_villain: when she got an android and you can't send her gifs like you wanna. \xf0\x9f\x98\x92"
p2
sS'Created At'
p3
S'2015-11-29 02:00:25'
p4
s.(dp0
S'Text'
p1
S'9" google android 4.4 #kitkat #tablet pc a33 quad core hd 8gb dual camera wi-fi $56.99 #ebay https://t.co/wsvtmpwhp5 https://t.co/vlcmldshci'
p2
sS'Created At'
p3
S'2015-11-29 02:00:25'
p4
s.(dp0
S'Text'
p1
S'10.1inch 8gb android 4.1 tablet headrest system ... https://t.co/uxpxl4ptlv'
p2
sS'Created At'
p3
S'2015-11-29 02:00:26'
p4
s.(dp0
S'Text'
p1
S"rt @turleymuller: apple's ios clenches 78.3% of u.s. mobile online shopping over thanksgiving, 360% more than android https://t.co/qgjie41e\xe2\x80\xa6"
p2
sS'Created At'
p3
S'2015-11-29 02:00:31'
p4
s.(dp0
S'Text'
p1
S'apps ios and android for "ghost-sky jazz" is available:\nios\nhttps://t.co/r4ktc8ntic\nandroid\nhttps://t.co/n3jl80k2gk \n.003'
p2
sS'Created At'
p3
S'2015-11-29 02:00:34'
p4
s.(dp0
S'Text'
p1
S"rt @birthdaysuit_: but this only applies to ppl who don't pay they bill lol..... https://t.co/plrsnqiynn"
p2
sS'Created At'
p3
S'2015-11-29 02:00:34'
p4
s.(dp0
S'Text'
p1
S'rt @trendinaliapi: #top3apps for #aldubnationloveseb\n\ntwitter for android 58%\ntwitter for iphone 32%\ntwitter for ipad 5%'
p2
sS'Created At'
p3
S'2015-11-29 02:00:35'
p4
s.(dp0
S'Text'
p1
S"i'm earning #mplusrewards in light da fuse android. https://t.co/fbhobll42j"
p2
sS'Created At'
p3
S'2015-11-29 02:00:37'
p4
s.(dp0
S'Text'
p1
S'smart android 4.4 tv box quad core 2g+16g xbmc wifi bluetooth media player m8tg https://t.co/0py2b1fgiu https://t.co/wymujlhkpg'
p2
sS'Created At'
p3
S'2015-11-29 02:00:36'
p4
s.(dp0
S'Text'
p1
S'# impact of latest android devices and android versions on android application\xc2\xa0development https://t.co/hop6aijqgh'
p2
sS'Created At'
p3
S'2015-11-29 02:00:37'
p4
s.(dp0
S'Text'
p1
S"i'm earning #mplusrewards in flip da coin android. https://t.co/dhpyj6wuwg"
p2
sS'Created At'
p3
S'2015-11-29 02:00:39'
p4
s.(dp0
S'Text'
p1
S'the vast majority of expiration dates are bogus \xe2\x80\x94 her https://t.co/ytgd9a8imo #trending #news #startups #howto #diy #android #howto #apps'
p2
sS'Created At'
p3
S'2015-11-29 02:00:39'
p4
s.(dp0
S'Text'
p1
S'how to install android 4.4.2 in kitkat on samsung galaxy note 2 click here https://t.co/g8wl9tikjf'
p2
sS'Created At'
p3
S'2015-11-29 02:00:41'
p4
s.(dp0
S'Text'
p1
S'rt @terpilowskigreg: i reached a new level: 4! help me save london from the horrors of the mirror world! https://t.co/rxxdpco22m #gameinsig\xe2\x80\xa6'
p2
sS'Created At'
p3
S'2015-11-29 02:00:41'
p4
s.(dp0
S'Text'
p1
S"i'm earning #mplusrewards in eat da cheese android. https://t.co/aubba790m2"
p2
sS'Created At'
p3
S'2015-11-29 02:00:42'
p4
s.(dp0
S'Text'
p1
S'\xe2\x96\xba7 best android lock display screen applications and widgets - https://t.co/pjz8nh6gy9 https://t.co/atsh7oyipr'
p2
sS'Created At'
p3
S'2015-11-29 02:00:43'
p4
s.(dp0
S'Text'
p1
S'here come the rose gold android phones:  https://t.co/f61iejzf0j'
p2
sS'Created At'
p3
S'2015-11-29 02:00:44'
p4
s.(dp0
S'Text'
p1
S'rt @icasnetwork2015: https://t.co/ax1vqjuder android m coming soon - icas @icasnetwork2015'
p2
sS'Created At'
p3
S'2015-11-29 02:00:45'
p4
s.(dp0
S'Text'
p1
S'android phones suck... that is all.. \xf0\x9f\x98\x92\xf0\x9f\x98\x92'
p2
sS'Created At'
p3
S'2015-11-29 02:00:46'
p4
s.(dp0
S'Text'
p1
S"i'm earning #mplusrewards in pga tour (android). https://t.co/5ieoilzjw3"
p2
sS'Created At'
p3
S'2015-11-29 02:00:47'
p4
s.(dp0
S'Text'
p1
S'a crazy landslide that ripped up a california road is puzzl https://t.co/cvtefmosed #apps #news #startups #howto #diy #android #howto #apps'
p2
sS'Created At'
p3
S'2015-11-29 02:00:48'
p4
s.(dp0
S'Text'
p1
S"i'm earning #mplusrewards in zap da bug android. https://t.co/aic8csplky"
p2
sS'Created At'
p3
S'2015-11-29 02:00:48'
p4
s.(dp0
S'Text'
p1
S"i'm earning #mplusrewards in flip da coin android. https://t.co/mvnrxhoekb"
p2
sS'Created At'
p3
S'2015-11-29 02:00:49'
p4
s.(dp0
S'Text'
p1
S"i'm earning #mplusrewards in https://t.co/zlnvlmkwmw for android. https://t.co/y27okpncz7 @dictionarycom"
p2
sS'Created At'
p3
S'2015-11-29 02:00:51'
p4
s.(dp0
S'Text'
p1
S'abandoned house android app is now available at https://t.co/xqd0fun7n1 repository. https://t.co/hcgmlzbv7n'
p2
sS'Created At'
p3
S'2015-11-29 02:00:51'
p4
s.(dp0
S'Text'
p1
S'\xe2\x96\xba7 best android lock display screen applications and widgets - https://t.co/ofhpg9ntcz https://t.co/gidab4em6y'
p2
sS'Created At'
p3
S'2015-11-29 02:00:52'
p4
s.(dp0
S'Text'
p1
S"rt @woridstarhiph0p: why do android snapchats look like they're from the 1800's https://t.co/eu3u01uecp"
p2
sS'Created At'
p3
S'2015-11-29 02:00:53'
p4
s.(dp0
S'Text'
p1
S'apple is an absolute joke of a company. team windows and android. so much better in every single way.'
p2
sS'Created At'
p3
S'2015-11-29 02:00:53'
p4
s.(dp0
S'Text'
p1
S'10.1inch 8gb android 4.1 tablet headrest system ...  https://t.co/pkadbikmls'
p2
sS'Created At'
p3
S'2015-11-29 02:00:54'
p4
s.(dp0
S'Text'
p1
S'this android make me sick'
p2
sS'Created At'
p3
S'2015-11-29 02:00:55'
p4
s.(dp0
S'Text'
p1
S"rt @android: take a walk down memory lane and explore all of #android's tasty treats. http://t.co/udxhmrfyz0 http://t.co/ulbk2e1jlx"
p2
sS'Created At'
p3
S'2015-11-29 02:00:56'
p4
s.(dp0
S'Text'
p1
S"i've reached level 2 in maritime kingdom! drop your anchor: we have presents for every guest! https://t.co/bxruo6g3a7 #android #gameinsight"
p2
sS'Created At'
p3
S'2015-11-29 02:00:56'
p4
s.(dp0
S'Text'
p1
S'download download accelerator plus    by rubycell\xc2\xa0apk https://t.co/qzeymu4gya'
p2
sS'Created At'
p3
S'2015-11-29 02:00:57'
p4
s.(dp0
S'Text'
p1
S'top windows mobile news of the week: nokia android leak, lumias half off, cortana ios beta | zdnet https://t.co/3a88t0ebmv'
p2
sS'Created At'
p3
S'2015-11-29 02:00:57'
p4
s.(dp0
S'Text'
p1
S'black smart watch phone mate u8 bluetooth for sony android samsung htc lg - bid now! only \xe2\x80\xa6 https://t.co/ilwxv71d2x https://t.co/ez5ojd8ez4'
p2
sS'Created At'
p3
S'2015-11-29 02:00:57'
p4
s.(dp0
S'Text'
p1
S'apps android is out! https://t.co/vivlr4fvik'
p2
sS'Created At'
p3
S'2015-11-29 02:00:58'
p4
s.(dp0
S'Text'
p1
S'#native android developer - jira/agile (4-12 yrs) pune (online/mobile/web) (pune, mh) #jobs #500k #pune: #we h... https://t.co/xpobmv9xel'
p2
sS'Created At'
p3
S'2015-11-29 02:00:59'
p4
s.(dp0
S'Text'
p1
S'rt appstoregames06: rt gravityinfosoft: #games #android #mobilegame #casualgames #strategygames \n\xe2\x80\xa6 https://t.co/e5tcjzc5v8'
p2
sS'Created At'
p3
S'2015-11-29 02:00:59'
p4
s.(dp0
S'Text'
p1
S"rt @freakboyinc: just download the  @datpiff's android app for the latest mixtapes https://t.co/ucxsmwz9qu https://t.co/mqbqvzfeic"
p2
sS'Created At'
p3
S'2015-11-29 02:00:59'
p4
s.(dp0
S'Text'
p1
S'instagram starts rolling out multiple account support on android https://t.co/onr3joigzu'
p2
sS'Created At'
p3
S'2015-11-29 02:01:00'
p4
s.(dp0
S'Text'
p1
S"i'm earning #mplusrewards in spin da slots android. https://t.co/te6np4nnoa"
p2
sS'Created At'
p3
S'2015-11-29 02:01:00'
p4
s.(dp0
S'Text'
p1
S'# impact of latest android devices and android versions on android application\xc2\xa0development https://t.co/lxob4xe726'
p2
sS'Created At'
p3
S'2015-11-29 02:01:01'
p4
s.(dp0
S'Text'
p1
S'\xe2\x96\xba7 best android lock display screen applications and widgets - https://t.co/9snphxhczw https://t.co/kxgpupuc6p'
p2
sS'Created At'
p3
S'2015-11-29 02:01:01'
p4
s.(dp0
S'Text'
p1
S'#nowplaying p.r , shiro sky - p.r , shiro sky - 07. season days [bonus track] #link6 ios &amp; android app , visit to https://t.co/fomtgzgtxy'
p2
sS'Created At'
p3
S'2015-11-29 02:01:02'
p4
s.(dp0
S'Text'
p1
S'how did you get those who is running a virtual android device with genymotion'
p2
sS'Created At'
p3
S'2015-11-29 02:01:03'
p4
s.(dp0
S'Text'
p1
S'rt androidgames06: rt androidgames06: rt sirfeveck: #indiegamedev #gameart #lighiting #render #gamedesign #mobileg\xe2\x80\xa6 https://t.co/cmpxcze8bl'
p2
sS'Created At'
p3
S'2015-11-29 02:01:04'
p4
s.(dp0
S'Text'
p1
S"i'm earning #mplusrewards in roll da dice android. https://t.co/htxchoqq41"
p2
sS'Created At'
p3
S'2015-11-29 02:01:04'
p4
s.(dp0
S'Text'
p1
S'rt octogamesstudio: new addictive game on #android -&gt; https://t.co/e0y0e127h8\n"brother of flappy bird" #indiedev \xe2\x80\xa6 https://t.co/5zuhyxp8nq'
p2
sS'Created At'
p3
S'2015-11-29 02:01:07'
p4
s.(dp0
S'Text'
p1
S'exclusive pink smartphones https://t.co/lg6ajvucbe #tech https://t.co/pawvv3xyfo'
p2
sS'Created At'
p3
S'2015-11-29 02:01:07'
p4
s.(dp0
S'Text'
p1
S'jobspring is hiring! #lead #android engineer in #culvercity, apply now! #jobs https://t.co/kzwwatw4ja https://t.co/vcoxgdjdej'
p2
sS'Created At'
p3
S'2015-11-29 02:01:08'
p4
s.(dp0
S'Text'
p1
S'you can start creating native iphone and android applications right away.  https://t.co/uqbeumsaeo'
p2
sS'Created At'
p3
S'2015-11-29 02:01:09'
p4
s.(dp0
S'Text'
p1
S"i'm earning #mplusrewards in flip da coin android. https://t.co/unxk9zgv4v"
p2
sS'Created At'
p3
S'2015-11-29 02:01:10'
p4
s.(dp0
S'Text'
p1
S"i'm earning #mplusrewards in family feud 2 android. https://t.co/mh84bmbsb2"
p2
sS'Created At'
p3
S'2015-11-29 02:01:11'
p4
s.(dp0
S'Text'
p1
S'rt androidgames06: rt androidgames06: rt sirfeveck: #indiegamedev #gameart #lighiting #render #gamedesign #mobileg\xe2\x80\xa6 https://t.co/yme6lg02aq'
p2
sS'Created At'
p3
S'2015-11-29 02:01:12'
p4
s.(dp0
S'Text'
p1
S'@triple3seven_ luv4luv ukg vol.1 mixed by @djpyro android https://t.co/i5cbekvunn / iphone https://t.co/a7icrxerfx https://t.co/ggxit8ktcg'
p2
sS'Created At'
p3
S'2015-11-29 02:01:14'
p4
s.(dp0
S'Text'
p1
S"@twitter @android what the hell is up with y'all ? seriously!?!?!? get it together and stop preventing me from view mentions and dm. stop!"
p2
sS'Created At'
p3
S'2015-11-29 02:01:16'
p4
s.(dp0
S'Text'
p1
S'#android kids zoo animal sounds'
p2
sS'Created At'
p3
S'2015-11-29 02:01:16'
p4
s.(dp0
S'Text'
p1
S'rt @octogamesstudio: new addictive game on #android -&gt; https://t.co/m0nj0hydqp\n"brother of flappy bird" #indiedev #indiegame #mobilegames h\xe2\x80\xa6'
p2
sS'Created At'
p3
S'2015-11-29 02:01:16'
p4
s.(dp0
S'Text'
p1
S'rt @radioperipou: nowplaying : 40 winks - city dweller\n\ntune in https://t.co/opfsd3gfno\n #android app https://t.co/mfyw7heajd\n#peripouwebra\xe2\x80\xa6'
p2
sS'Created At'
p3
S'2015-11-29 02:01:17'
p4
s.(dp0
S'Text'
p1
S'rt @_illmindofcam_: "android is so much better than apple"\nme: https://t.co/0tkzshhmk8'
p2
sS'Created At'
p3
S'2015-11-29 02:01:17'
p4
s.(dp0
S'Text'
p1
S'@bossastudios where is i am bread for android'
p2
sS'Created At'
p3
S'2015-11-29 02:01:18'
p4
s.(dp0
S'Text'
p1
S'rt @icasnetwork2015: https://t.co/ax1vqjuder android m coming soon - icas @icasnetwork2015'
p2
sS'Created At'
p3
S'2015-11-29 02:01:18'
p4
s.(dp0
S'Text'
p1
S'\xe2\x96\xba7 best android lock display screen applications and widgets - https://t.co/dqbmtiqtul https://t.co/rqicsultdb'
p2
sS'Created At'
p3
S'2015-11-29 02:01:19'
p4
s.(dp0
S'Text'
p1
S"i'm earning #mplusrewards in cut da deck android. https://t.co/w4tlzrjzqx"
p2
sS'Created At'
p3
S'2015-11-29 02:01:19'
p4
s.(dp0
S'Text'
p1
S'twp nugget 066: astral projecting to pluto #itunes: https://t.co/dma5ymj9ag #android: https://t.co/zabhecj1zz @theweedsmen420 #weed #humor'
p2
sS'Created At'
p3
S'2015-11-29 02:01:22'
p4
s.(dp0
S'Text'
p1
S'twp nugget 066: astral projecting to pluto #itunes: https://t.co/8t1sdtukyc #android: https://t.co/p2k0xl7zzp @theweedsmen420 #weed #humor'
p2
sS'Created At'
p3
S'2015-11-29 02:01:22'
p4
s.(dp0
S'Text'
p1
S'rt @immuneapps: the 10 us cities most obsessed with thanksgiving https://t.co/isu7l9wdgy #apps #news #startups #howto #diy #android #howto \xe2\x80\xa6'
p2
sS'Created At'
p3
S'2015-11-29 02:01:22'
p4
s.(dp0
S'Text'
p1
S"i've reached level 3 in maritime kingdom! drop your anchor: we have presents for every guest! https://t.co/bxruo6g3a7 #android #gameinsight"
p2
sS'Created At'
p3
S'2015-11-29 02:01:23'
p4
s.(dp0
S'Text'
p1
S'gs6 active compatibility with gear vr https://t.co/zypydd7jqx #android'
p2
sS'Created At'
p3
S'2015-11-29 02:01:23'
p4
s.(dp0
S'Text'
p1
S'calendar has duplicate accounts, how do i get rid of them? https://t.co/j8yr0ly7ps #android'
p2
sS'Created At'
p3
S'2015-11-29 02:01:24'
p4
s.(dp0
S'Text'
p1
S'rt @octogamesstudio: new addictive game on #android -&gt; https://t.co/m0nj0hydqp\n"brother of flappy bird" #indiedev #indiegame #mobilegames h\xe2\x80\xa6'
p2
sS'Created At'
p3
S'2015-11-29 02:01:24'
p4
s.(dp0
S'Text'
p1
S'anyone returning their priv yet? https://t.co/ipcjykeuvu #android'
p2
sS'Created At'
p3
S'2015-11-29 02:01:24'
p4
s.(dp0
S'Text'
p1
S'# impact of latest android devices and android versions on android application\xc2\xa0development https://t.co/4mh0qyan3w'
p2
sS'Created At'
p3
S'2015-11-29 02:01:24'
p4
s.(dp0
S'Text'
p1
S'oneplus x lte in chicago https://t.co/j5clt1tyix #android'
p2
sS'Created At'
p3
S'2015-11-29 02:01:25'
p4
s.(dp0
S'Text'
p1
S'how do i transfer text messages between windows mobile to android mobiles? https://t.co/wpcrgeam9n #android'
p2
sS'Created At'
p3
S'2015-11-29 02:01:25'
p4
s.(dp0
S'Text'
p1
S'no voice and data at the same time? https://t.co/dzncfbdoip #android'
p2
sS'Created At'
p3
S'2015-11-29 02:01:25'
p4
s.(dp0
S'Text'
p1
S"#oferta yuntab q88 tablet de 7'' (wifi, quad-core, android 4.4.2 kitkat , hd 1024*600, 32 gb, 8gb rom, doble ... - https://t.co/g8donhkcas"
p2
sS'Created At'
p3
S'2015-11-29 02:01:26'
p4
s.(dp0
S'Text'
p1
S"i'm now a c-list celebrity in kim kardashian: hollywood. you can be famous too by playing on android! https://t.co/cklzfzeowj"
p2
sS'Created At'
p3
S'2015-11-29 02:01:26'
p4
s.(dp0
S'Text'
p1
S"i have completed the 'explore the scene fortune teller in freeze mode' quest! https://t.co/xzud4eprlw"
p2
sS'Created At'
p3
S'2015-11-29 02:01:28'
p4
s.(dp0
S'Text'
p1
S'rt appstoregames06: rt gravityinfosoft: #games #android #mobilegame #casualgames #strategygames \n\xe2\x80\xa6 https://t.co/e3nkc3bgcb'
p2
sS'Created At'
p3
S'2015-11-29 02:01:29'
p4
s.(dp0
S'Text'
p1
S"i'm earning #mplusrewards in eat da cheese android. https://t.co/0rgdakrk3m"
p2
sS'Created At'
p3
S'2015-11-29 02:01:30'
p4
s.(dp0
S'Text'
p1
S'best deals : https://t.co/aopxaktfm9 looxcie lx2 wearable bluetooth video cam can also be used with any android os\xe2\x80\xa6 https://t.co/azivq6nqxv'
p2
sS'Created At'
p3
S'2015-11-29 02:01:31'
p4
s.(dp0
S'Text'
p1
S'kitchen images: #dev tool android image kitchen\n\nandroid image kitchen -- unpack/repack kernel+recove... https://t.co/lqumdhfc0z #kitchen'
p2
sS'Created At'
p3
S'2015-11-29 02:01:33'
p4
s.(dp0
S'Text'
p1
S"i'm earning #mplusrewards in https://t.co/c20zccou06 for android. https://t.co/sjhclsb9gp @dictionarycom"
p2
sS'Created At'
p3
S'2015-11-29 02:01:34'
p4
s.(dp0
S'Text'
p1
S'kitchen images: #dev tool android image kitchen\n\nandroid image kitchen -- unpack/repack kernel+recove... https://t.co/nftx1dco6a #kitchen'
p2
sS'Created At'
p3
S'2015-11-29 02:01:35'
p4
s.(dp0
S'Text'
p1
S'#cellular #deals https://t.co/8mba651m7j 4.5" for at&amp;t straight talk t-mobile dual core android smart cell phone u\xe2\x80\xa6 https://t.co/grqvqvnlxw'
p2
sS'Created At'
p3
S'2015-11-29 02:01:36'
p4
s.(dp0
S'Text'
p1
S"rt @woridstarhiph0p: why do android snapchats look like they're from the 1800's https://t.co/eu3u01uecp"
p2
sS'Created At'
p3
S'2015-11-29 02:01:36'
p4
s.(dp0
S'Text'
p1
S"i'm earning #mplusrewards in tap da cookie android. https://t.co/diemfgll8e"
p2
sS'Created At'
p3
S'2015-11-29 02:01:36'
p4
s.(dp0
S'Text'
p1
S'#cellular #deals https://t.co/j9tfjp6u4s samsung i605 galaxy note 2 16gb verizon wireless 4g lte android wifi smar\xe2\x80\xa6 https://t.co/jcfvbignpn'
p2
sS'Created At'
p3
S'2015-11-29 02:01:36'
p4
s.(dp0
S'Text'
p1
S'kitchen images: #dev tool android image kitchen\n\nandroid image kitchen -- unpack/repack kernel+recove... https://t.co/5hdqc9y5uw #kitchen'
p2
sS'Created At'
p3
S'2015-11-29 02:01:38'
p4
s.(dp0
S'Text'
p1
S'rt @octogamesstudio: new addictive game on #android -&gt; https://t.co/m0nj0hydqp\n"brother of flappy bird" #indiedev #indiegame #mobilegames h\xe2\x80\xa6'
p2
sS'Created At'
p3
S'2015-11-29 02:01:41'
p4
s.(dp0
S'Text'
p1
S'sometimes i get tired of scrolling past my nudes because of the android quality lmao'
p2
sS'Created At'
p3
S'2015-11-29 02:01:41'
p4
s.(dp0
S'Text'
p1
S'fallout 4 https://t.co/fywidpmv4z'
p2
sS'Created At'
p3
S'2015-11-29 02:01:42'
p4
s.(dp0
S'Text'
p1
S'\xe2\x96\xba7 best android lock display screen applications and widgets - https://t.co/mku28xq7u0 https://t.co/5tpr9urqtl'
p2
sS'Created At'
p3
S'2015-11-29 02:01:43'
p4
s.(dp0
S'Text'
p1
S'free on #googleplay\nhttps://t.co/uolqm9b12l\n#mobilegames #indiedev #games #gamersunite @gamerrter #android #xmas https://t.co/nrbazjchme'
p2
sS'Created At'
p3
S'2015-11-29 02:01:43'
p4
s.(dp0
S'Text'
p1
S'rt @_illmindofcam_: "android is so much better than apple"\nme: https://t.co/0tkzshhmk8'
p2
sS'Created At'
p3
S'2015-11-29 02:01:44'
p4
s.(dp0
S'Text'
p1
S"i'm earning #mplusrewards in flip da coin android. https://t.co/jwpqwg4dez"
p2
sS'Created At'
p3
S'2015-11-29 02:01:45'
p4
s.(dp0
S'Text'
p1
S'difficulty entering mileage using android fitbit a\xe2\x80\xa6 https://t.co/mzgy1anj8a #android'
p2
sS'Created At'
p3
S'2015-11-29 02:01:45'
p4
s.(dp0
S'Text'
p1
S'#10billionwives \ni married620,245wives!\n\nios: https://t.co/utvkw8sw44\nandroid: https://t.co/fhn1kifn8u https://t.co/n2sir0ts9g'
p2
sS'Created At'
p3
S'2015-11-29 02:01:48'
p4
s.(dp0
S'Text'
p1
S'rt @icasnetwork2015: https://t.co/ax1vqjuder android m coming soon - icas @icasnetwork2015'
p2
sS'Created At'
p3
S'2015-11-29 02:01:50'
p4
s.(dp0
S'Text'
p1
S'# impact of latest android devices and android versions on android application\xc2\xa0development https://t.co/lznnq1nvwd'
p2
sS'Created At'
p3
S'2015-11-29 02:01:51'
p4
s.(dp0
S'Text'
p1
S"i'm earning #mplusrewards in eat da cheese android. https://t.co/9eyorr6nwz"
p2
sS'Created At'
p3
S'2015-11-29 02:01:52'
p4
s.(dp0
S'Text'
p1
S'@tgjardim hello hope u enjoy this funny android/ios/web\xe2\x9d\xa4xame https://t.co/o3n1bqhe6u tyi'
p2
sS'Created At'
p3
S'2015-11-29 02:01:53'
p4
s.(dp0
S'Text'
p1
S"i'm earning #mplusrewards in tap da cookie android. https://t.co/wwe22luk9e"
p2
sS'Created At'
p3
S'2015-11-29 02:01:53'
p4
s.(dp0
S'Text'
p1
S'3ds emulator for pc, android and mac https://t.co/zvdrxxocrv via'
p2
sS'Created At'
p3
S'2015-11-29 02:01:54'
p4
s.(dp0
S'Text'
p1
S'i am sharing a special application for rooted android devices https://t.co/q23cazdzah'
p2
sS'Created At'
p3
S'2015-11-29 02:01:55'
p4
s.(dp0
S'Text'
p1
S"humans are just starting to understand the octopus, and it' https://t.co/qoxgtcokwm #apps #news #startups #howto #diy #android #howto #apps"
p2
sS'Created At'
p3
S'2015-11-29 02:01:55'
p4
s.(dp0
S'Text'
p1
S"rt @dory: why do android snapchats look like they're from the 1800's https://t.co/2xwu9jpti5"
p2
sS'Created At'
p3
S'2015-11-29 02:01:56'
p4
s.(dp0
S'Text'
p1
S'iphone  https://t.co/pcjbvpq2bu'
p2
sS'Created At'
p3
S'2015-11-29 02:01:58'
p4
s.(dp0
S'Text'
p1
S'rt @_illmindofcam_: "android is so much better than apple"\nme: https://t.co/0tkzshhmk8'
p2
sS'Created At'
p3
S'2015-11-29 02:01:58'
p4
s.(dp0
S'Text'
p1
S'rt @appstoregames06: rt androidgames06: rt sirfeveck: #indiegamedev #gameart #lighiting #render #gamedesign #mobilegames https://t.co/v7mbo\xe2\x80\xa6'
p2
sS'Created At'
p3
S'2015-11-29 02:02:01'
p4
s.(dp0
S'Text'
p1
S'#oneclickroot: how-to safely #root #huawei u8655-1 running #android 2.3.6 https://t.co/eaamunar6n'
p2
sS'Created At'
p3
S'2015-11-29 02:02:01'
p4
s.(dp0
S'Text'
p1
S'apply now to work for volt as #senior #android developer in #paloalto #jobs https://t.co/dh5zfyyqo9'
p2
sS'Created At'
p3
S'2015-11-29 02:02:01'
p4
s.(dp0
S'Text'
p1
S'#oneclickroot: how-to safely #root #vodafone 890n running #android 4.4.4 https://t.co/smebutwnrx'
p2
sS'Created At'
p3
S'2015-11-29 02:02:02'
p4
s.(dp0
S'Text'
p1
S'#oneclickroot: how-to safely #root #samsung samsung-sgh-i777 (build: gingerbread\xe2\x80\xa4uckk6) running #android 2.3.6 https://t.co/zomxqxzr58'
p2
sS'Created At'
p3
S'2015-11-29 02:02:02'
p4
s.(dp0
S'Text'
p1
S'rt @adpebaybot: 6.0" unlocked dual core &amp; sim android 4.4 smartphone gsm gps 3g cell phone cam  $60.99 with 8m left https://t.co/xfeocqhfhl\xe2\x80\xa6'
p2
sS'Created At'
p3
S'2015-11-29 02:02:02'
p4
s.(dp0
S'Text'
p1
S'curtindo waitin for you (feat. sirah) - demi lovato via letras android: https://t.co/nt5btsrxkm'
p2
sS'Created At'
p3
S'2015-11-29 02:02:02'
p4
s.(dp0
S'Text'
p1
S'mobile site creation and hosting https://t.co/nkqtgrsagk #mobile #android #hosting https://t.co/kbhnjuw1uv'
p2
sS'Created At'
p3
S'2015-11-29 02:02:03'
p4
s.(dp0
S'Text'
p1
S'#smartwatch good u8 #bluetooth smart wrist watch phone mate for #android&amp;ios #iphone samsung lg sony https://t.co/dx5rtwfyug #smartwatches'
p2
sS'Created At'
p3
S'2015-11-29 02:02:04'
p4
s.(dp0
S'Text'
p1
S'rt @tinatbh: no offense but android snapchats look like photographs from the american civil war'
p2
sS'Created At'
p3
S'2015-11-29 02:02:04'
p4
s.(dp0
S'Text'
p1
S'rt @beautiful_plcs: top ten games for android https://t.co/84ilahc7dq https://t.co/6cfheohw8f'
p2
sS'Created At'
p3
S'2015-11-29 02:02:05'
p4
s.(dp0
S'Text'
p1
S'#smartwatches new u8 #bluetooth smart wrist watch phone mate for #android&amp;ios\xe2\x80\xa6 https://t.co/bxxruqhfmh #smartwatch https://t.co/7c4oeudsc8'
p2
sS'Created At'
p3
S'2015-11-29 02:02:06'
p4
s.(dp0
S'Text'
p1
S'promote your android app - buy #android #app #installs and #reviews for #google #play #marketing \xe2\x80\xa2\xe2\x80\xa2\xe2\x96\xba https://t.co/mvkhdgfcxp'
p2
sS'Created At'
p3
S'2015-11-29 02:02:06'
p4
s.(dp0
S'Text'
p1
S'5m/2m android  endoscope waterproof borescope inspection video for samsung lg - https://t.co/9hulhb6eg2 https://t.co/5mkqrb2cwb'
p2
sS'Created At'
p3
S'2015-11-29 02:02:07'
p4
s.(dp0
S'Text'
p1
S"#oferta yuntab q88 tablet de 7'' (wifi, quad-core, android 4.4.2 kitkat , hd 1024*600, 32 gb, 8gb rom, doble ... - https://t.co/8d5dn5vbo0"
p2
sS'Created At'
p3
S'2015-11-29 02:02:08'
p4
s.(dp0
S'Text'
p1
S"i'm earning #mplusrewards in https://t.co/einr2q4eoh for android. https://t.co/i1m67crnwd @dictionarycom"
p2
sS'Created At'
p3
S'2015-11-29 02:02:09'
p4
s.(dp0
S'Text'
p1
S'\xe2\x96\xba7 best android lock display screen applications and widgets - https://t.co/i6umzlubcf https://t.co/o5vvucijv4'
p2
sS'Created At'
p3
S'2015-11-29 02:02:09'
p4
s.(dp0
S'Text'
p1
S'\xe2\x96\xba7 best android lock display screen applications and widgets - https://t.co/svvyi814rq https://t.co/ypnanis1ew'
p2
sS'Created At'
p3
S'2015-11-29 02:02:10'
p4
s.(dp0
S'Text'
p1
S'join the android: netrunner giveaway sponsored by @deck60online &amp; @boardgameprices via @bgamegiveaway #contestalert  https://t.co/hzsvc0iiu4'
p2
sS'Created At'
p3
S'2015-11-29 02:02:11'
p4
s.(dp0
S'Text'
p1
S"rt @dory: why do android snapchats look like they're from the 1800's https://t.co/2xwu9jpti5"
p2
sS'Created At'
p3
S'2015-11-29 02:02:13'
p4
s.(dp0
S'Text'
p1
S'rt @adrogdesigns: free on #googleplay\nhttps://t.co/uolqm9b12l\n#mobilegames #indiedev #games #gamersunite @gamerrter #android #xmas https://\xe2\x80\xa6'
p2
sS'Created At'
p3
S'2015-11-29 02:02:13'
p4
s.(dp0
S'Text'
p1
S'mobile site creation and hosting https://t.co/z267y9p8vy #mobile #android #hosting https://t.co/rjek6ljwsn https://t.co/hrngbw10ao'
p2
sS'Created At'
p3
S'2015-11-29 02:02:14'
p4
s.(dp0
S'Text'
p1
S'#top3apps for #ans\xc4\xb1z\xc4\xb1ngelse\n\ntwitter web client 59%\ntwitter for android 25%\ntwitter for iphone 9%'
p2
sS'Created At'
p3
S'2015-11-29 02:02:15'
p4
s.(dp0
S'Text'
p1
S'rt @_illmindofcam_: "android is so much better than apple"\nme: https://t.co/0tkzshhmk8'
p2
sS'Created At'
p3
S'2015-11-29 02:02:15'
p4
s.(dp0
S'Text'
p1
S'# impact of latest android devices and android versions on android application\xc2\xa0development https://t.co/yzxvkbuld1'
p2
sS'Created At'
p3
S'2015-11-29 02:02:15'
p4
s.(dp0
S'Text'
p1
S'black smart watch phone mate u8 bluetooth for sony android samsung htc lg - bid now! only \xe2\x80\xa6 https://t.co/4kzimuq4zt https://t.co/pwlikaglct'
p2
sS'Created At'
p3
S'2015-11-29 02:02:15'
p4
s.(dp0
S'Text'
p1
S"i'm sorry but i just can't watch android users snapchat , it annoys me so badly \xf0\x9f\x98\x82\xf0\x9f\x98\xad i literally tap through the entire thing"
p2
sS'Created At'
p3
S'2015-11-29 02:02:16'
p4
s.(dp0
S'Text'
p1
S'do not stress, just play\nget it: https://t.co/rqnoozrwlu\n#android #app #rt https://t.co/rrd0sshuif'
p2
sS'Created At'
p3
S'2015-11-29 02:02:20'
p4
s.(dp0
S'Text'
p1
S"i'm earning #mplusrewards in airliners android. https://t.co/ti63hbgfis"
p2
sS'Created At'
p3
S'2015-11-29 02:02:21'
p4
s.(dp0
S'Text'
p1
S'rt @appstoregames06: rt appstoregames06: rt sirfeveck: #indiegamedev #gameart #lighiting #render #gamedesign #mobilegames https://t.co/v7mb\xe2\x80\xa6'
p2
sS'Created At'
p3
S'2015-11-29 02:02:22'
p4
s.(dp0
S'Text'
p1
S'rt @icasnetwork2015: https://t.co/ax1vqjuder android m coming soon - icas @icasnetwork2015'
p2
sS'Created At'
p3
S'2015-11-29 02:02:23'
p4
s.(dp0
S'Text'
p1
S'#android here are our samsung galaxy s6 and nexus 6p contest winners! https://t.co/xzhksdlyg7'
p2
sS'Created At'
p3
S'2015-11-29 02:02:24'
p4
s.(dp0
S'Text'
p1
S'rt @imaginaytionn: iphone  https://t.co/pcjbvpq2bu'
p2
sS'Created At'
p3
S'2015-11-29 02:02:25'
p4
s.(dp0
S'Text'
p1
S"after adding a bunch of bloat to the free app, es file explorer's $3 'pro ... - android\xe2\x80\xa6 https://t.co/rfnwvnym8y"
p2
sS'Created At'
p3
S'2015-11-29 02:02:25'
p4
s.(dp0
S'Text'
p1
S'19 weird risks big companies disclose to https://t.co/uek6whdvu7 #uncategorized #trending #news #startups #howto #diy #android #howto #apps'
p2
sS'Created At'
p3
S'2015-11-29 02:02:25'
p4
s.(dp0
S'Text'
p1
S'muslim pro for iphone and android https://t.co/zq4hgowxam'
p2
sS'Created At'
p3
S'2015-11-29 02:02:25'
p4
s.(dp0
S'Text'
p1
S'i need your help on this level of #whatsthelogo! play on ios or android: https://t.co/owtlsiricc https://t.co/p1iklyf6se'
p2
sS'Created At'
p3
S'2015-11-29 02:02:27'
p4
s.(dp0
S'Text'
p1
S'\xe2\x8c\x82\xe2\x9d\x80 irulu babypad y1 7" quad core android 3g wifi tablet pc 1/8gb learning toy gift https://t.co/sztcypxavm https://t.co/ktrgtrqozv'
p2
sS'Created At'
p3
S'2015-11-29 02:02:27'
p4
s.(dp0
S'Text'
p1
S'3ds emulator for android released! https://t.co/r9hrpbgp6m via @'
p2
sS'Created At'
p3
S'2015-11-29 02:02:27'
p4
s.(dp0
S'Text'
p1
S'thanks to that fucking dumb ass over verizon now i can not log in to tweeter on my android,'
p2
sS'Created At'
p3
S'2015-11-29 02:02:27'
p4
s.(dp0
S'Text'
p1
S'{best guide} how to extend battery life of android device - 11+ proven tips https://t.co/htg1bzzkpw'
p2
sS'Created At'
p3
S'2015-11-29 02:02:28'
p4
s.(dp0
S'Text'
p1
S'mobile site creation and hosting https://t.co/blceh7asi8 #mobile #android #hosting https://t.co/zwcshdeebx https://t.co/yebq3lbdlt'
p2
sS'Created At'
p3
S'2015-11-29 02:02:32'
p4
s.(dp0
S'Text'
p1
S'i am sharing a special application for rooted android devices https://t.co/roppk6cztz'
p2
sS'Created At'
p3
S'2015-11-29 02:02:33'
p4
s.(dp0
S'Text'
p1
S'\xe2\x96\xba7 best android lock display screen applications and widgets - https://t.co/oo72a2u6xj https://t.co/4hgtu0eglm'
p2
sS'Created At'
p3
S'2015-11-29 02:02:34'
p4
s.(dp0
S'Text'
p1
S'\xe2\x96\xba7 best android lock display screen applications and widgets - https://t.co/rzmscisfe9 https://t.co/4zscqcgj7p'
p2
sS'Created At'
p3
S'2015-11-29 02:02:36'
p4
s.(dp0
S'Text'
p1
S"i'm earning #mplusrewards in family feud 2 android. https://t.co/gogutqubw8"
p2
sS'Created At'
p3
S'2015-11-29 02:02:37'
p4
s.(dp0
S'Text'
p1
S"rt @rldiculousness: why do android snapchats look like they're from the 1800's https://t.co/gau6teserr"
p2
sS'Created At'
p3
S'2015-11-29 02:02:38'
p4
s.(dp0
S'Text'
p1
S'# impact of latest android devices and android versions on android application\xc2\xa0development https://t.co/jojn9dbfih'
p2
sS'Created At'
p3
S'2015-11-29 02:02:39'
p4
s.(dp0
S'Text'
p1
S'\xe2\x96\xba7 best android lock display screen applications and widgets - https://t.co/zafiv21inu https://t.co/2d2qc0q9zp'
p2
sS'Created At'
p3
S'2015-11-29 02:02:39'
p4
s.(dp0
S'Text'
p1
S"i'm earning #mplusrewards in cut da deck android. https://t.co/g7koxmrrgh"
p2
sS'Created At'
p3
S'2015-11-29 02:02:40'
p4
s.(dp0
S'Text'
p1
S'know in the vicinity the existent unfoul android apps:: tpw'
p2
sS'Created At'
p3
S'2015-11-29 02:02:40'
p4
s.(dp0
S'Text'
p1
S'lisa emry completed the floor lamp quest https://t.co/6y7pp0mahp'
p2
sS'Created At'
p3
S'2015-11-29 02:02:42'
p4
s.(dp0
S'Text'
p1
S'free on #googleplay\nhttps://t.co/uolqm9b12l\n#mobilegames #christmas #games #gamersunite @gamerrter #android #festive https://t.co/e1qmux9wtr'
p2
sS'Created At'
p3
S'2015-11-29 02:02:45'
p4
s.(dp0
S'Text'
p1
S'#10billionwives \ni married394,049,934,938wives!\n\nios: https://t.co/yrcz1j9psr\nandroid: https://t.co/efws5hdlm9 https://t.co/rueifktclg'
p2
sS'Created At'
p3
S'2015-11-29 02:02:45'
p4
s.(dp0
S'Text'
p1
S'"the best android tablets | android central" https://t.co/kjfdrfyixr #android'
p2
sS'Created At'
p3
S'2015-11-29 02:02:46'
p4
s.(dp0
S'Text'
p1
S'3/6  33% via mobile devices, compared to 27% in 2014; ios drove 3x more sales than android as expected'
p2
sS'Created At'
p3
S'2015-11-29 02:02:49'
p4
s.(dp0
S'Text'
p1
S'mobile site creation and hosting https://t.co/ml063ypecp #mobile #android #hosting https://t.co/w3a9obij90 https://t.co/caqdwb3dch'
p2
sS'Created At'
p3
S'2015-11-29 02:02:49'
p4
s.(dp0
S'Text'
p1
S"now playing ty dinero's dedication  via @datpiff's android app https://t.co/gfvfnlwxyd go get it https://t.co/fa3280uymq"
p2
sS'Created At'
p3
S'2015-11-29 02:02:52'
p4
s.(dp0
S'Text'
p1
S'rt @engrossingfacts: google maps calculates traffic by tracking how fast android devices are moving on the road.'
p2
sS'Created At'
p3
S'2015-11-29 02:02:53'
p4
s.(dp0
S'Text'
p1
S'not all of us lol hate that app  https://t.co/wn8nvjmka3'
p2
sS'Created At'
p3
S'2015-11-29 02:02:54'
p4
s.(dp0
S'Text'
p1
S'rt @icasnetwork2015: https://t.co/ax1vqjuder android m coming soon - icas @icasnetwork2015'
p2
sS'Created At'
p3
S'2015-11-29 02:02:55'
p4
s.(dp0
S'Text'
p1
S"i'm earning #mplusrewards in da daily compliment android. https://t.co/pshbicxfe2"
p2
sS'Created At'
p3
S'2015-11-29 02:02:56'
p4
s.(dp0
S'Text'
p1
S'rt @noahr3_: alright guys here is my first giveaway...110k madden mobile coins rt and follow to enter. ios &amp; android. ends 12/5. https://t.\xe2\x80\xa6'
p2
sS'Created At'
p3
S'2015-11-29 02:02:57'
p4
s.(dp0
S'Text'
p1
S'\xe2\x9d\xa4 [free] adult comic viewer (android)\xe2\x9d\xa4 app download \xe2\x96\xba https://t.co/t3jrdr9dk6   #hentai #ecchi #anime #porn1876 https://t.co/btoeiurwvj'
p2
sS'Created At'
p3
S'2015-11-29 02:02:57'
p4
s.(dp0
S'Text'
p1
S'mis amigos utilizan: twitter web client 7% twitter for android 4% twitter for iphone 3% #tuitutil https://t.co/bmsyxkiklx'
p2
sS'Created At'
p3
S'2015-11-29 02:02:58'
p4
s.(dp0
S'Text'
p1
S"i'm earning #mplusrewards in cut da deck android. https://t.co/6kiroyacx5"
p2
sS'Created At'
p3
S'2015-11-29 02:02:59'
p4
s.(dp0
S'Text'
p1
S'here are the rules fanduel laid out for employees to play o https://t.co/haeci85vei #apps #news #startups #howto #diy #android #howto #apps'
p2
sS'Created At'
p3
S'2015-11-29 02:02:59'
p4
s.(dp0
S'Text'
p1
S'rt @octogamesstudio: new addictive game on #android -&gt; https://t.co/m0nj0hydqp\n"brother of flappy bird" #indiedev #indiegame #mobilegames h\xe2\x80\xa6'
p2
sS'Created At'
p3
S'2015-11-29 02:02:59'
p4
s.(dp0
S'Text'
p1
S'rt @joeingeno: #google can unlock most #android phones remotely if the government requests it https://t.co/qeo2sgzuwi @dottech'
p2
sS'Created At'
p3
S'2015-11-29 02:03:00'
p4
s.(dp0
S'Text'
p1
S'rt @strongoppa1212: vote bigbang on seoul music awards! \n\n\xe2\x9e\xa1\xef\xb8\x8fhttps://t.co/wjt6vnd6gg\n\xe2\x9e\xa1\xef\xb8\x8fandroid devices: https://t.co/awk4pdw6uv https://t.co\xe2\x80\xa6'
p2
sS'Created At'
p3
S'2015-11-29 02:03:01'
p4
s.(dp0
S'Text'
p1
S"i'm earning #mplusrewards in flip da coin android. https://t.co/dxjlwrxyau"
p2
sS'Created At'
p3
S'2015-11-29 02:03:02'
p4
s.(dp0
S'Text'
p1
S'rt @octogamesstudio: new addictive game on #android -&gt; https://t.co/m0nj0hydqp\n"brother of flappy bird" #indiedev #indiegame #mobilegames h\xe2\x80\xa6'
p2
sS'Created At'
p3
S'2015-11-29 02:03:02'
p4
s.(dp0
S'Text'
p1
S'#nowplaying on https://t.co/rn0wd9coms dear david - hypnotized (original_mix) - app: https://t.co/mtlbbcvvhm'
p2
sS'Created At'
p3
S'2015-11-29 02:03:02'
p4
s.(dp0
S'Text'
p1
S'\xe2\x96\xba7 best android lock display screen applications and widgets - https://t.co/tqxk7lpgjt https://t.co/iie97vnkzj'
p2
sS'Created At'
p3
S'2015-11-29 02:03:03'
p4
s.(dp0
S'Text'
p1
S'# impact of latest android devices and android versions on android application\xc2\xa0development https://t.co/bj5u9byfyf'
p2
sS'Created At'
p3
S'2015-11-29 02:03:03'
p4
s.(dp0
S'Text'
p1
S'pick up the new version of droidhop radio v11 for android.\xe2\x80\xa6 https://t.co/xnqykh3s9c'
p2
sS'Created At'
p3
S'2015-11-29 02:03:03'
p4
s.(dp0
S'Text'
p1
S'\xe2\x96\xba7 best android lock display screen applications and widgets - https://t.co/sihtbgs5ft https://t.co/qogowhbkc9'
p2
sS'Created At'
p3
S'2015-11-29 02:03:07'
p4
s.(dp0
S'Text'
p1
S'\xe2\x80\x9ccheck out our new android app chloes x diary. get it here https://t.co/2knjqap8oi\xe2\x80\x9d - download... https://t.co/ehb5dtzuyq'
p2
sS'Created At'
p3
S'2015-11-29 02:03:08'
p4
s.(dp0
S'Text'
p1
S'#android apps free download zedge https://t.co/7axnjyl5cc'
p2
sS'Created At'
p3
S'2015-11-29 02:03:08'
p4
s.(dp0
S'Text'
p1
S'enter to win a google nexus 5 android smartphone @androidheadline #android #nexus #nexus5x  https://t.co/w5esut04vn'
p2
sS'Created At'
p3
S'2015-11-29 02:03:09'
p4
s.(dp0
S'Text'
p1
S'\xe2\x96\xba7 best android lock display screen applications and widgets - https://t.co/tugdkps8wk https://t.co/r41coufegn'
p2
sS'Created At'
p3
S'2015-11-29 02:03:10'
p4
s.(dp0
S'Text'
p1
S'enter to win a google nexus 5 android smartphone @androidheadline #android #nexus #nexus5x  https://t.co/0evebrifbh'
p2
sS'Created At'
p3
S'2015-11-29 02:03:11'
p4
s.(dp0
S'Text'
p1
S"i'm now a d-list celebrity in kim kardashian: hollywood. you can be famous too by playing on android! https://t.co/byostfy4yf"
p2
sS'Created At'
p3
S'2015-11-29 02:03:11'
p4
s.(dp0
S'Text'
p1
S'\xe2\x96\xba7 best android lock display screen applications and widgets - https://t.co/y0oyoryyfe https://t.co/fpp2if4pem'
p2
sS'Created At'
p3
S'2015-11-29 02:03:11'
p4
s.(dp0
S'Text'
p1
S'@stefiee11 helgo hope u appreciate that addictive android/ios/web\xf0\x9f\x92\xb8gamg https://t.co/fyaljyv7vr thanks'
p2
sS'Created At'
p3
S'2015-11-29 02:03:12'
p4
s.(dp0
S'Text'
p1
S'\xe2\x99\xa1\xc5\x91 irulu 10.1" google gms android 5.1 10 inch tablet pc quad core dual cam 8g wifi https://t.co/p4fx13u8xa https://t.co/jca7vs8wa1'
p2
sS'Created At'
p3
S'2015-11-29 02:03:11'
p4
s.(dp0
S'Text'
p1
S"i'm earning #mplusrewards in what's the phrase android. https://t.co/vnmyvb7ucb"
p2
sS'Created At'
p3
S'2015-11-29 02:03:12'
p4
s.(dp0
S'Text'
p1
S'tower defender \xe2\x80\x93 defense game v1.3 mod apk (unlimited money) \xe2\x80\x93 android games https://t.co/qpqam6tusd https://t.co/ilffgloefg'
p2
sS'Created At'
p3
S'2015-11-29 02:03:12'
p4
s.(dp0
S'Text'
p1
S'\xe2\x96\xba7 best android lock display screen applications and widgets - https://t.co/n1hzmmoqog https://t.co/80rafd60a9'
p2
sS'Created At'
p3
S'2015-11-29 02:03:13'
p4
s.(dp0
S'Text'
p1
S'tower defender \xe2\x80\x93 defense game v1.3 mod apk (unlimited money) \xe2\x80\x93 android games https://t.co/msjckb5ew0 https://t.co/dwq37ul04z'
p2
sS'Created At'
p3
S'2015-11-29 02:03:13'
p4
s.(dp0
S'Text'
p1
S'\xe2\x96\xba7 best android lock display screen applications and widgets - https://t.co/2roawf0djw https://t.co/sy2yehhayp'
p2
sS'Created At'
p3
S'2015-11-29 02:03:15'
p4
s.(dp0
S'Text'
p1
S'rt @adrogdesigns: free on #googleplay\nhttps://t.co/uolqm9b12l\n#mobilegames #christmas #games #gamersunite @gamerrter #android #festive http\xe2\x80\xa6'
p2
sS'Created At'
p3
S'2015-11-29 02:03:15'
p4
s.(dp0
S'Text'
p1
S"i'm earning #mplusrewards in what's the phrase android. https://t.co/jrustukakn"
p2
sS'Created At'
p3
S'2015-11-29 02:03:16'
p4
s.(dp0
S'Text'
p1
S'you are the epitome of absolute stupidity  https://t.co/qi2dy7ahrv'
p2
sS'Created At'
p3
S'2015-11-29 02:03:16'
p4
s.(dp0
S'Text'
p1
S'candy crush saga v1.65.0.2 mod apk [unlimited lives] \xe2\x80\x93 android games https://t.co/vmxnovqslo https://t.co/jtylajuhkp'
p2
sS'Created At'
p3
S'2015-11-29 02:03:16'
p4
s.(dp0
S'Text'
p1
S'candy crush saga v1.65.0.2 mod apk [unlimited lives] \xe2\x80\x93 android games https://t.co/jmiqwrysjv https://t.co/kjkqrouim5'
p2
sS'Created At'
p3
S'2015-11-29 02:03:17'
p4
s.(dp0
S'Text'
p1
S'\xe2\x96\xba7 best android lock display screen applications and widgets - https://t.co/pt8jsuarnq https://t.co/lzilkv2cv0'
p2
sS'Created At'
p3
S'2015-11-29 02:03:18'
p4
s.(dp0
S'Text'
p1
S'rt @octogamesstudio: new addictive game on #android -&gt; https://t.co/m0nj0hydqp\n"brother of flappy bird" #indiedev #indiegame #mobilegames h\xe2\x80\xa6'
p2
sS'Created At'
p3
S'2015-11-29 02:03:19'
p4
s.(dp0
S'Text'
p1
S'\xe2\x96\xba7 best android lock display screen applications and widgets - https://t.co/3jlokjlp9w https://t.co/3plp5q3eyk'
p2
sS'Created At'
p3
S'2015-11-29 02:03:19'
p4
s.(dp0
S'Text'
p1
S'\xe2\x96\xba7 best android lock display screen applications and widgets - https://t.co/h7xgwr8hb0 https://t.co/b3dq5ckpyf'
p2
sS'Created At'
p3
S'2015-11-29 02:03:20'
p4
s.(dp0
S'Text'
p1
S'rt @adrogdesigns: free on #googleplay\nhttps://t.co/uolqm9b12l\n#mobilegames #indiedev #games #gamersunite @gamerrter #android #xmas https://\xe2\x80\xa6'
p2
sS'Created At'
p3
S'2015-11-29 02:03:20'
p4
s.(dp0
S'Text'
p1
S'rt @_illmindofcam_: "android is so much better than apple"\nme: https://t.co/0tkzshhmk8'
p2
sS'Created At'
p3
S'2015-11-29 02:03:21'
p4
s.(dp0
S'Text'
p1
S"i'm earning #mplusrewards in da daily compliment android. https://t.co/nbrmxg5bfb"
p2
sS'Created At'
p3
S'2015-11-29 02:03:22'
p4
s.(dp0
S'Text'
p1
S'\xe2\x96\xba7 best android lock display screen applications and widgets - https://t.co/txic6rmbwy https://t.co/vwyfqlygpz'
p2
sS'Created At'
p3
S'2015-11-29 02:03:22'
p4
s.(dp0
S'Text'
p1
S"how to download &amp; read #free ebooks on your #iphone, #android phone, #windowsphone #blackberry - it's simple! https://t.co/m4xvlommhn"
p2
sS'Created At'
p3
S'2015-11-29 02:03:22'
p4
s.(dp0
S'Text'
p1
S'\xe2\x96\xba7 best android lock display screen applications and widgets - https://t.co/7cgspat8jp https://t.co/qwj1xbf8uy'
p2
sS'Created At'
p3
S'2015-11-29 02:03:23'
p4
s.(dp0
S'Text'
p1
S'mobile site creation and hosting https://t.co/xz5nzbeuct #mobile #android #hosting https://t.co/qiamlpudkl https://t.co/fqrpuorwi0'
p2
sS'Created At'
p3
S'2015-11-29 02:03:23'
p4
s.(dp0
S'Text'
p1
S"i'm earning #mplusrewards in https://t.co/iubynykspi for android. https://t.co/9nvzy9rrq6 @dictionarycom"
p2
sS'Created At'
p3
S'2015-11-29 02:03:23'
p4
s.(dp0
S'Text'
p1
S"i'm earning #mplusrewards in bob da boat android. https://t.co/huwfb85g1j"
p2
sS'Created At'
p3
S'2015-11-29 02:03:25'
p4
s.(dp0
S'Text'
p1
S"i'm earning #mplusrewards in the price is right\xe2\x84\xa2 slots - android. https://t.co/edv9i61msy"
p2
sS'Created At'
p3
S'2015-11-29 02:03:25'
p4
s.(dp0
S'Text'
p1
S'\xe2\x9c\x94\xe2\x99\xa3 irulu 7" tablet 3g phablet android 4.4 8gb dual core gps pink w/ white keyboard https://t.co/vpwppdx4h4 https://t.co/2ubpwwolvp'
p2
sS'Created At'
p3
S'2015-11-29 02:03:26'
p4
s.(dp0
S'Text'
p1
S'\xe2\x96\xba7 best android lock display screen applications and widgets - https://t.co/uw0a9sdjk9 https://t.co/7uspba93bz'
p2
sS'Created At'
p3
S'2015-11-29 02:03:26'
p4
s.(dp0
S'Text'
p1
S'rt @gaiiadite: you are the epitome of absolute stupidity  https://t.co/qi2dy7ahrv'
p2
sS'Created At'
p3
S'2015-11-29 02:03:27'
p4
s.(dp0
S'Text'
p1
S'# impact of latest android devices and android versions on android application\xc2\xa0development https://t.co/asgoqa3nex'
p2
sS'Created At'
p3
S'2015-11-29 02:03:27'
p4
s.(dp0
S'Text'
p1
S'\xe2\x96\xba7 best android lock display screen applications and widgets - https://t.co/vsscsiyoe1 https://t.co/ezfn2ojpdd'
p2
sS'Created At'
p3
S'2015-11-29 02:03:27'
p4
s.(dp0
S'Text'
p1
S'rt @icasnetwork2015: https://t.co/ax1vqjuder android m coming soon - icas @icasnetwork2015'
p2
sS'Created At'
p3
S'2015-11-29 02:03:28'
p4
s.(dp0
S'Text'
p1
S"i'm earning #mplusrewards in splat da bat android. https://t.co/wju2nlqod4"
p2
sS'Created At'
p3
S'2015-11-29 02:03:28'
p4
s.(dp0
S'Text'
p1
S'\xe2\x96\xba7 best android lock display screen applications and widgets - https://t.co/djxc9hpkb3 https://t.co/tgckdsiad0'
p2
sS'Created At'
p3
S'2015-11-29 02:03:28'
p4
s.(dp0
S'Text'
p1
S'mobile site creation and hosting https://t.co/kpfaueuip7 #mobile #android #hosting https://t.co/qsoiekrazh https://t.co/pco02svvas'
p2
sS'Created At'
p3
S'2015-11-29 02:03:29'
p4
s.(dp0
S'Text'
p1
S'mobile site creation and hosting https://t.co/ykggvswjbq #mobile #android #hosting https://t.co/xsuhptrwtv https://t.co/bdnel6ufa6'
p2
sS'Created At'
p3
S'2015-11-29 02:03:29'
p4
s.(dp0
S'Text'
p1
S'enter to win a oneplus two android smartphone from @androidheadline #android #oneplus2 #oneplus  https://t.co/w5esusiu3p'
p2
sS'Created At'
p3
S'2015-11-29 02:03:29'
p4
s.(dp0
S'Text'
p1
S'mobile site creation and hosting https://t.co/sjqxstkfhi #mobile #android #hosting https://t.co/obym6orif2 https://t.co/7mz9odwknl'
p2
sS'Created At'
p3
S'2015-11-29 02:03:29'
p4
s.(dp0
S'Text'
p1
S'mobile site creation and hosting https://t.co/xx1gtqhapx #mobile #android #hosting https://t.co/rz1ik4yr3z https://t.co/egm2afwy5k'
p2
sS'Created At'
p3
S'2015-11-29 02:03:30'
p4
s.