(dp0
S'Text'
p1
S'I swear to god my iPhone 6S be acting like a 3GS. Fucking stupid.'
p2
sS'Created At'
p3
S'2015-11-28 20:20:33'
p4
s.(dp0
S'Text'
p1
S"I've collected 4,489 gold coins!  https://t.co/YF8Wruyrv6 #android, #androidgames, #gameinsight"
p2
sS'Created At'
p3
S'2015-11-28 20:20:33'
p4
s.(dp0
S'Text'
p1
S"I've collected 9,540 gold coins!  https://t.co/7spuSFyjeE #android, #androidgames, #gameinsight"
p2
sS'Created At'
p3
S'2015-11-28 20:20:34'
p4
s.(dp0
S'Text'
p1
S"I've harvested 120 of food!  https://t.co/7spuSFyjeE #android, #androidgames, #gameinsight"
p2
sS'Created At'
p3
S'2015-11-28 20:20:34'
p4
s.(dp0
S'Text'
p1
S'RT @Indian_stats: "Y dnt u Muslims tell ISIS to stop"\n\nOk hold up *pulls out iphone*\n\n"Yo ISIS habibi,its me plz stop"\n\nISIS:"ok habibi sor\xe2\x80\xa6'
p2
sS'Created At'
p3
S'2015-11-28 20:20:34'
p4
s.(dp0
S'Text'
p1
S"I've reached level 38. I earned \xc2\xa0$267000 and \xe2\x82\xac5! https://t.co/4Ny0HYTn34 #Gameinsight #Androidgames #Android"
p2
sS'Created At'
p3
S'2015-11-28 20:20:34'
p4
s.(dp0
S'Text'
p1
S'#iphone #apple Deals https://t.co/jRveHhzS9W #8258 Wholesale GCase Leather Kickstand Hard Back Case Cover for ipho\xe2\x80\xa6 https://t.co/ZXcP7SnqqJ'
p2
sS'Created At'
p3
S'2015-11-28 20:20:34'
p4
s.(dp0
S'Text'
p1
S'I got a reward: Photo Artist in BigBusiness Deluxe for Android https://t.co/KDZEs4TO4e #Gameinsight #Androidgames #Android'
p2
sS'Created At'
p3
S'2015-11-28 20:20:34'
p4
s.(dp0
S'Text'
p1
S"I've collected 13,750 gold coins!  https://t.co/NvtqT30752 #android, #androidgames, #gameinsight"
p2
sS'Created At'
p3
S'2015-11-28 20:20:34'
p4
s.(dp0
S'Text'
p1
S'World War III, via @nytimes https://t.co/2ilfrUuznh'
p2
sS'Created At'
p3
S'2015-11-28 20:20:34'
p4
s.(dp0
S'Text'
p1
S'RT @ThePackShackCA: 4 million iOS coin giveaway!\n\nRt and follow us to enter\n\nWinner in 3 hrs https://t.co/Uu7MPQ8HjV'
p2
sS'Created At'
p3
S'2015-11-28 20:20:35'
p4
s.(dp0
S'Text'
p1
S'RT @Zeebeeboy: Go to https://t.co/6GZbWqThK1 on your iPhone/iPod Safari, input my code z12814196. https://t.co/FH8zW1ak4d'
p2
sS'Created At'
p3
S'2015-11-28 20:20:35'
p4
s.(dp0
S'Text'
p1
S'#android #Arkansas #photoshop #practice The #bulimia #recovery #program: https://t.co/SHfeeNW4SY A Membership https://t.co/OIfvrjOT9S'
p2
sS'Created At'
p3
S'2015-11-28 20:20:35'
p4
s.(dp0
S'Text'
p1
S'RT @TMFAeassa: Wondering when Ming-Chi Kuo will put out a note spilling the beans on iPhone 7.'
p2
sS'Created At'
p3
S'2015-11-28 20:20:35'
p4
s.(dp0
S'Text'
p1
S'#iphone #apple Deals https://t.co/5HrX3nsSxr #7672 Wholesale G-Case Leather Kickstand Hard Back Case Cover for iph\xe2\x80\xa6 https://t.co/Vu9Rt6ozmG'
p2
sS'Created At'
p3
S'2015-11-28 20:20:35'
p4
s.(dp0
S'Text'
p1
S'When you scared of getting screenshot \xf0\x9f\x98\xad https://t.co/nH6XOmlhq9'
p2
sS'Created At'
p3
S'2015-11-28 20:20:35'
p4
s.(dp0
S'Text'
p1
S"I've harvested 1,225 of food!  https://t.co/fIDQSMSafQ #android, #androidgames, #gameinsight"
p2
sS'Created At'
p3
S'2015-11-28 20:20:36'
p4
s.(dp0
S'Text'
p1
S"I can go Confectioner's Shop! Have you already discovered this location? https://t.co/YmM0vWRy32 #Android #AndroidGames #GameInsight"
p2
sS'Created At'
p3
S'2015-11-28 20:20:36'
p4
s.(dp0
S'Text'
p1
S'5 Why Sell Your Iphone\xc2\xa04S https://t.co/XLthlhElWB https://t.co/TtcXpIsRUI'
p2
sS'Created At'
p3
S'2015-11-28 20:20:35'
p4
s.(dp0
S'Text'
p1
S"I'm earning #mPLUSRewards in Guess Da Number iOS. https://t.co/VYRVEXGbu1"
p2
sS'Created At'
p3
S'2015-11-28 20:20:36'
p4
s.(dp0
S'Text'
p1
S'I have House on my island! Now my island is even more awesome!  https://t.co/JkfaI10Brr #android, #androidgames, #gameinsight'
p2
sS'Created At'
p3
S'2015-11-28 20:20:36'
p4
s.(dp0
S'Text'
p1
S'RT @Cute_Cravings: \xf0\x9f\x8e\x84 SATURDAY SALE \xf0\x9f\x8e\x84\n\nOur Holiday Glitter Phone Cases are on Sale!!\n\nEnds TONIGHT! \xe2\x9b\x84\xef\xb8\x8f\xf0\x9f\x8e\x80\n\n\xf0\x9f\x91\x89\xf0\x9f\x8f\xbchttps://t.co/b6G9g6hAh5\xf0\x9f\x91\x88\xf0\x9f\x8f\xbc https:/\xe2\x80\xa6'
p2
sS'Created At'
p3
S'2015-11-28 20:20:36'
p4
s.(dp0
S'Text'
p1
S'RT @__ryannabaee: " I got an iPhone 6 how I\'m fucking poor " \xf0\x9f\x98\x82\xf0\x9f\x92\x80\xf0\x9f\x92\x80 https://t.co/x4yV3C76iY'
p2
sS'Created At'
p3
S'2015-11-28 20:20:36'
p4
s.(dp0
S'Text'
p1
S'#iphone #apple Deals https://t.co/UVP07QUwdR #4599 Wholesale GCase Leather Kickstand Hard Back Case Cover for ipho\xe2\x80\xa6 https://t.co/DXhvyUWfdT'
p2
sS'Created At'
p3
S'2015-11-28 20:20:36'
p4
s.(dp0
S'Text'
p1
S"I'm now a B-List celebrity in Kim Kardashian: Hollywood. You can be famous too by playing on Android! https://t.co/VShj3ZooFv"
p2
sS'Created At'
p3
S'2015-11-28 20:20:36'
p4
s.(dp0
S'Text'
p1
S'#iphone #apple Deals https://t.co/8PcZSg0MqJ #1316 Snow Lizard Products Tek Boot Lanyard Cases for iPhone 4 &amp; 4s i\xe2\x80\xa6 https://t.co/JCXRZbdnfC'
p2
sS'Created At'
p3
S'2015-11-28 20:20:37'
p4
s.(dp0
S'Text'
p1
S'Having fun with #ClumsyNinja for Android! Join me now for FREE! https://t.co/Pg057IfNa5'
p2
sS'Created At'
p3
S'2015-11-28 20:20:37'
p4
s.(dp0
S'Text'
p1
S'#iphone #apple Deals https://t.co/gSKOgvSAm9 #5616 Perseus Phone Case for Apple iPhone 5s (Bulk Case of 100) https://t.co/ogbjGVBSVb'
p2
sS'Created At'
p3
S'2015-11-28 20:20:38'
p4
s.(dp0
S'Text'
p1
S"RT @Dory: Why do android snapchats look like they're from the 1800's https://t.co/2XWU9JpTi5"
p2
sS'Created At'
p3
S'2015-11-28 20:20:38'
p4
s.(dp0
S'Text'
p1
S"I have completed the quest 'Build a House.' in the #Android game The Tribez.  https://t.co/JkfaI10Brr #androidgames, #gameinsight"
p2
sS'Created At'
p3
S'2015-11-28 20:20:38'
p4
s.(dp0
S'Text'
p1
S'#iphone #apple Deals https://t.co/a8Cyi3Y31I #4634 Wholesale GCase Leather Kickstand Hard Back Case Cover for ipho\xe2\x80\xa6 https://t.co/DBbQMhjPW7'
p2
sS'Created At'
p3
S'2015-11-28 20:20:38'
p4
s.(dp0
S'Text'
p1
S'FACTORY UNLOCK SPRINT IPHONE 5C,5S,6.6+ CLEAN IMEI ONLY 1-48 HOURS 55$ *24'
p2
sS'Created At'
p3
S'2015-11-28 20:20:39'
p4
s.(dp0
S'Text'
p1
S"I'm now an E-List celebrity in Kim Kardashian: Hollywood. You can be famous too by playing on Android! https://t.co/2S1SJO0UTL"
p2
sS'Created At'
p3
S'2015-11-28 20:20:39'
p4
s.(dp0
S'Text'
p1
S'RT @OplaRahman: Jailbreak iOS 9 Guide - https://t.co/ta4AZ0KVJV https://t.co/RA0edTUs6k'
p2
sS'Created At'
p3
S'2015-11-28 20:20:39'
p4
s.(dp0
S'Text'
p1
S'@SarahMuqattash Android is love,  Android is life.'
p2
sS'Created At'
p3
S'2015-11-28 20:20:39'
p4
s.(dp0
S'Text'
p1
S'RT @ThePackShackCA: 4 million iOS coin giveaway!\n\nRt and follow us to enter\n\nWinner in 3 hrs https://t.co/Uu7MPQ8HjV'
p2
sS'Created At'
p3
S'2015-11-28 20:20:39'
p4
s.(dp0
S'Text'
p1
S'#iphone #apple Deals https://t.co/JjPdI5Oe9V #1729 Wholesale G-Case Leather Kickstand Hard Back Case Cover for iph\xe2\x80\xa6 https://t.co/Q72Qd91Kg4'
p2
sS'Created At'
p3
S'2015-11-28 20:20:39'
p4
s.(dp0
S'Text'
p1
S'Nice to meet Lady Fleming! Look for the new acquaintances in the streets of London! https://t.co/rh4gopmZib #Android #AndroidGames'
p2
sS'Created At'
p3
S'2015-11-28 20:20:40'
p4
s.(dp0
S'Text'
p1
S"The Kingdom's citizens are happy to have Hovel! Try to build it too! https://t.co/8gxAT2S6Uc #android,#androidgames,#gameinsight"
p2
sS'Created At'
p3
S'2015-11-28 20:20:40'
p4
s.(dp0
S'Text'
p1
S"I ain't got none so no,just pictures and videos are better https://t.co/VwXLaTQ1jv"
p2
sS'Created At'
p3
S'2015-11-28 20:20:40'
p4
s.(dp0
S'Text'
p1
S'#iphone #apple Deals https://t.co/TCk31MQKJj #0210 Blow Out Special! Aluminium Case Back Hard Cover Skin Iphone 5 \xe2\x80\xa6 https://t.co/Vc4NURaLrr'
p2
sS'Created At'
p3
S'2015-11-28 20:20:40'
p4
s.(dp0
S'Text'
p1
S'Apple TV review: Has the iPhone giant cracked the future of television? - https://t.co/oYPFEibftw https://t.co/827pgLbRwu'
p2
sS'Created At'
p3
S'2015-11-28 20:20:40'
p4
s.(dp0
S'Text'
p1
S'RT @ThePackShackCA: 4 million iOS coin giveaway!\n\nRt and follow us to enter\n\nWinner in 3 hrs https://t.co/Uu7MPQ8HjV'
p2
sS'Created At'
p3
S'2015-11-28 20:20:40'
p4
s.(dp0
S'Text'
p1
S"I've finished the Thinning the Vegetation quest! Are you able to fulfil the same task? https://t.co/KJg3I5149u #android,#androidgames,..."
p2
sS'Created At'
p3
S'2015-11-28 20:20:40'
p4
s.(dp0
S'Text'
p1
S"I've collected 124 gold coins!  https://t.co/eWaSHncjo3 #android, #androidgames, #gameinsight"
p2
sS'Created At'
p3
S'2015-11-28 20:20:40'
p4
s.(dp0
S'Text'
p1
S"I've collected 28,561 gold coins! https://t.co/XlEU0iwOSD #iphone, #iphonegames, #gameinsight"
p2
sS'Created At'
p3
S'2015-11-28 20:20:41'
p4
s.(dp0
S'Text'
p1
S'RT @melodive: The new and fresh jungle level in my upcoming voxel flight sim Fugl for iOS. #screenshotsaturday https://t.co/yMOm5B0FEn'
p2
sS'Created At'
p3
S'2015-11-28 20:20:41'
p4
s.(dp0
S'Text'
p1
S"I've collected 5,599 gold coins!  https://t.co/APcV2sKMZU #android, #androidgames, #gameinsight"
p2
sS'Created At'
p3
S'2015-11-28 20:20:41'
p4
s.(dp0
S'Text'
p1
S'Deals Today #82 : https://t.co/7RF4OjVmM9 Apple iPhone 5s - 16GB (Factory Unlocked) Smartphone - Gold - Silver - G\xe2\x80\xa6 https://t.co/iOAPEAe59b'
p2
sS'Created At'
p3
S'2015-11-28 20:20:41'
p4
s.(dp0
S'Text'
p1
S"I've harvested 625 of food!  https://t.co/APcV2sKMZU #android, #androidgames, #gameinsight"
p2
sS'Created At'
p3
S'2015-11-28 20:20:41'
p4
s.(dp0
S'Text'
p1
S'OMG! I scored 2 points in the #AmazingBrick game on iOS https://t.co/z3M3xUWfnK https://t.co/V9JhdpgjyE'
p2
sS'Created At'
p3
S'2015-11-28 20:20:41'
p4
s.(dp0
S'Text'
p1
S"I've collected 31,870 gold coins!  https://t.co/bMPHc2HASk #android, #androidgames, #gameinsight"
p2
sS'Created At'
p3
S'2015-11-28 20:20:41'
p4
s.(dp0
S'Text'
p1
S"I'm earning #mPLUSRewards in Light Da Fuse Android. https://t.co/yDNSAogT5d"
p2
sS'Created At'
p3
S'2015-11-28 20:20:41'
p4
s.(dp0
S'Text'
p1
S"I've harvested 1,456 of food!  https://t.co/dOxg32e5H0 #android, #androidgames, #gameinsight"
p2
sS'Created At'
p3
S'2015-11-28 20:20:42'
p4
s.(dp0
S'Text'
p1
S"I've collected 18,780 gold coins!  https://t.co/dOxg32e5H0 #android, #androidgames, #gameinsight"
p2
sS'Created At'
p3
S'2015-11-28 20:20:42'
p4
s.(dp0
S'Text'
p1
S'"Let The Church Say Change" w/ Dr. Larry D. Reid Tomorrow 12:00pm PST. Subscribe now \xe2\x9e\xbc https://t.co/hL7ayT8tFy #blab'
p2
sS'Created At'
p3
S'2015-11-28 20:20:42'
p4
s.(dp0
S'Text'
p1
S"I've finished the Message Board quest! Are you able to fulfil the same task? https://t.co/7TKiR8Z0Dv #android,#androidgames,#gameinsight"
p2
sS'Created At'
p3
S'2015-11-28 20:20:42'
p4
s.(dp0
S'Text'
p1
S"I have built a Chief's Tent in Cat Story https://t.co/8esTVJHZQB #iPhone, #iPhoneGames, #GameInsight"
p2
sS'Created At'
p3
S'2015-11-28 20:20:42'
p4
s.(dp0
S'Text'
p1
S'Deals Today #82 : https://t.co/R6QPPrabSV 5000MAH External Solar Power Bank Battery Charger Dual-USB For iPhone 6S\xe2\x80\xa6 https://t.co/bbnth5CXln'
p2
sS'Created At'
p3
S'2015-11-28 20:20:43'
p4
s.(dp0
S'Text'
p1
S'I failed to beat the Ace on #braap with a time of 0:38.179 playing @madskillsmx 2. Get it FREE on #ios &amp; #android at https://t.co/GkhQqceGfX'
p2
sS'Created At'
p3
S'2015-11-28 20:20:43'
p4
s.(dp0
S'Text'
p1
S'RT @RowdyLifeYP: Cry me a river.... Fuckin nerd lmao  https://t.co/TRvWijo7a5'
p2
sS'Created At'
p3
S'2015-11-28 20:20:43'
p4
s.(dp0
S'Text'
p1
S'I have Dawn Knight\xe2\x80\x99s Collection now, and what about you? https://t.co/axJU73Gl9g #android,#androidgames,#gameinsight'
p2
sS'Created At'
p3
S'2015-11-28 20:20:43'
p4
s.(dp0
S'Text'
p1
S'RT @BieberholicFeel: iPhone 7 is way better tbh https://t.co/TscO1RoKth'
p2
sS'Created At'
p3
S'2015-11-28 20:20:43'
p4
s.(dp0
S'Text'
p1
S'I have Cafeteria on my island! Now my island is even more awesome!  https://t.co/I17UDZ8qbI #android, #androidgames, #gameinsight'
p2
sS'Created At'
p3
S'2015-11-28 20:20:43'
p4
s.(dp0
S'Text'
p1
S'My dad just got an iPhone. This is a nightmare'
p2
sS'Created At'
p3
S'2015-11-28 20:20:43'
p4
s.(dp0
S'Text'
p1
S'my mom gone say " you need a iphone 6 , you be squinting with that 5s " like bitch is you gone buy me one ???'
p2
sS'Created At'
p3
S'2015-11-28 20:20:43'
p4
s.(dp0
S'Text'
p1
S'#Iphone 7 Design\xc2\xa0News https://t.co/zz0JsTJZrx'
p2
sS'Created At'
p3
S'2015-11-28 20:20:43'
p4
s.(dp0
S'Text'
p1
S'RT @ShitChallenge: @ShitChallenge start the next step!\nGet an iPhone for free!*\nVisit: https://t.co/26lOKqRqLN https://t.co/A5ObkoNi5O'
p2
sS'Created At'
p3
S'2015-11-28 20:20:44'
p4
s.(dp0
S'Text'
p1
S'RT @ThePackShackCA: 4 million iOS coin giveaway!\n\nRt and follow us to enter\n\nWinner in 3 hrs https://t.co/Uu7MPQ8HjV'
p2
sS'Created At'
p3
S'2015-11-28 20:20:44'
p4
s.(dp0
S'Text'
p1
S'RT @OplaRahman: Jailbreak iOS 9 Guide - https://t.co/ta4AZ0KVJV https://t.co/RA0edTUs6k'
p2
sS'Created At'
p3
S'2015-11-28 20:20:44'
p4
s.(dp0
S'Text'
p1
S"These are previews of the iPhone cases I've designed on @Vistaprint. The cases include generations 4-6. https://t.co/P6tnXp6e37"
p2
sS'Created At'
p3
S'2015-11-28 20:20:44'
p4
s.(dp0
S'Text'
p1
S"I've harvested 2,965 of food!  https://t.co/5wGVpo1NL7 #android, #androidgames, #gameinsight"
p2
sS'Created At'
p3
S'2015-11-28 20:20:45'
p4
s.(dp0
S'Text'
p1
S"I've finished the Visit Baron de Albert's castle quest! Are you able to fulfil the same task? https://t.co/g4sivuD1RR #android,#androi..."
p2
sS'Created At'
p3
S'2015-11-28 20:20:45'
p4
s.(dp0
S'Text'
p1
S"The Kingdom's citizens are happy to have Guardsman Statue! Try to build it too! https://t.co/lOLgCCd2Gn #android,#androidgames,#gamein..."
p2
sS'Created At'
p3
S'2015-11-28 20:20:45'
p4
s.(dp0
S'Text'
p1
S"I Love My iPhone Without The Case \xf0\x9f\x98\x8d But I'm Clumsy So I Keep It On \xf0\x9f\x98\x82"
p2
sS'Created At'
p3
S'2015-11-28 20:20:46'
p4
s.(dp0
S'Text'
p1
S"I've finished the The Spirit of Courage quest! Are you able to fulfil the same task? https://t.co/axJU73Gl9g #android,#androidgames,#g..."
p2
sS'Created At'
p3
S'2015-11-28 20:20:46'
p4
s.(dp0
S'Text'
p1
S"I've harvested 1,000 of food!  https://t.co/h7tZhq94vg #android, #androidgames, #gameinsight"
p2
sS'Created At'
p3
S'2015-11-28 20:20:46'
p4
s.(dp0
S'Text'
p1
S'RT @ComputechTS: People With Limited iPhone Data Should Turn Off This New iOS 9 Feature http://t.co/sMff1MMFja'
p2
sS'Created At'
p3
S'2015-11-28 20:20:46'
p4
s.(dp0
S'Text'
p1
S'RT @IndieGameAddict: RT LabCave: Burger Clicker with more surprises on both iOS&amp;Android! https://t.co/EmdJixKRqi\xc2\xa0 #gamedev #indiegamedev #s\xe2\x80\xa6'
p2
sS'Created At'
p3
S'2015-11-28 20:20:47'
p4
s.(dp0
S'Text'
p1
S"The Kingdom's citizens are happy to have Scarecrow! Try to build it too! https://t.co/vRVFAubPUi #android,#androidgames,#gameinsight"
p2
sS'Created At'
p3
S'2015-11-28 20:20:47'
p4
s.(dp0
S'Text'
p1
S'RT @icasnetwork2015: https://t.co/Ax1VqJuDEr Android M Coming soon - ICas @icasnetwork2015'
p2
sS'Created At'
p3
S'2015-11-28 20:20:47'
p4
s.(dp0
S'Text'
p1
S'RT @OplaRahman: Jailbreak iOS 9 Guide - https://t.co/ta4AZ0KVJV https://t.co/RA0edTUs6k'
p2
sS'Created At'
p3
S'2015-11-28 20:20:47'
p4
s.(dp0
S'Text'
p1
S'I upgraded my Bakery and can now order: Magical Tiramisu! https://t.co/HGR9D7fJCx #android,#androidgames,#gameinsight'
p2
sS'Created At'
p3
S'2015-11-28 20:20:47'
p4
s.(dp0
S'Text'
p1
S"I've harvested 1,381 of food!  https://t.co/XbdVszloyj #iphone, #iphonegames, #gameinsight"
p2
sS'Created At'
p3
S'2015-11-28 20:20:47'
p4
s.(dp0
S'Text'
p1
S"I've collected 58,050 gold coins! https://t.co/XbdVszloyj #iphone, #iphonegames, #gameinsight"
p2
sS'Created At'
p3
S'2015-11-28 20:20:47'
p4
s.(dp0
S'Text'
p1
S'RT @LabCave: Burger Clicker with more surprises on both iOS&amp;Android! https://t.co/TT84aC7oRP #gamedev #indiegamedev #screenshotsaturday #ga\xe2\x80\xa6'
p2
sS'Created At'
p3
S'2015-11-28 20:20:47'
p4
s.(dp0
S'Text'
p1
S'RT @thandiwe32: Ok i see you fleekin with the android camera https://t.co/Y0KnbVz4dn'
p2
sS'Created At'
p3
S'2015-11-28 20:20:48'
p4
s.(dp0
S'Text'
p1
S'RT @VearchGuru: The Future is NOW. Download Vearch App (iOS)\xe2\x9a\xa1#Art #Music #Culture #Fashion http://t.co/m6lTzES0Dr\nhttps://t.co/BSyTCsDrP5'
p2
sS'Created At'
p3
S'2015-11-28 20:20:48'
p4
s.(dp0
S'Text'
p1
S'MI97 Black Edition iOS 9 1.1 (Paid/Themes (SpringBoard)) https://t.co/1CRhvRUKT5'
p2
sS'Created At'
p3
S'2015-11-28 20:20:48'
p4
s.(dp0
S'Text'
p1
S'MI97 iOS 9 1.1 (Paid/Themes (SpringBoard)) https://t.co/02uZHMf6cD'
p2
sS'Created At'
p3
S'2015-11-28 20:20:49'
p4
s.(dp0
S'Text'
p1
S"RT @Dory: Why do android snapchats look like they're from the 1800's https://t.co/2XWU9JpTi5"
p2
sS'Created At'
p3
S'2015-11-28 20:20:49'
p4
s.(dp0
S'Text'
p1
S'Free Samurai game https://t.co/Ga4s8eX38a #iPhone #game #japan #samurai #ninja #\xe5\x88\x80\xe5\x89\xa3\xe4\xb9\xb1\xe8\x88\x9e #gamedev #\xe3\x82\xb2\xe3\x83\xbc\xe3\x83\xa0\xe5\x88\xb6\xe4\xbd\x9c #\xe5\x92\x8c\xe9\xa2\xa8 #\xe4\xbe\x8d #\xe5\xbf\x8d\xe8\x80\x85 #unity'
p2
sS'Created At'
p3
S'2015-11-28 20:20:49'
p4
s.(dp0
S'Text'
p1
S'Deals Today #82 : https://t.co/at6bmgRrPo For iPhone 6 6s Plus Hard&amp;Soft Rubber Hybrid Armor Impact Defender Skin \xe2\x80\xa6 https://t.co/Pai3YRmeQM'
p2
sS'Created At'
p3
S'2015-11-28 20:20:49'
p4
s.(dp0
S'Text'
p1
S'Best Apps for the iPhone https://t.co/VptVbXJE1t'
p2
sS'Created At'
p3
S'2015-11-28 20:20:50'
p4
s.(dp0
S'Text'
p1
S"I'm earning #mPLUSRewards in Blast Da Zombie Android. https://t.co/0Ejil7NDhH"
p2
sS'Created At'
p3
S'2015-11-28 20:20:51'
p4
s.(dp0
S'Text'
p1
S"I'm earning #mPLUSRewards in TMZ - Android. https://t.co/dMECjT3cwn"
p2
sS'Created At'
p3
S'2015-11-28 20:20:51'
p4
s.(dp0
S'Text'
p1
S'Say whatever you want about android emojis but look at this fucking turtle!! https://t.co/sY6it9ic1v'
p2
sS'Created At'
p3
S'2015-11-28 20:20:51'
p4
s.(dp0
S'Text'
p1
S"RT @Dory: Why do android snapchats look like they're from the 1800's https://t.co/2XWU9JpTi5"
p2
sS'Created At'
p3
S'2015-11-28 20:20:51'
p4
s.(dp0
S'Text'
p1
S'Deals Today #82 : https://t.co/UPnyj1KOqM Motorola XT1060 Moto X Verizon Wireless 4G LTE 16GB Android Smartphone https://t.co/Rm2zAaySZd'
p2
sS'Created At'
p3
S'2015-11-28 20:20:51'
p4
s.(dp0
S'Text'
p1
S'RT @ThePackShackCA: 4 million iOS coin giveaway!\n\nRt and follow us to enter\n\nWinner in 3 hrs https://t.co/Uu7MPQ8HjV'
p2
sS'Created At'
p3
S'2015-11-28 20:20:52'
p4
s.(dp0
S'Text'
p1
S'Unlocked 4.5" Android 4.4 Smart Cell Phone 2 Sim T-mobile AT&amp;T 3G/GSM 4GB Pink  #ferisacorp https://t.co/8KuNiqCuCY https://t.co/1qMJE2UQpn'
p2
sS'Created At'
p3
S'2015-11-28 20:20:51'
p4
s.(dp0
S'Text'
p1
S'iPhone https://t.co/Li1t2F1Tiz'
p2
sS'Created At'
p3
S'2015-11-28 20:20:52'
p4
s.(dp0
S'Text'
p1
S"I've collected 131,750 gold coins!  https://t.co/ABSQWn5dwq #android, #androidgames, #gameinsight"
p2
sS'Created At'
p3
S'2015-11-28 20:20:52'
p4
s.(dp0
S'Text'
p1
S"I've harvested 10 of food!  https://t.co/ABSQWn5dwq #android, #androidgames, #gameinsight"
p2
sS'Created At'
p3
S'2015-11-28 20:20:52'
p4
s.(dp0
S'Text'
p1
S"I've harvested 602 of food!  https://t.co/d79e3XUwOO #android, #androidgames, #gameinsight"
p2
sS'Created At'
p3
S'2015-11-28 20:20:53'
p4
s.(dp0
S'Text'
p1
S"New Victoria's Secret PINK In Ear Buds Headphones iPhone iPod RARE FIND!!  - Bid Now! Only\xe2\x80\xa6 https://t.co/J82tsoqpoG https://t.co/TLzl0NXc5l"
p2
sS'Created At'
p3
S'2015-11-28 20:20:53'
p4
s.(dp0
S'Text'
p1
S'I have Forester`s Hut on my island! Now my island is even more awesome!  https://t.co/XoAyrwZgzm #android, #androidgames, #gameinsight'
p2
sS'Created At'
p3
S'2015-11-28 20:20:53'
p4
s.(dp0
S'Text'
p1
S"I've harvested 1,030 of food!  https://t.co/rnqjEwlTNK #android, #androidgames, #gameinsight"
p2
sS'Created At'
p3
S'2015-11-28 20:20:54'
p4
s.(dp0
S'Text'
p1
S"I'm using WhatsApp+ by @unlimapps for iOS to add new features to WhatsApp! https://t.co/x8yw0BrqEQ"
p2
sS'Created At'
p3
S'2015-11-28 20:20:54'
p4
s.(dp0
S'Text'
p1
S"I've finished the Construction Runes quest! Are you able to fulfil the same task? https://t.co/TvwWIKMnBa #android,#androidgames,#game..."
p2
sS'Created At'
p3
S'2015-11-28 20:20:54'
p4
s.(dp0
S'Text'
p1
S'RT @iOSDevFeed: Issue with expanding UITableViewCell https://t.co/NquLEfasKz #iOSDev #iOSProgramming #Xcode #Swift #iOS'
p2
sS'Created At'
p3
S'2015-11-28 20:20:54'
p4
s.(dp0
S'Text'
p1
S'Deals Today #82 : https://t.co/9TSUWKEFjz Apple iPhone 4S 8GB - Black or White Unlocked Verizon AT&amp;T T-Mobile Smar\xe2\x80\xa6 https://t.co/iOf0l6LbS7'
p2
sS'Created At'
p3
S'2015-11-28 20:20:54'
p4
s.(dp0
S'Text'
p1
S'RT @iOSDevFeed2: Issue with expanding UITableViewCell https://t.co/Vmd9mGDL20 #iOSDev #iOSProgramming #Xcode #Swift #iOS'
p2
sS'Created At'
p3
S'2015-11-28 20:20:54'
p4
s.(dp0
S'Text'
p1
S"I've collected 21,600 gold coins!  https://t.co/KymgFX2eiy #android, #androidgames, #gameinsight"
p2
sS'Created At'
p3
S'2015-11-28 20:20:54'
p4
s.(dp0
S'Text'
p1
S'RT @TopSEOWordPress: The Most Complete Android Style Icon set: 15000 icons (android standards) #Free https://t.co/d26nagx0GA'
p2
sS'Created At'
p3
S'2015-11-28 20:20:55'
p4
s.(dp0
S'Text'
p1
S'Online Games - https://t.co/gBO6tZU6hk - Play Number of Free #Online #Games - #Action - Sports - Puzzle - #iPhone https://t.co/3knhRnS5m1'
p2
sS'Created At'
p3
S'2015-11-28 20:20:55'
p4
s.(dp0
S'Text'
p1
S'RT @invasivecode: Legendary iOS Training |  January 4th in San Francisco\nhttps://t.co/N7jQXkarbY #innovation #iosdev #mobiletech https://t.\xe2\x80\xa6'
p2
sS'Created At'
p3
S'2015-11-28 20:20:55'
p4
s.(dp0
S'Text'
p1
S'Wireless Bluetooth Headset HD Voice wind Noise Headphones for Jabra  iphone HTC - Bid Now!\xe2\x80\xa6 https://t.co/l3F0hg3mIX https://t.co/8Rchxlh017'
p2
sS'Created At'
p3
S'2015-11-28 20:20:55'
p4
s.(dp0
S'Text'
p1
S"Why are iPhone 5c's so terrible"
p2
sS'Created At'
p3
S'2015-11-28 20:20:55'
p4
s.(dp0
S'Text'
p1
S'@ASOS_HeretoHelp thanks. As I say never chose the next day option just came up no option2delete it off or change.Tried on iphone n laptop :('
p2
sS'Created At'
p3
S'2015-11-28 20:20:55'
p4
s.(dp0
S'Text'
p1
S'Deals Today #82 : https://t.co/t3c0YAkPqb LG G2 D801 - 32GB - (GSM Unlocked) Android Smartphone Black / White (B) https://t.co/ntzoNS33Sb'
p2
sS'Created At'
p3
S'2015-11-28 20:20:55'
p4
s.(dp0
S'Text'
p1
S'RT @googletricks19: 5 Essential Tips and Tricks for Google Maps 2015 https://t.co/IP3GrLd0YQ #Google #GoogleMaps #android #AndroidLollipop \xe2\x80\xa6'
p2
sS'Created At'
p3
S'2015-11-28 20:20:56'
p4
s.(dp0
S'Text'
p1
S'RT @brettstagg: Get a free Amazon gift card!! Download this app https://t.co/Z2lnSASz7Y on your Android and input my invitation code b11511\xe2\x80\xa6'
p2
sS'Created At'
p3
S'2015-11-28 20:20:56'
p4
s.(dp0
S'Text'
p1
S'FAVE IF YOU HAVE AN IPHONE AND WANT TO BE IN AN IMESSAGE GC.'
p2
sS'Created At'
p3
S'2015-11-28 20:20:56'
p4
s.(dp0
S'Text'
p1
S'I just received a reward: With a spade at the ready https://t.co/WLqbdrGFku #Androidgames #Android #Gameinsight'
p2
sS'Created At'
p3
S'2015-11-28 20:20:56'
p4
s.(dp0
S'Text'
p1
S'I just received a reward: With a spade at the ready https://t.co/WLqbdrGFku #Android #Gameinsight #Androidgames'
p2
sS'Created At'
p3
S'2015-11-28 20:20:56'
p4
s.(dp0
S'Text'
p1
S'RT @AcaRossRo: RT androiddevfeed2: Creating Andriod Client for Node.js Web App https://t.co/M2J6YwEQaD #Android #AndroidDev'
p2
sS'Created At'
p3
S'2015-11-28 20:20:56'
p4
s.(dp0
S'Text'
p1
S"I've harvested 80 of food!  https://t.co/01mSm8ELVi #iphone, #iphonegames, #gameinsight"
p2
sS'Created At'
p3
S'2015-11-28 20:20:57'
p4
s.(dp0
S'Text'
p1
S'RT @AcaRossRo: Creating Andriod Client for Node.js Web App https://t.co/M2J6YwEQaD #Android #AndroidDev'
p2
sS'Created At'
p3
S'2015-11-28 20:20:57'
p4
s.(dp0
S'Text'
p1
S'RT @BieberholicFeel: iPhone 7 is way better tbh https://t.co/TscO1RoKth'
p2
sS'Created At'
p3
S'2015-11-28 20:20:57'
p4
s.(dp0
S'Text'
p1
S"I've collected 11,031 gold coins!  https://t.co/NvtqT30752 #android, #androidgames, #gameinsight"
p2
sS'Created At'
p3
S'2015-11-28 20:20:57'
p4
s.(dp0
S'Text'
p1
S'RT @androiddevfeed2: Creating Andriod Client for Node.js Web App https://t.co/CceGzsMXos #Android #AndroidDev'
p2
sS'Created At'
p3
S'2015-11-28 20:20:57'
p4
s.(dp0
S'Text'
p1
S'I have gained level 6 in The Tribez and Castlez! Can you achieve it as well? https://t.co/axJU73Gl9g #android,#androidgames,#gameinsight'
p2
sS'Created At'
p3
S'2015-11-28 20:20:57'
p4
s.(dp0
S'Text'
p1
S"I'm earning #mPLUSRewards in Ask Da Ball Android. https://t.co/0KSuQRFQ35"
p2
sS'Created At'
p3
S'2015-11-28 20:20:57'
p4
s.(dp0
S'Text'
p1
S'RT @androiddevfeed: How to manage scheduled reminders that traduce to notifications? https://t.co/pGDTRn3hRA #Android #AndroidDev'
p2
sS'Created At'
p3
S'2015-11-28 20:20:57'
p4
s.(dp0
S'Text'
p1
S'RT @ImYayaDub: iPhone 7 \xf0\x9f\x98\xb1\xf0\x9f\x98\xb1 http://t.co/geYOFGV65c'
p2
sS'Created At'
p3
S'2015-11-28 20:20:57'
p4
s.(dp0
S'Text'
p1
S"I've collected 3,200 gold coins!  https://t.co/ddxvR2ElIO #android, #androidgames, #gameinsight"
p2
sS'Created At'
p3
S'2015-11-28 20:20:57'
p4
s.(dp0
S'Text'
p1
S'I can go Boudoir! Have you already discovered this location? https://t.co/J0aIhFPovl #iPhone #iPhoneGames #GameInsight'
p2
sS'Created At'
p3
S'2015-11-28 20:20:57'
p4
s.(dp0
S'Text'
p1
S'RT @AcaRossRo: How to manage scheduled reminders that traduce to notifications? https://t.co/byVsn9J6hy #Android #AndroidDev'
p2
sS'Created At'
p3
S'2015-11-28 20:20:57'
p4
s.(dp0
S'Text'
p1
S"Microsoft's Cortana iPhone app rolls out to beta testers https://t.co/SSPfjuGYO4"
p2
sS'Created At'
p3
S'2015-11-28 20:20:57'
p4
s.(dp0
S'Text'
p1
S"I've harvested 980 of food!  https://t.co/Gc4dBa47AY #iphone, #iphonegames, #gameinsight"
p2
sS'Created At'
p3
S'2015-11-28 20:20:57'
p4
s.(dp0
S'Text'
p1
S'RT @androiddevfeed2: How to manage scheduled reminders that traduce to notifications? https://t.co/ET96SOuADn #Android #AndroidDev'
p2
sS'Created At'
p3
S'2015-11-28 20:20:58'
p4
s.(dp0
S'Text'
p1
S"RT @Dory: Why do android snapchats look like they're from the 1800's https://t.co/2XWU9JpTi5"
p2
sS'Created At'
p3
S'2015-11-28 20:20:58'
p4
s.(dp0
S'Text'
p1
S'I have Forester`s Hut on my island! Now my island is even more awesome!  https://t.co/YMnmagKKaV #iphone, #iphonegames, #gameinsight'
p2
sS'Created At'
p3
S'2015-11-28 20:20:58'
p4
s.(dp0
S'Text'
p1
S'I have Pig Farm on my island! Now my island is even more awesome!  https://t.co/YMnmagKKaV #iphone, #iphonegames, #gameinsight'
p2
sS'Created At'
p3
S'2015-11-28 20:20:58'
p4
s.(dp0
S'Text'
p1
S'RT @buildup_io: Video: "Framework Fireside Chat (#AndroidDevSummit 2015)" https://t.co/Uy4w3DB5sY #Android #AndroidDev https://t.co/R19ROVI\xe2\x80\xa6'
p2
sS'Created At'
p3
S'2015-11-28 20:20:58'
p4
s.(dp0
S'Text'
p1
S'RT @FunPinoyQuote: Top Ten Games for Android https://t.co/3V23j9Usie https://t.co/IDpvuyoKMP'
p2
sS'Created At'
p3
S'2015-11-28 20:20:58'
p4
s.(dp0
S'Text'
p1
S"I've collected 10,125 gold coins!  https://t.co/ALzTdWTfAX #android, #androidgames, #gameinsight"
p2
sS'Created At'
p3
S'2015-11-28 20:20:58'
p4
s.(dp0
S'Text'
p1
S"RT @yoifeellike: the iphone charger that doesn't quite reach"
p2
sS'Created At'
p3
S'2015-11-28 20:20:58'
p4
s.(dp0
S'Text'
p1
S'#iphone #apple Deals https://t.co/d0smVf4nqt #6298 Apple iPhone 5 - 64GB - (Factory Unlocked) Smartphone - White o\xe2\x80\xa6 https://t.co/8UObNfgOYU'
p2
sS'Created At'
p3
S'2015-11-28 20:20:58'
p4
s.(dp0
S'Text'
p1
S'#iphone #apple Deals https://t.co/iQZhk50IQQ #5663 Apple iPhone 5C - 16gb - Factory GSM Unlocked Smartphone (C) https://t.co/0C2FEletVC'
p2
sS'Created At'
p3
S'2015-11-28 20:20:59'
p4
s.(dp0
S'Text'
p1
S'@crybabyrey UH,I DONT JAVE AN IPHONE AHHA BUT IT DOESNT MATTER TO ME,WHICH EVER INE IS BESTT!!!'
p2
sS'Created At'
p3
S'2015-11-28 20:20:59'
p4
s.(dp0
S'Text'
p1
S'RT @ForbesTech: New leak reveals that Apple may soon abandon the headphone jack for the iPhone: https://t.co/cLA0mVG5Bp https://t.co/IotIHA\xe2\x80\xa6'
p2
sS'Created At'
p3
S'2015-11-28 20:20:59'
p4
s.(dp0
S'Text'
p1
S'Nice to meet Tweedledee and Tweedledum! Look for the new acquaintances in the streets of London! https://t.co/rh4gopmZib #Android'
p2
sS'Created At'
p3
S'2015-11-28 20:20:59'
p4
s.(dp0
S'Text'
p1
S'RT @BieberholicFeel: iPhone 7 is way better tbh https://t.co/TscO1RoKth'
p2
sS'Created At'
p3
S'2015-11-28 20:20:59'
p4
s.(dp0
S'Text'
p1
S'I have Coffee Tree on my island! Now my island is even more awesome!  https://t.co/mE2xJcgSWc #iphone, #iphonegames, #gameinsight'
p2
sS'Created At'
p3
S'2015-11-28 20:20:59'
p4
s.(dp0
S'Text'
p1
S'I just received a reward: Treasure Island https://t.co/WLqbdrGFku #Androidgames #Android #Gameinsight'
p2
sS'Created At'
p3
S'2015-11-28 20:20:59'
p4
s.(dp0
S'Text'
p1
S'#iphone #apple Deals https://t.co/mJrKYZVM5L #4199 Apple iPhone 5s - 16gb - Factory GSM Unlocked Smartphone (B) https://t.co/JBIKHMxg8K'
p2
sS'Created At'
p3
S'2015-11-28 20:20:59'
p4
s.(dp0
S'Text'
p1
S"Microsoft's Cortana iPhone app rolls out to beta testers https://t.co/vwfwjrTtva"
p2
sS'Created At'
p3
S'2015-11-28 20:21:00'
p4
s.(dp0
S'Text'
p1
S"RT @yoifeellike: the iphone charger that doesn't quite reach"
p2
sS'Created At'
p3
S'2015-11-28 20:21:00'
p4
s.(dp0
S'Text'
p1
S"I've harvested 315 of food!  https://t.co/cDqKVtXViG #android, #androidgames, #gameinsight"
p2
sS'Created At'
p3
S'2015-11-28 20:21:00'
p4
s.(dp0
S'Text'
p1
S'White Rear Glass Battery Cover Back Door Housing Case For iPhone 4 4G A1332 - Bid Now! Onl\xe2\x80\xa6 https://t.co/3gBiWFwCO5 https://t.co/zBvHMXgoZi'
p2
sS'Created At'
p3
S'2015-11-28 20:21:00'
p4
s.(dp0
S'Text'
p1
S"I've collected 455 gold coins!  https://t.co/cDqKVtXViG #android, #androidgames, #gameinsight"
p2
sS'Created At'
p3
S'2015-11-28 20:21:00'
p4
s.(dp0
S'Text'
p1
S'#iphone #apple Deals https://t.co/DEezfXskjt #0739 Apple iPhone 5s - 16gb - Factory GSM Unlocked Smartphone (B) https://t.co/IUpgzU5Qp0'
p2
sS'Created At'
p3
S'2015-11-28 20:21:01'
p4
s.(dp0
S'Text'
p1
S"I've harvested 160 of food!  https://t.co/lQIWyvciEH #android, #androidgames, #gameinsight"
p2
sS'Created At'
p3
S'2015-11-28 20:21:01'
p4
s.(dp0
S'Text'
p1
S'GRIND TIME https://t.co/CvbNW2CzJY #EDM #House #Mixtape #Music #Future soundcloud:source=android-3rdparty-upload https://t.co/RJNSPryLxi'
p2
sS'Created At'
p3
S'2015-11-28 20:21:01'
p4
s.(dp0
S'Text'
p1
S"I've collected 2,914 gold coins!  https://t.co/lQIWyvciEH #android, #androidgames, #gameinsight"
p2
sS'Created At'
p3
S'2015-11-28 20:21:01'
p4
s.(dp0
S'Text'
p1
S'#CODHeroes for iOS &amp; Android update: new #BlackOps3 specialists now available in game. https://t.co/DiWTiINk7t'
p2
sS'Created At'
p3
S'2015-11-28 20:21:01'
p4
s.(dp0
S'Text'
p1
S"RT @HardwareNewz: Fossil's Q Founder Android Wear watch is out now https://t.co/wmWAhDzO1h https://t.co/uVBaB3t0JB"
p2
sS'Created At'
p3
S'2015-11-28 20:21:01'
p4
s.(dp0
S'Text'
p1
S'#iphone #apple Deals https://t.co/l6UfLg92g6 #9997 Apple iPhone 5S 16GB "Factory Unlocked" Gray - Gold - Silver  S\xe2\x80\xa6 https://t.co/FYA4inKeiQ'
p2
sS'Created At'
p3
S'2015-11-28 20:21:01'
p4
s.(dp0
S'Text'
p1
S'RT @ShitChallenge: @ShitChallenge start the next step!\nGet an iPhone for free!*\nVisit: https://t.co/26lOKqRqLN https://t.co/A5ObkoNi5O'
p2
sS'Created At'
p3
S'2015-11-28 20:21:02'
p4
s.(dp0
S'Text'
p1
S'RT @mkasanm: #Cortana for iPhone Now Available For Beta Testers https://t.co/rs0P9piNVX https://t.co/VNOmmc6G8d'
p2
sS'Created At'
p3
S'2015-11-28 20:21:02'
p4
s.(dp0
S'Text'
p1
S'RT @AmazeGear: For my actives this \xe2\x9d\xa4\xef\xb8\x8f RT + Follow @Rxnzoo for your chance to win this iPhone!\n\nWinner in 1 Hour! https://t.co/5oM9EMvdfl'
p2
sS'Created At'
p3
S'2015-11-28 20:21:02'
p4
s.(dp0
S'Text'
p1
S'RT HostinWeb Google Photos for Android now lets you hide specific people https://t.co/hFzxDIl3OV #domains #coupon #Sale #webdev #appdev #k\xe2\x80\xa6'
p2
sS'Created At'
p3
S'2015-11-28 20:21:02'
p4
s.(dp0
S'Text'
p1
S'RT @ForbesTech: New leak reveals that Apple may soon abandon the headphone jack for the iPhone: https://t.co/cLA0mVG5Bp https://t.co/IotIHA\xe2\x80\xa6'
p2
sS'Created At'
p3
S'2015-11-28 20:21:02'
p4
s.(dp0
S'Text'
p1
S'Silk Leather Wallet Stand Case Cover For Apple iPhone 4 4G 4S Luxury Slot Slim - Bid Now! \xe2\x80\xa6 https://t.co/pDN2bJbLJo https://t.co/yEFfXcYaoF'
p2
sS'Created At'
p3
S'2015-11-28 20:21:02'
p4
s.(dp0
S'Text'
p1
S"@Skype Guys, a question: Isn't it possible to send video files saved on iPhone's photos or @onedrive to Skype chats? Only pics are allowed?"
p2
sS'Created At'
p3
S'2015-11-28 20:21:02'
p4
s.(dp0
S'Text'
p1
S'Apple iPhone 4s - 16GB - Black (Unlocked) w/Case Verizon Straight Talk EXCELLENT - Bid Now\xe2\x80\xa6 https://t.co/1eZdctszGY https://t.co/UuPqEy8mdr'
p2
sS'Created At'
p3
S'2015-11-28 20:21:02'
p4
s.(dp0
S'Text'
p1
S"RT @OluseyiSTN: Maybe ihaven't found a Boo because I didn't have an iPhone 2 years ago  https://t.co/qLL0g7uvCd"
p2
sS'Created At'
p3
S'2015-11-28 20:21:02'
p4
s.(dp0
S'Text'
p1
S'#iphone #apple Deals https://t.co/OHPq9NnMxK #9205 Apple iPhone 4S 16GB "Factory Unlocked" Black and White Smartph\xe2\x80\xa6 https://t.co/Z5jdvKnZYv'
p2
sS'Created At'
p3
S'2015-11-28 20:21:02'
p4
s.(dp0
S'Text'
p1
S'I find it really disrespectful when someone with a dead Android decides to send me a video on Snapchat. Sending me pixels I cba'
p2
sS'Created At'
p3
S'2015-11-28 20:21:03'
p4
s.(dp0
S'Text'
p1
S'Apple iPhone 4s - 8GB - Black (Verizon) Smartphone - UNLOCKED W/Otter Black Case - Bid Now\xe2\x80\xa6 https://t.co/oH9KdolASH https://t.co/rxvN0kKH2I'
p2
sS'Created At'
p3
S'2015-11-28 20:21:03'
p4
s.(dp0
S'Text'
p1
S"I've collected 800 gold coins!  https://t.co/eWaSHncjo3 #android, #androidgames, #gameinsight"
p2
sS'Created At'
p3
S'2015-11-28 20:21:03'
p4
s.(dp0
S'Text'
p1
S'I have Quarry on my island! Now my island is even more awesome!  https://t.co/HWt4Pib6jj #android, #androidgames, #gameinsight'
p2
sS'Created At'
p3
S'2015-11-28 20:21:03'
p4
s.(dp0
S'Text'
p1
S"RT @Dory: Why do android snapchats look like they're from the 1800's https://t.co/2XWU9JpTi5"
p2
sS'Created At'
p3
S'2015-11-28 20:21:03'
p4
s.(dp0
S'Text'
p1
S'I have Bathhouse on my island! Now my island is even more awesome!  https://t.co/HWt4Pib6jj #android, #androidgames, #gameinsight'
p2
sS'Created At'
p3
S'2015-11-28 20:21:03'
p4
s.(dp0
S'Text'
p1
S"I've collected 608 gold coins!  https://t.co/gxvxJvzC8e #android, #androidgames, #gameinsight"
p2
sS'Created At'
p3
S'2015-11-28 20:21:03'
p4
s.(dp0
S'Text'
p1
S"I've harvested 30 of food!  https://t.co/gxvxJvzC8e #android, #androidgames, #gameinsight"
p2
sS'Created At'
p3
S'2015-11-28 20:21:03'
p4
s.(dp0
S'Text'
p1
S'If only their was a solid black iPhone \xf0\x9f\x8c\x9a'
p2
sS'Created At'
p3
S'2015-11-28 20:21:03'
p4
s.(dp0
S'Text'
p1
S'RT @TMFAeassa: My iPhone 6s Plus has a TSMC chip!'
p2
sS'Created At'
p3
S'2015-11-28 20:21:04'
p4
s.(dp0
S'Text'
p1
S'I have Warehouse on my island! Now my island is even more awesome!  https://t.co/5mt7LFRZkR #iphone, #iphonegames, #gameinsight'
p2
sS'Created At'
p3
S'2015-11-28 20:21:04'
p4
s.(dp0
S'Text'
p1
S'\xf0\x9f\x91\x8d#SmartWatch Best #Bluetooth EDR Smart Watch U8 for #iPhone Samsung HTC Sony #Android\xe2\x80\xa6 https://t.co/cxn0IBrO5X https://t.co/d4V0nNjdYk'
p2
sS'Created At'
p3
S'2015-11-28 20:21:04'
p4
s.(dp0
S'Text'
p1
S'4 million iOS coin giveaway!\n\nRt and follow us to enter\n\nWinner in 3 hrs  https://t.co/yYLoXkEyU7'
p2
sS'Created At'
p3
S'2015-11-28 20:21:04'
p4
s.(dp0
S'Text'
p1
S'Adobe: Thanksgiving and Black Friday online sales up 18%, iOS numbers almost triple Android\xe2\x80\x99s::https://t.co/vwj4VkEOzH'
p2
sS'Created At'
p3
S'2015-11-28 20:21:04'
p4
s.(dp0
S'Text'
p1
S"I've harvested 1,022 of food!  https://t.co/HMGyvyZD6W #android, #androidgames, #gameinsight"
p2
sS'Created At'
p3
S'2015-11-28 20:21:04'
p4
s.(dp0
S'Text'
p1
S'RT @Cute_Cravings: \xf0\x9f\x8e\x84 SATURDAY SALE \xf0\x9f\x8e\x84\n\nOur Holiday Glitter Phone Cases are on Sale!!\n\nEnds TONIGHT! \xe2\x9b\x84\xef\xb8\x8f\xf0\x9f\x8e\x80\n\n\xf0\x9f\x91\x89\xf0\x9f\x8f\xbchttps://t.co/b6G9g6hAh5\xf0\x9f\x91\x88\xf0\x9f\x8f\xbc https:/\xe2\x80\xa6'
p2
sS'Created At'
p3
S'2015-11-28 20:21:05'
p4
s.(dp0
S'Text'
p1
S"I've collected 20,698 gold coins!  https://t.co/uyyQXQgpOJ #android, #androidgames, #gameinsight"
p2
sS'Created At'
p3
S'2015-11-28 20:21:05'
p4
s.(dp0
S'Text'
p1
S'RT @charlieINTEL: #CODHeroes for iOS &amp; Android update: new #BlackOps3 specialists now available in game. https://t.co/DiWTiINk7t'
p2
sS'Created At'
p3
S'2015-11-28 20:21:05'
p4
s.(dp0
S'Text'
p1
S'Instagram tests multiple account support on Android https://t.co/dhRyK74qlW'
p2
sS'Created At'
p3
S'2015-11-28 20:21:05'
p4
s.(dp0
S'Text'
p1
S'RT @charlieINTEL: #CODHeroes for iOS &amp; Android update: new #BlackOps3 specialists now available in game. https://t.co/DiWTiINk7t'
p2
sS'Created At'
p3
S'2015-11-28 20:21:05'
p4
s.(dp0
S'Text'
p1
S'[Question] How to reset iphone without the pass code or iCloud https://t.co/JgjfAKABRS'
p2
sS'Created At'
p3
S'2015-11-28 20:21:06'
p4
s.(dp0
S'Text'
p1
S"RT @heyifeellike: the iphone charger that doesn't quite reach"
p2
sS'Created At'
p3
S'2015-11-28 20:21:06'
p4
s.(dp0
S'Text'
p1
S"I've finished the Urban Facades quest! Are you able to fulfil the same task? https://t.co/IFIJ87LIps #android,#androidgames,#gameinsight"
p2
sS'Created At'
p3
S'2015-11-28 20:21:06'
p4
s.(dp0
S'Text'
p1
S'COOL GIVEAWAY CALLED 4 million iOS coin giveaway!\n\nRt and follow us to enter\n\nWinner in 3 hrs  https://t.co/97mvliJVL1'
p2
sS'Created At'
p3
S'2015-11-28 20:21:06'
p4
s.(dp0
S'Text'
p1
S"I've collected 1,970 gold coins!  https://t.co/fIDQSMSafQ #android, #androidgames, #gameinsight"
p2
sS'Created At'
p3
S'2015-11-28 20:21:06'
p4
s.(dp0
S'Text'
p1
S"I've collected 12,325 gold coins!  https://t.co/9DNW1d9Ano #android, #androidgames, #gameinsight"
p2
sS'Created At'
p3
S'2015-11-28 20:21:06'
p4
s.(dp0
S'Text'
p1
S'Get Paradise Island for free on Android! Join my friends! https://t.co/PgiuP22FJs #Androidgames #Gameinsight #Android'
p2
sS'Created At'
p3
S'2015-11-28 20:21:06'
p4
s.(dp0
S'Text'
p1
S"I've harvested 160 of food!  https://t.co/fIDQSMSafQ #android, #androidgames, #gameinsight"
p2
sS'Created At'
p3
S'2015-11-28 20:21:07'
p4
s.(dp0
S'Text'
p1
S'RT @charlieINTEL: #CODHeroes for iOS &amp; Android update: new #BlackOps3 specialists now available in game. https://t.co/DiWTiINk7t'
p2
sS'Created At'
p3
S'2015-11-28 20:21:07'
p4
s.(dp0
S'Text'
p1
S"I earned 3-Stars in Lords League! Join me in Clash of Lords 2 and we'll smash some enemies together! https://t.co/FScho7E2Qi"
p2
sS'Created At'
p3
S'2015-11-28 20:21:07'
p4
s.(dp0
S'Text'
p1
S'\xf0\x9f\x93\xb7 apple-i-phone: New iOS 9 gonna be available on September 16 for the same devices that support iOS 8 \xc2\xa0... https://t.co/VuXaPWsMqw'
p2
sS'Created At'
p3
S'2015-11-28 20:21:07'
p4
s.(dp0
S'Text'
p1
S'New leak reveals that Apple may soon abandon the headphone jack for the iPhone: https://t.co/EZEDUeNv0Q https://t.co/Mm0fDbGZih #ForbesTe\xe2\x80\xa6'
p2
sS'Created At'
p3
S'2015-11-28 20:21:07'
p4
s.(dp0
S'Text'
p1
S'#AppleVisForumReply: Which smart thermostats have accessible iOS apps? - https://t.co/XdGzoGycla'
p2
sS'Created At'
p3
S'2015-11-28 20:21:07'
p4
s.(dp0
S'Text'
p1
S"I've harvested 1,025 of food!  https://t.co/6vWjffBfkx #android, #androidgames, #gameinsight"
p2
sS'Created At'
p3
S'2015-11-28 20:21:08'
p4
s.(dp0
S'Text'
p1
S'I have Altar of Feelings on my island! Now my island is even more awesome!  https://t.co/HWt4Pib6jj #android, #androidgames, #gameinsight'
p2
sS'Created At'
p3
S'2015-11-28 20:21:08'
p4
s.(dp0
S'Text'
p1
S'OK Google for Android Might Be Getting Offline Voice Commands #Google+tips #Google https://t.co/FUN9RkrmqP'
p2
sS'Created At'
p3
S'2015-11-28 20:21:08'
p4
s.(dp0
S'Text'
p1
S'RT @charlieINTEL: #CODHeroes for iOS &amp; Android update: new #BlackOps3 specialists now available in game. https://t.co/DiWTiINk7t'
p2
sS'Created At'
p3
S'2015-11-28 20:21:08'
p4
s.(dp0
S'Text'
p1
S"Retweet if you're team iPhone"
p2
sS'Created At'
p3
S'2015-11-28 20:21:08'
p4
s.(dp0
S'Text'
p1
S'Morning and Evening Images for android\nPlease download, rate, and share.\n\nhttps://t.co/TpRT4KbIy4'
p2
sS'Created At'
p3
S'2015-11-28 20:21:08'
p4
s.(dp0
S'Text'
p1
S"I've harvested 270 of food!  https://t.co/7spuSFyjeE #android, #androidgames, #gameinsight"
p2
sS'Created At'
p3
S'2015-11-28 20:21:09'
p4
s.(dp0
S'Text'
p1
S'#iphone #apple Deals https://t.co/F34tAe4Adb #8158 Apple iPhone 5 16GB Factory Unlocked Black or White Smartphone https://t.co/q3YxkV976W'
p2
sS'Created At'
p3
S'2015-11-28 20:21:09'
p4
s.(dp0
S'Text'
p1
S"I've collected 11,380 gold coins!  https://t.co/eBt2XNH1ml #android, #androidgames, #gameinsight"
p2
sS'Created At'
p3
S'2015-11-28 20:21:09'
p4
s.(dp0
S'Text'
p1
S'30 users just unfollowed me. Via @FindUnfollower https://t.co/rfSxBVeARW. #iPhone #App'
p2
sS'Created At'
p3
S'2015-11-28 20:21:09'
p4
s.(dp0
S'Text'
p1
S'RT @charlieINTEL: #CODHeroes for iOS &amp; Android update: new #BlackOps3 specialists now available in game. https://t.co/DiWTiINk7t'
p2
sS'Created At'
p3
S'2015-11-28 20:21:09'
p4
s.(dp0
S'Text'
p1
S'I finished the "Participate in ..." task in Big Business Deluxe for Android! https://t.co/ff77Q5AL9b #Androidgames #Gameinsight #Android'
p2
sS'Created At'
p3
S'2015-11-28 20:21:09'
p4
s.(dp0
S'Text'
p1
S"Having buyers remorse. How can I trade my iPhone for another phone if I'm stuck on a contract? https://t.co/MLa4XiJ2M2"
p2
sS'Created At'
p3
S'2015-11-28 20:21:09'
p4
s.(dp0
S'Text'
p1
S'RT @nilofer: Cultivate intense, thick communities and society wins.   https://t.co/HUADLIGfsM'
p2
sS'Created At'
p3
S'2015-11-28 20:21:10'
p4
s.(dp0
S'Text'
p1
S"I've collected 3,563 gold coins!  https://t.co/g8y7lrwr5k #android, #androidgames, #gameinsight"
p2
sS'Created At'
p3
S'2015-11-28 20:21:10'
p4
s.(dp0
S'Text'
p1
S"I've harvested 682 of food!  https://t.co/g8y7lrwr5k #android, #androidgames, #gameinsight"
p2
sS'Created At'
p3
S'2015-11-28 20:21:10'
p4
s.(dp0
S'Text'
p1
S"I've finished the New Fields quest! Are you able to fulfil the same task? https://t.co/yuikVhXTW1 #android,#androidgames,#gameinsight"
p2
sS'Created At'
p3
S'2015-11-28 20:21:10'
p4
s.(dp0
S'Text'
p1
S'#iphone #apple Deals https://t.co/jtGQCJxTrC #6507 * NEW *** APPLE iPhone 4S - 16GB - White - GSM Factory Unlocked\xe2\x80\xa6 https://t.co/iwAyddfOnj'
p2
sS'Created At'
p3
S'2015-11-28 20:21:09'
p4
s.(dp0
S'Text'
p1
S'RT @charlieINTEL: #CODHeroes for iOS &amp; Android update: new #BlackOps3 specialists now available in game. https://t.co/DiWTiINk7t'
p2
sS'Created At'
p3
S'2015-11-28 20:21:10'
p4
s.(dp0
S'Text'
p1
S'#iphone #apple Deals https://t.co/qTuvTwemZo #0176 #8566 NEW AUTHENTIC Apple iPhone 5 and 5S LEATHER Case Cover... https://t.co/WlRlgilYzR'
p2
sS'Created At'
p3
S'2015-11-28 20:21:09'
p4
s.(dp0
S'Text'
p1
S'Download the #ScunthorpeUnited Fan App for iOS https://t.co/GMmai2nE1R &amp; Android https://t.co/aGGiW2SdUh FREE! https://t.co/udWRTo9EJA'
p2
sS'Created At'
p3
S'2015-11-28 20:21:10'
p4
s.(dp0
S'Text'
p1
S'Nice to meet Isabella Bellini! Look for the new acquaintances in the streets of London! https://t.co/rh4gopmZib #Android #AndroidGames'
p2
sS'Created At'
p3
S'2015-11-28 20:21:10'
p4
s.(dp0
S'Text'
p1
S'RT @charlieINTEL: #CODHeroes for iOS &amp; Android update: new #BlackOps3 specialists now available in game. https://t.co/DiWTiINk7t'
p2
sS'Created At'
p3
S'2015-11-28 20:21:10'
p4
s.(dp0
S'Text'
p1
S'#iphone #apple Deals https://t.co/6OrqOOmKON #6479 Apple iPhone 5s - 16GB - Silver (Factory Unlocked) Smartphone B\xe2\x80\xa6 https://t.co/mSY4lID4Z7'
p2
sS'Created At'
p3
S'2015-11-28 20:21:10'
p4
s.(dp0
S'Text'
p1
S"I'm using Instagram++ for iOS by @unlimapps to add new features to Instagram! https://t.co/cqOOT11Osg"
p2
sS'Created At'
p3
S'2015-11-28 20:21:10'
p4
s.(dp0
S'Text'
p1
S'#Iphone 7 Design\xc2\xa0News https://t.co/AgGnx90E56'
p2
sS'Created At'
p3
S'2015-11-28 20:21:10'
p4
s.(dp0
S'Text'
p1
S'Download the Southampton Fan App for iOS https://t.co/x1DtEC3mVc &amp; Android https://t.co/rNXYhbSPbZ https://t.co/XS4Jq0zvMp'
p2
sS'Created At'
p3
S'2015-11-28 20:21:10'
p4
s.(dp0
S'Text'
p1
S'RT @Cute_Cravings: \xf0\x9f\x8e\x84 SATURDAY SALE \xf0\x9f\x8e\x84\n\nOur Holiday Glitter Phone Cases are on Sale!!\n\nEnds TONIGHT! \xe2\x9b\x84\xef\xb8\x8f\xf0\x9f\x8e\x80\n\n\xf0\x9f\x91\x89\xf0\x9f\x8f\xbchttps://t.co/b6G9g6hAh5\xf0\x9f\x91\x88\xf0\x9f\x8f\xbc https:/\xe2\x80\xa6'
p2
sS'Created At'
p3
S'2015-11-28 20:21:11'
p4
s.(dp0
S'Text'
p1
S'#iphone #apple Deals https://t.co/XOmL4j0Yhx #0557 Apple iPhone 4S 16GB GSM Factory Unlocked Smartphone Black or W\xe2\x80\xa6 https://t.co/lQrdT1J1Vx'
p2
sS'Created At'
p3
S'2015-11-28 20:21:11'
p4
s.(dp0
S'Text'
p1
S'#iphone #apple Deals https://t.co/gewjnhQEix #9003 #4156  OtterBox Commuter &amp; Defender   Case  For  iPhone 5 C ... https://t.co/0AktmbvoO3'
p2
sS'Created At'
p3
S'2015-11-28 20:21:11'
p4
s.(dp0
S'Text'
p1
S'Hey I just won a race in #CSRRacing for iOS #winning! You should check it out for FREE!\nhttps://t.co/vPRX0c4BrT https://t.co/RHOANHA8YP'
p2
sS'Created At'
p3
S'2015-11-28 20:21:11'
p4
s.(dp0
S'Text'
p1
S"I've harvested 320 of food!  https://t.co/01mSm8ELVi #iphone, #iphonegames, #gameinsight"
p2
sS'Created At'
p3
S'2015-11-28 20:21:11'
p4
s.(dp0
S'Text'
p1
S'#iphone #apple Deals https://t.co/FnJxZBPkSj #2300 Apple iPhone 4s 16GB Smartphone AT&amp;T Factory Unlocked https://t.co/h3Lq2EqyZx'
p2
sS'Created At'
p3
S'2015-11-28 20:21:11'
p4
s.(dp0
S'Text'
p1
S"RT @turleymuller: Apple's iOS clenches 78.3% of U.S. mobile online shopping over Thanksgiving, 360% more than Android https://t.co/qGJIe41E\xe2\x80\xa6"
p2
sS'Created At'
p3
S'2015-11-28 20:21:11'
p4
s.(dp0
S'Text'
p1
S"I've collected 891 gold coins!  https://t.co/uItFcU3b3Z #android, #androidgames, #gameinsight"
p2
sS'Created At'
p3
S'2015-11-28 20:21:11'
p4
s.(dp0
S'Text'
p1
S"I've harvested 626 of food!  https://t.co/HWt4Pib6jj #android, #androidgames, #gameinsight"
p2
sS'Created At'
p3
S'2015-11-28 20:21:12'
p4
s.(dp0
S'Text'
p1
S'#iphone #apple Deals https://t.co/KXTDyKRT72 #5849 #6034 Portable 10400mAh Dual USB Battery Power Bank Charger For\xe2\x80\xa6 https://t.co/nnSe1LCIDk'
p2
sS'Created At'
p3
S'2015-11-28 20:21:12'
p4
s.(dp0
S'Text'
p1
S"I'm earning #mPLUSRewards in Guess Da Number iOS. https://t.co/EJagG1vOdX"
p2
sS'Created At'
p3
S'2015-11-28 20:21:12'
p4
s.(dp0
S'Text'
p1
S'5 Why Sell Your Iphone\xc2\xa04S https://t.co/Ui6fhNPCdG https://t.co/tLE6wQ5KLI'
p2
sS'Created At'
p3
S'2015-11-28 20:21:12'
p4
s.(dp0
S'Text'
p1
S"I've collected 2,256 gold coins!  https://t.co/HWt4Pib6jj #android, #androidgames, #gameinsight"
p2
sS'Created At'
p3
S'2015-11-28 20:21:12'
p4
s.(dp0
S'Text'
p1
S'#iphone #apple Deals https://t.co/1y1VXWkBDu #6492 Apple iPhone 5 (Factory Unlocked) AT&amp;T T-Mobile Verizon Sprint \xe2\x80\xa6 https://t.co/jsA13hE1Ym'
p2
sS'Created At'
p3
S'2015-11-28 20:21:12'
p4
s.(dp0
S'Text'
p1
S"I've harvested 1,330 of food!  https://t.co/1PmGT6hmKQ #android, #androidgames, #gameinsight"
p2
sS'Created At'
p3
S'2015-11-28 20:21:12'
p4
s.(dp0
S'Text'
p1
S"RT @Dory: Why do android snapchats look like they're from the 1800's https://t.co/2XWU9JpTi5"
p2
sS'Created At'
p3
S'2015-11-28 20:21:12'
p4
s.(dp0
S'Text'
p1
S'RT @charlieINTEL: #CODHeroes for iOS &amp; Android update: new #BlackOps3 specialists now available in game. https://t.co/DiWTiINk7t'
p2
sS'Created At'
p3
S'2015-11-28 20:21:13'
p4
s.(dp0
S'Text'
p1
S'#iphone #apple Deals https://t.co/D8jpuwXFCF #5277 #6302 Apple iPhone 4  16GB Black &amp; White AT&amp;T Unlocked... https://t.co/OiEW73jK3n'
p2
sS'Created At'
p3
S'2015-11-28 20:21:12'
p4
s.(dp0
S'Text'
p1
S"RT @Dory: Why do android snapchats look like they're from the 1800's https://t.co/2XWU9JpTi5"
p2
sS'Created At'
p3
S'2015-11-28 20:21:13'
p4
s.(dp0
S'Text'
p1
S"I've harvested 270 of food!  https://t.co/uItFcU3b3Z #android, #androidgames, #gameinsight"
p2
sS'Created At'
p3
S'2015-11-28 20:21:13'
p4
s.(dp0
S'Text'
p1
S'RT @AmazeGear: For my actives this \xe2\x9d\xa4\xef\xb8\x8f RT + Follow @Rxnzoo for your chance to win this iPhone!\n\nWinner in 1 Hour! https://t.co/5oM9EMvdfl'
p2
sS'Created At'
p3
S'2015-11-28 20:21:13'
p4
s.(dp0
S'Text'
p1
S"I'm earning #mPLUSRewards in Guess Da Number Android. https://t.co/0OJ7l5k0f8"
p2
sS'Created At'
p3
S'2015-11-28 20:21:13'
p4
s.(dp0
S'Text'
p1
S'@fathimakb There is 2 Contest running. A Dual Core Android Tablet and Canon Inkjet Colour Printer For More go to https://t.co/uYcICsJKmk'
p2
sS'Created At'
p3
S'2015-11-28 20:21:13'
p4
s.(dp0
S'Text'
p1
S"I've harvested 803 of food!  https://t.co/2zQvZCYYaI #android, #androidgames, #gameinsight"
p2
sS'Created At'
p3
S'2015-11-28 20:21:13'
p4
s.(dp0
S'Text'
p1
S"The Kingdom's citizens are happy to have Guard Booth! Try to build it too! https://t.co/axJU73Gl9g #android,#androidgames,#gameinsight"
p2
sS'Created At'
p3
S'2015-11-28 20:21:14'
p4
s.(dp0
S'Text'
p1
S'#iphone #apple Deals https://t.co/WeUvvhT9S3 #6079 #5559 USB flash drives i-Flash Drive TF SD Card Reader for... https://t.co/voGJHsb3AA'
p2
sS'Created At'
p3
S'2015-11-28 20:21:14'
p4
s.(dp0
S'Text'
p1
S'RT @charlieINTEL: #CODHeroes for iOS &amp; Android update: new #BlackOps3 specialists now available in game. https://t.co/DiWTiINk7t'
p2
sS'Created At'
p3
S'2015-11-28 20:21:14'
p4
s.(dp0
S'Text'
p1
S"I've harvested 557 of food!  https://t.co/XASQaFtxpE #android, #androidgames, #gameinsight"
p2
sS'Created At'
p3
S'2015-11-28 20:21:14'
p4
s.(dp0
S'Text'
p1
S"I've collected 173,138 gold coins!  https://t.co/ALzTdWTfAX #android, #androidgames, #gameinsight"
p2
sS'Created At'
p3
S'2015-11-28 20:21:14'
p4
s.(dp0
S'Text'
p1
S"I've collected 2,354 gold coins!  https://t.co/XASQaFtxpE #android, #androidgames, #gameinsight"
p2
sS'Created At'
p3
S'2015-11-28 20:21:14'
p4
s.(dp0
S'Text'
p1
S"I've finished the Old Junk quest! Are you able to fulfil the same task? https://t.co/7btugQbLEg #android,#androidgames,#gameinsight"
p2
sS'Created At'
p3
S'2015-11-28 20:21:15'
p4
s.(dp0
S'Text'
p1
S'#iphone #apple Deals https://t.co/N4qQGdb4PE #6811 #7709 Premium USB Power Adapter USB Wall Charger FOR iPhone 4S \xe2\x80\xa6 https://t.co/2NZ9hUAs5a'
p2
sS'Created At'
p3
S'2015-11-28 20:21:15'
p4
s.(dp0
S'Text'
p1
S'Best Black Friday deals 2015 UK live blog: Apple, Mac, iPad &amp;amp;amp; iPhone deals * 98 https://t.co/pb3yku53IP'
p2
sS'Created At'
p3
S'2015-11-28 20:21:16'
p4
s.(dp0
S'Text'
p1
S'#iphone #apple Deals https://t.co/ihNok1YgFo #4361 #6142 i-Flash Drive USB External TF/SD Card Reader for iPhone 5\xe2\x80\xa6 https://t.co/HAzMMUSoqS'
p2
sS'Created At'
p3
S'2015-11-28 20:21:15'
p4
s.(dp0
S'Text'
p1
S'I just gained 18 new followers using this awesome #iPhone #app @twigrow:https://t.co/n9gt0rBMZI'
p2
sS'Created At'
p3
S'2015-11-28 20:21:16'
p4
s.(dp0
S'Text'
p1
S'Why is the battery bar on the iPhone now yellow instead of green?!'
p2
sS'Created At'
p3
S'2015-11-28 20:21:17'
p4
s.(dp0
S'Text'
p1
S"I've collected 36,435 gold coins!  https://t.co/AgBI4PICgd #android, #androidgames, #gameinsight"
p2
sS'Created At'
p3
S'2015-11-28 20:21:18'
p4
s.(dp0
S'Text'
p1
S"I've collected 205 gold coins!  https://t.co/47BaV0XCo9 #android, #androidgames, #gameinsight"
p2
sS'Created At'
p3
S'2015-11-28 20:21:18'
p4
s.(dp0
S'Text'
p1
S"I've harvested 540 of food!  https://t.co/47BaV0XCo9 #android, #androidgames, #gameinsight"
p2
sS'Created At'
p3
S'2015-11-28 20:21:18'
p4
s.(dp0
S'Text'
p1
S"I've finished the Old Junk quest! Are you able to fulfil the same task? https://t.co/0nZFYjxFzR #android,#androidgames,#gameinsight"
p2
sS'Created At'
p3
S'2015-11-28 20:21:18'
p4
s.(dp0
S'Text'
p1
S'RT @Thurrottfeed: First Version of Cortana for iOS is Rolling Out to Testers - https://t.co/CmFdYjNwbN https://t.co/s3E0X9T7Yo'
p2
sS'Created At'
p3
S'2015-11-28 20:21:18'
p4
s.(dp0
S'Text'
p1
S"RT @anteggs49: @Emahbea @aozora_aonami @IainMac9 @callboymick @MrsVB @BBCAllegra PC , iPad Air , iPhone , laptop, &amp; a tablet - god I'm a gr\xe2\x80\xa6"
p2
sS'Created At'
p3
S'2015-11-28 20:21:18'
p4
s.(dp0
S'Text'
p1
S'RT @KhantBeBothered: I find it really disrespectful when someone with a dead Android decides to send me a video on Snapchat. Sending me pix\xe2\x80\xa6'
p2
sS'Created At'
p3
S'2015-11-28 20:21:18'
p4
s.(dp0
S'Text'
p1
S'Miss my iphone so much\n\xf0\x9f\x98\xad\xf0\x9f\x98\xad\xf0\x9f\x98\xb0'
p2
sS'Created At'
p3
S'2015-11-28 20:21:19'
p4
s.(dp0
S'Text'
p1
S'RT @ForbesTech: New leak reveals that Apple may soon abandon the headphone jack for the iPhone: https://t.co/cLA0mVG5Bp https://t.co/IotIHA\xe2\x80\xa6'
p2
sS'Created At'
p3
S'2015-11-28 20:21:19'
p4
s.(dp0
S'Text'
p1
S'I entered an area November 28, 2015 at 09:21PM via Android https://t.co/MRgaltxYjo'
p2
sS'Created At'
p3
S'2015-11-28 20:21:19'
p4
s.(dp0
S'Text'
p1
S'RT @YupThatExist: Tips for iPhone users. https://t.co/VD5hizVqD3'
p2
sS'Created At'
p3
S'2015-11-28 20:21:19'
p4
s.(dp0
S'Text'
p1
S"I've collected 33,642 gold coins!  https://t.co/ddxvR2ElIO #android, #androidgames, #gameinsight"
p2
sS'Created At'
p3
S'2015-11-28 20:21:19'
p4
s.(dp0
S'Text'
p1
S'RT @icasnetwork2015: https://t.co/Ax1VqJuDEr Android M Coming soon - ICas @icasnetwork2015'
p2
sS'Created At'
p3
S'2015-11-28 20:21:20'
p4
s.(dp0
S'Text'
p1
S'#Awesome #App \xe2\x80\x93 8 awesome paid iPhone apps on sale for free for a limited time \xe2\x80\x93 Welcome t... https://t.co/IX1ki9iUZm - #Tech #Technology'
p2
sS'Created At'
p3
S'2015-11-28 20:21:20'
p4
s.(dp0
S'Text'
p1
S'*Goes to Europe once*\n\n*changes iPhone to military time*'
p2
sS'Created At'
p3
S'2015-11-28 20:21:20'
p4
s.(dp0
S'Text'
p1
S"I've finished the The First Pie\xe2\x80\x99s On Me! quest! Are you able to fulfil the same task? https://t.co/IWdCs0uxP1 #android,#androidgames,#..."
p2
sS'Created At'
p3
S'2015-11-28 20:21:21'
p4
s.(dp0
S'Text'
p1
S"RT @heyifeellike: the iphone charger that doesn't quite reach"
p2
sS'Created At'
p3
S'2015-11-28 20:21:21'
p4
s.(dp0
S'Text'
p1
S"I've collected 162,008 gold coins!  https://t.co/d79e3Yc7Gm #android, #androidgames, #gameinsight"
p2
sS'Created At'
p3
S'2015-11-28 20:21:21'
p4
s.(dp0
S'Text'
p1
S'Just sat to pee so I didnt have to go 15 seconds without staring at my iPhone.'
p2
sS'Created At'
p3
S'2015-11-28 20:21:21'
p4
s.(dp0
S'Text'
p1
S'@visionelie "21 mind-blowing tricks to get professional level iPhone photos!"'
p2
sS'Created At'
p3
S'2015-11-28 20:21:23'
p4
s.(dp0
S'Text'
p1
S"RT @xamarinhq: Xamarin's @JamesMontemagno shows you how to add Material Design to your app with the Android Support Design Library: https:/\xe2\x80\xa6"
p2
sS'Created At'
p3
S'2015-11-28 20:21:23'
p4
s.(dp0
S'Text'
p1
S"RT @yoifeellike: the iphone charger that doesn't quite reach"
p2
sS'Created At'
p3
S'2015-11-28 20:21:23'
p4
s.(dp0
S'Text'
p1
S'I have gained level 11 in The Tribez and Castlez! Can you achieve it as well? https://t.co/IWdCs0uxP1 #android,#androidgames,#gameinsight'
p2
sS'Created At'
p3
S'2015-11-28 20:21:23'
p4
s.(dp0
S'Text'
p1
S'Iphone demand denouement: apple pertaining to new-fashioned age group eyes: IJgCeuQnd'
p2
sS'Created At'
p3
S'2015-11-28 20:21:24'
p4
s.(dp0
S'Text'
p1
S"RT @Dory: Why do android snapchats look like they're from the 1800's https://t.co/2XWU9JpTi5"
p2
sS'Created At'
p3
S'2015-11-28 20:21:24'
p4
s.(dp0
S'Text'
p1
S'8 users just unfollowed me. Via @FindUnfollower https://t.co/U5uVNBJuzJ. #iPhone #App'
p2
sS'Created At'
p3
S'2015-11-28 20:21:24'
p4
s.(dp0
S'Text'
p1
S"I've harvested 1,330 of food!  https://t.co/STB6piBlTT #android, #androidgames, #gameinsight"
p2
sS'Created At'
p3
S'2015-11-28 20:21:24'
p4
s.(dp0
S'Text'
p1
S'RT @smart_and_easy: Easy iPhone users. https://t.co/tQWTh6Y7bV'
p2
sS'Created At'
p3
S'2015-11-28 20:21:24'
p4
s.(dp0
S'Text'
p1
S'RT @OplaRahman: Jailbreak iOS 9 Guide - https://t.co/ta4AZ0KVJV https://t.co/RA0edTUs6k'
p2
sS'Created At'
p3
S'2015-11-28 20:21:25'
p4
s.(dp0
S'Text'
p1
S'My Defence is at level 2! Are your citizens safe too? https://t.co/axJU73Gl9g #android,#androidgames,#gameinsight'
p2
sS'Created At'
p3
S'2015-11-28 20:21:25'
p4
s.(dp0
S'Text'
p1
S"RT @ReaIatabIe: Why do android snapchats look like they're from the 1800's https://t.co/YBQ1bLStuN"
p2
sS'Created At'
p3
S'2015-11-28 20:21:25'
p4
s.(dp0
S'Text'
p1
S'RT @Cute_Cravings: \xf0\x9f\x8e\x84 SATURDAY SALE \xf0\x9f\x8e\x84\n\nOur Holiday Glitter Phone Cases are on Sale!!\n\nEnds TONIGHT! \xe2\x9b\x84\xef\xb8\x8f\xf0\x9f\x8e\x80\n\n\xf0\x9f\x91\x89\xf0\x9f\x8f\xbchttps://t.co/b6G9g6hAh5\xf0\x9f\x91\x88\xf0\x9f\x8f\xbc https:/\xe2\x80\xa6'
p2
sS'Created At'
p3
S'2015-11-28 20:21:26'
p4
s.(dp0
S'Text'
p1
S"I'm earning #mPLUSRewards in Roll Da Dice Android. https://t.co/pUh09dVdEe"
p2
sS'Created At'
p3
S'2015-11-28 20:21:26'
p4
s.(dp0
S'Text'
p1
S"iPhone 3GS  16GB Black MC135LL/A- AT&amp;T: Won't Hold Charge, Parts - Bid Now! Only $9.99 https://t.co/X3Tfp4Kh2y https://t.co/iEsZH7cEiD"
p2
sS'Created At'
p3
S'2015-11-28 20:21:26'
p4
s.(dp0
S'Text'
p1
S'Damn much iphone err'
p2
sS'Created At'
p3
S'2015-11-28 20:21:26'
p4
s.(dp0
S'Text'
p1
S"I've collected 24,285 gold coins!  https://t.co/5wGVpo1NL7 #android, #androidgames, #gameinsight"
p2
sS'Created At'
p3
S'2015-11-28 20:21:26'
p4
s.(dp0
S'Text'
p1
S'Three baksheesh to chart a course iphone forcing on refrain open arms the point-blank address: WojKdkgo'
p2
sS'Created At'
p3
S'2015-11-28 20:21:27'
p4
s.(dp0
S'Text'
p1
S"RT @RetroFist: Making progress on the iOS version of @FireFuGame! It's running at 60FPS too. Wii! :) #screenshotsaturday #gamedev https://t\xe2\x80\xa6"
p2
sS'Created At'
p3
S'2015-11-28 20:21:27'
p4
s.(dp0
S'Text'
p1
S'\xe2\x9d\xa4\xe2\x97\x95 iRULU x2s 7" Tablet 3G Phablet Unlock Phone Android 4.4 8G Bluetooth w/ Keyboard https://t.co/DFFyc6b82R https://t.co/VHWu9GYIns'
p2
sS'Created At'
p3
S'2015-11-28 20:21:27'
p4
s.(dp0
S'Text'
p1
S'Ultra Thin Rainbow Flower Design Case and Screen protector for iPhone 3GS Cover - Bid Now!\xe2\x80\xa6 https://t.co/WucgfKG0Sp https://t.co/Nwzal1dZNl'
p2
sS'Created At'
p3
S'2015-11-28 20:21:27'
p4
s.(dp0
S'Text'
p1
S"I've collected 560 gold coins! https://t.co/01mSm8ELVi #iphone, #iphonegames, #gameinsight"
p2
sS'Created At'
p3
S'2015-11-28 20:21:28'
p4
s.(dp0
S'Text'
p1
S'Apple iPhone 3GS 32GB AT&amp;T Black Smartphone Clean ESN Clean Screen w/ no scratch - Bid Now\xe2\x80\xa6 https://t.co/Vq4TWT58xH https://t.co/qKKmWlw8Mt'
p2
sS'Created At'
p3
S'2015-11-28 20:21:28'
p4
s.(dp0
S'Text'
p1
S'RT @BieberholicFeel: iPhone 7 is way better tbh https://t.co/TscO1RoKth'
p2
sS'Created At'
p3
S'2015-11-28 20:21:28'
p4
s.(dp0
S'Text'
p1
S'I have House on my island! Now my island is even more awesome!  https://t.co/mE2xJcgSWc #iphone, #iphonegames, #gameinsight'
p2
sS'Created At'
p3
S'2015-11-28 20:21:28'
p4
s.(dp0
S'Text'
p1
S'I have Nice Hut on my island! Now my island is even more awesome!  https://t.co/mE2xJcgSWc #iphone, #iphonegames, #gameinsight'
p2
sS'Created At'
p3
S'2015-11-28 20:21:28'
p4
s.(dp0
S'Text'
p1
S'Apple iPhone 3GS - 32GB - White (AT&amp;T) Smartphone (MC138LL/A) - Bid Now! Only $20.5 https://t.co/AyvVePwVSE https://t.co/fxQtYAPbih'
p2
sS'Created At'
p3
S'2015-11-28 20:21:28'
p4
s.(dp0
S'Text'
p1
S"The Kingdom's citizens are happy to have Flowerbed! Try to build it too! https://t.co/QtMQWxhc3H #android,#androidgames,#gameinsight"
p2
sS'Created At'
p3
S'2015-11-28 20:21:29'
p4
s.(dp0
S'Text'
p1
S'I bet iOS 10 will support loading modal app views hyperlinks. E.g. click an Instagram link &gt; it loads in place mo \xe2\x80\x93 https://t.co/zQ6xiq7ZTQ'
p2
sS'Created At'
p3
S'2015-11-28 20:21:29'
p4
s.(dp0
S'Text'
p1
S'My ninja team is looking for challengers, are your reflexes fast enough? https://t.co/YGFj87hrrk #android #androidgames #volley'
p2
sS'Created At'
p3
S'2015-11-28 20:21:29'
p4
s.(dp0
S'Text'
p1
S"I've collected 22,450 gold coins!  https://t.co/KymgFX2eiy #android, #androidgames, #gameinsight"
p2
sS'Created At'
p3
S'2015-11-28 20:21:29'
p4
s.(dp0
S'Text'
p1
S'RT @OplaRahman: Jailbreak iOS 9 Guide - https://t.co/ta4AZ0KVJV https://t.co/RA0edTUs6k'
p2
sS'Created At'
p3
S'2015-11-28 20:21:29'
p4
s.(dp0
S'Text'
p1
S'Apple iPhone 3GS - 8GB - Black (AT&amp;T) Smartphone - Bid Now! Only $7.0 https://t.co/VB5v8Ejkni https://t.co/VF0l64td0N'
p2
sS'Created At'
p3
S'2015-11-28 20:21:29'
p4
s.(dp0
S'Text'
p1
S'Congrats @jessicawalshey DM us to claim your iPhone :)'
p2
sS'Created At'
p3
S'2015-11-28 20:21:29'
p4
s.(dp0
S'Text'
p1
S"I've collected 210,150 gold coins!  https://t.co/Ud7LdtEzBP #android, #androidgames, #gameinsight"
p2
sS'Created At'
p3
S'2015-11-28 20:21:30'
p4
s.(dp0
S'Text'
p1
S'Enter to Win a Google Nexus 5 Android Smartphone @Androidheadline #android #nexus #nexus5x  https://t.co/bmRPb0QzW2'
p2
sS'Created At'
p3
S'2015-11-28 20:21:30'
p4
s.(dp0
S'Text'
p1
S"I've finished the Beautiful Garden quest! Are you able to fulfil the same task? https://t.co/QtMQWxhc3H #android,#androidgames,#gamein..."
p2
sS'Created At'
p3
S'2015-11-28 20:21:30'
p4
s.(dp0
S'Text'
p1
S'#Dropbox in negotiation to acquire #Rebw #Android #Messenger #zulip @drewhouston #drewhouston https://t.co/OiyiLaSs5R    @Dropbox @rebwinc g'
p2
sS'Created At'
p3
S'2015-11-28 20:21:31'
p4
s.(dp0
S'Text'
p1
S"I've collected 1,841 gold coins!  https://t.co/B9dKx5a43F #android, #androidgames, #gameinsight"
p2
sS'Created At'
p3
S'2015-11-28 20:21:32'
p4
s.(dp0
S'Text'
p1
S'Nice to meet The Mad Hatter! Look for the new acquaintances in the streets of London! https://t.co/rh4gopmZib #Android #AndroidGames'
p2
sS'Created At'
p3
S'2015-11-28 20:21:32'
p4
s.(dp0
S'Text'
p1
S"I've harvested 1,180 of food!  https://t.co/APcV2sKMZU #android, #androidgames, #gameinsight"
p2
sS'Created At'
p3
S'2015-11-28 20:21:32'
p4
s.(dp0
S'Text'
p1
S"RT @SunraHeadgear: \\( \xef\xbd\xa5\xe3\x85\x82\xef\xbd\xa5)/ For all those people who asked me if I could make them a voxel avatar.. https://t.co/QItPJ2Kewk iOS/ 'droid htt\xe2\x80\xa6"
p2
sS'Created At'
p3
S'2015-11-28 20:21:32'
p4
s.(dp0
S'Text'
p1
S'RT @ShitChallenge: @ShitChallenge start the next step!\nGet an iPhone for free!*\nVisit: https://t.co/26lOKqRqLN https://t.co/A5ObkoNi5O'
p2
sS'Created At'
p3
S'2015-11-28 20:21:33'
p4
s.(dp0
S'Text'
p1
S"I've collected 3,495 gold coins!  https://t.co/71LjKBSjno #android, #androidgames, #gameinsight"
p2
sS'Created At'
p3
S'2015-11-28 20:21:33'
p4
s.(dp0
S'Text'
p1
S"I've finished the Send 4 invitations quest! Are you able to fulfil the same task? https://t.co/aPCtydQzwE #android,#androidgames,#game..."
p2
sS'Created At'
p3
S'2015-11-28 20:21:33'
p4
s.(dp0
S'Text'
p1
S'RT @ShitChallenge: @ShitChallenge start the next step!\nGet an iPhone for free!*\nVisit: https://t.co/26lOKqRqLN https://t.co/A5ObkoNi5O'
p2
sS'Created At'
p3
S'2015-11-28 20:21:33'
p4
s.(dp0
S'Text'
p1
S'Nokia could return with an Android and Windows 10 smartphone - KitGuru https://t.co/LjkXg2yRbf'
p2
sS'Created At'
p3
S'2015-11-28 20:21:33'
p4
s.(dp0
S'Text'
p1
S'I just received a reward: Sociable https://t.co/aVcLPd1u7c #Gameinsight #Androidgames #Android'
p2
sS'Created At'
p3
S'2015-11-28 20:21:34'
p4
s.(dp0
S'Text'
p1
S'@UnboxTherapy can i have an iphone plz'
p2
sS'Created At'
p3
S'2015-11-28 20:21:34'
p4
s.(dp0
S'Text'
p1
S"I've collected 16,544 gold coins! https://t.co/YMnmagKKaV #iphone, #iphonegames, #gameinsight"
p2
sS'Created At'
p3
S'2015-11-28 20:21:34'
p4
s.(dp0
S'Text'
p1
S'#Iphone 7 Design\xc2\xa0News https://t.co/aTq9cj6sJt'
p2
sS'Created At'
p3
S'2015-11-28 20:21:34'
p4
s.(dp0
S'Text'
p1
S'MI97 Black Edition iOS 9 1.1 (Themes) https://t.co/VFrmI852R9'
p2
sS'Created At'
p3
S'2015-11-28 20:21:34'
p4
s.(dp0
S'Text'
p1
S'RT @thefuturejhard: Damn near want the iPhone 6s+'
p2
sS'Created At'
p3
S'2015-11-28 20:21:34'
p4
s.(dp0
S'Text'
p1
S'Ever Wondered Why You Get Two Different Choices To Answer Calls On Your iPhone? https://t.co/JUhSpMGrPb'
p2
sS'Created At'
p3
S'2015-11-28 20:21:34'
p4
s.(dp0
S'Text'
p1
S'RT @AmazeGear: Congrats @jessicawalshey DM us to claim your iPhone :)'
p2
sS'Created At'
p3
S'2015-11-28 20:21:34'
p4
s.(dp0
S'Text'
p1
S'RT @AmazingDealUSA: #Apple iPhone 5C - 16gb - Factory GSM Unlocked Smartphone (B): $159.99\xe2\x80\xa6 https://t.co/9BELmAzTj5 on Ebay #BlackFriday ht\xe2\x80\xa6'
p2
sS'Created At'
p3
S'2015-11-28 20:21:35'
p4
s.(dp0
S'Text'
p1
S'RT @tinatbh: No offense but android snapchats look like photographs from the American civil war'
p2
sS'Created At'
p3
S'2015-11-28 20:21:35'
p4
s.(dp0
S'Text'
p1
S'#iphone #apple Deals https://t.co/GOgEgahThZ #1910 Tone Pro HBS-750 Wireless Bluetooth Stereo Headset Headphones F\xe2\x80\xa6 https://t.co/EVMGQIc4Xi'
p2
sS'Created At'
p3
S'2015-11-28 20:21:36'
p4
s.(dp0
S'Text'
p1
S"New Victoria's Secret PINK In Ear Buds Headphones iPhone iPod RARE FIND!!  - Bid Now! Only\xe2\x80\xa6 https://t.co/hyKYNSUnLG https://t.co/Q6eElxyH0G"
p2
sS'Created At'
p3
S'2015-11-28 20:21:36'
p4
s.(dp0
S'Text'
p1
S"I've collected 960 gold coins!  https://t.co/ldTuh9PeJm #android, #androidgames, #gameinsight"
p2
sS'Created At'
p3
S'2015-11-28 20:21:36'
p4
s.(dp0
S'Text'
p1
S"I've harvested 60 of food!  https://t.co/ldTuh9PeJm #android, #androidgames, #gameinsight"
p2
sS'Created At'
p3
S'2015-11-28 20:21:36'
p4
s.(dp0
S'Text'
p1
S'RT @charlieINTEL: #CODHeroes for iOS &amp; Android update: new #BlackOps3 specialists now available in game. https://t.co/DiWTiINk7t'
p2
sS'Created At'
p3
S'2015-11-28 20:21:36'
p4
s.(dp0
S'Text'
p1
S'RT @BieberholicFeel: iPhone 7 is way better tbh https://t.co/TscO1RoKth'
p2
sS'Created At'
p3
S'2015-11-28 20:21:36'
p4
s.(dp0
S'Text'
p1
S'Start playing Paradise Island on Android https://t.co/h6qPOhJRiV #Android #Androidgames #Gameinsight https://t.co/Obn9mvm6pf'
p2
sS'Created At'
p3
S'2015-11-28 20:21:36'
p4
s.(dp0
S'Text'
p1
S'#iphone #apple Deals https://t.co/Pd2IGviD9m #3405 Tone Pro HBS-750 Wireless Bluetooth Stereo Headset Headphones F\xe2\x80\xa6 https://t.co/dVM8klNELh'
p2
sS'Created At'
p3
S'2015-11-28 20:21:37'
p4
s.(dp0
S'Text'
p1
S'Kept you waiting again, huh? https://t.co/Y7mdI3Oi1W #androidgames #gameinsight #android #followmejp #followbackjp'
p2
sS'Created At'
p3
S'2015-11-28 20:21:37'
p4
s.(dp0
S'Text'
p1
S"I've collected 1,939 gold coins! https://t.co/5mt7LFRZkR #iphone, #iphonegames, #gameinsight"
p2
sS'Created At'
p3
S'2015-11-28 20:21:37'
p4
s.(dp0
S'Text'
p1
S'RT @UnboxTherapy: New iPhone winner at midnight. Gonna do a Twitter exclusive for this one - RT and reply here to enter! https://t.co/t6vWu\xe2\x80\xa6'
p2
sS'Created At'
p3
S'2015-11-28 20:21:37'
p4
s.(dp0
S'Text'
p1
S"I've harvested 476 of food!  https://t.co/5mt7LFRZkR #iphone, #iphonegames, #gameinsight"
p2
sS'Created At'
p3
S'2015-11-28 20:21:37'
p4
s.(dp0
S'Text'
p1
S'@dougiethebear android app mate lol https://t.co/w6NbUxEFNq'
p2
sS'Created At'
p3
S'2015-11-28 20:21:38'
p4
s.(dp0
S'Text'
p1
S'RT @HeyEmTays: Say whatever you want about android emojis but look at this fucking turtle!! https://t.co/sY6it9ic1v'
p2
sS'Created At'
p3
S'2015-11-28 20:21:38'
p4
s.(dp0
S'Text'
p1
S'#iphone #apple Deals https://t.co/e9peloRqSv #7956 New Tone Infinim HBS-900 Bluetooth Headset for iPhone Samsung LG https://t.co/EEUP5XokMr'
p2
sS'Created At'
p3
S'2015-11-28 20:21:37'
p4
s.(dp0
S'Text'
p1
S'Wireless Bluetooth Headset HD Voice wind Noise Headphones for Jabra  iphone HTC - Bid Now!\xe2\x80\xa6 https://t.co/kFGfaHRrzc https://t.co/8llT3SLE7U'
p2
sS'Created At'
p3
S'2015-11-28 20:21:38'
p4
s.(dp0
S'Text'
p1
S"RT @ComputechTS: Google's Latest Chromebook Features A Detachable Keyboard And  Runs On Android http://t.co/kyVNig68l2"
p2
sS'Created At'
p3
S'2015-11-28 20:21:39'
p4
s.(dp0
S'Text'
p1
S'#iphone #apple Deals https://t.co/7ZE1omIKxW #8123 Genuine Apple MD827LL/A Earpods, Earphones for iPhone 6 5 4S, R\xe2\x80\xa6 https://t.co/3quvacYfwW'
p2
sS'Created At'
p3
S'2015-11-28 20:21:38'
p4
s.(dp0
S'Text'
p1
S"I've collected 4,430 gold coins!  https://t.co/IekhlYyGQr #android, #androidgames, #gameinsight"
p2
sS'Created At'
p3
S'2015-11-28 20:21:38'
p4
s.(dp0
S'Text'
p1
S'can anybody fix my cracked iphone 6 screen hmu'
p2
sS'Created At'
p3
S'2015-11-28 20:21:39'
p4
s.(dp0
S'Text'
p1
S"RT @DanielNewman: I can't Believe half a MILLION of you follow me &amp; have DOWNLOADED MY ALBUM!\xe2\x9d\xa4  iTunes https://t.co/2OoBcDeCsn Android http\xe2\x80\xa6"
p2
sS'Created At'
p3
S'2015-11-28 20:21:39'
p4
s.(dp0
S'Text'
p1
S'LabCave: Burger Clicker with more surprises on both iOS&amp;Android! https://t.co/lMRPiecjT8\xc2\xa0 #gamedev #indiegamedev #screenshotsaturday #gamer'
p2
sS'Created At'
p3
S'2015-11-28 20:21:39'
p4
s.(dp0
S'Text'
p1
S'RT @tinatbh: No offense but android snapchats look like photographs from the American civil war'
p2
sS'Created At'
p3
S'2015-11-28 20:21:39'
p4
s.(dp0
S'Text'
p1
S'@UltimateKing24  why u are not going  bargains  fro ios / android'
p2
sS'Created At'
p3
S'2015-11-28 20:21:39'
p4
s.(dp0
S'Text'
p1
S'#iphone #apple Deals https://t.co/4OShVygzpv #2364 Universal Bluetooth Wireless Headset Stereo Headphones for SAMS\xe2\x80\xa6 https://t.co/pEu7My9gWb'
p2
sS'Created At'
p3
S'2015-11-28 20:21:39'
p4
s.(dp0
S'Text'
p1
S"I've collected 32,874 gold coins!  https://t.co/S5kWIVfLFq #android, #androidgames, #gameinsight"
p2
sS'Created At'
p3
S'2015-11-28 20:21:40'
p4
s.(dp0
S'Text'
p1
S"Assassin\\'s Creed, iphone6 Cover, iphone 6 plus TPU Gel Case, iphone 6 Cover, Custom  https://t.co/zf7PmHYUxF https://t.co/3IOUP2593S"
p2
sS'Created At'
p3
S'2015-11-28 20:21:40'
p4
s.(dp0
S'Text'
p1
S'I dont take IOS sponsors anymore.. untill tonight going to make all my followers happy now'
p2
sS'Created At'
p3
S'2015-11-28 20:21:40'
p4
s.(dp0
S'Text'
p1
S'So true. \xf0\x9f\x98\x94 https://t.co/iCWDNQLlJL'
p2
sS'Created At'
p3
S'2015-11-28 20:21:40'
p4
s.(dp0
S'Text'
p1
S"RT @SpritzoBot: Play Popt! on iOS or Android today. It's free! https://t.co/p0q8omuOQK @RetweetGamers @TwitchTVOnline #ios https://t.co/stF\xe2\x80\xa6"
p2
sS'Created At'
p3
S'2015-11-28 20:21:40'
p4
s.(dp0
S'Text'
p1
S'#iphone #apple Deals https://t.co/I9sY8ZOwhK #9967 NEW OEM 100% Genuine &amp; Authentic Apple EarPods - iPhone 5 5S 5C\xe2\x80\xa6 https://t.co/UVxlCi4vyO'
p2
sS'Created At'
p3
S'2015-11-28 20:21:40'
p4
s.(dp0
S'Text'
p1
S"The Kingdom's citizens are happy to have Hovel! Try to build it too! https://t.co/YVWQKoxHtW #android,#androidgames,#gameinsight"
p2
sS'Created At'
p3
S'2015-11-28 20:21:40'
p4
s.(dp0
S'Text'
p1
S"I've collected 32,340 gold coins!  https://t.co/c4b8cxX8Qu #android, #androidgames, #gameinsight"
p2
sS'Created At'
p3
S'2015-11-28 20:21:40'
p4
s.(dp0
S'Text'
p1
S'I have Observatory on my island! Now my island is even more awesome!  https://t.co/Ho1VdUixiY #android, #androidgames, #gameinsight'
p2
sS'Created At'
p3
S'2015-11-28 20:21:41'
p4
s.(dp0
S'Text'
p1
S"I've collected 1,721 gold coins!  https://t.co/47BaV0XCo9 #android, #androidgames, #gameinsight"
p2
sS'Created At'
p3
S'2015-11-28 20:21:41'
p4
s.(dp0
S'Text'
p1
S"I've finished the Send 2 invitations quest! Are you able to fulfil the same task? https://t.co/IsGMrB0P7o #android,#androidgames,#game..."
p2
sS'Created At'
p3
S'2015-11-28 20:21:41'
p4
s.(dp0
S'Text'
p1
S'#iphone #apple Deals https://t.co/AapPlYELQx #4745 Skech BluePulse Bluetooth HandsFree Wireless Headphones iPhone/\xe2\x80\xa6 https://t.co/H6mSYAySEq'
p2
sS'Created At'
p3
S'2015-11-28 20:21:41'
p4
s.(dp0
S'Text'
p1
S'RT @AmazeGear: For my actives this \xe2\x9d\xa4\xef\xb8\x8f RT + Follow @Rxnzoo for your chance to win this iPhone!\n\nWinner in 1 Hour! https://t.co/5oM9EMvdfl'
p2
sS'Created At'
p3
S'2015-11-28 20:21:42'
p4
s.(dp0
S'Text'
p1
S'NEW on EBAY: NEW Apple iPhone 6 Plus 64GB 4G LTE Factory Unlocked GSM Smartphone - Silver https://t.co/mh1yVX9Mf5 https://t.co/q1mK2lqhKW'
p2
sS'Created At'
p3
S'2015-11-28 20:21:42'
p4
s.(dp0
S'Text'
p1
S'RT @AmazeGear: For my actives this \xe2\x9d\xa4\xef\xb8\x8f RT + Follow @Rxnzoo for your chance to win this iPhone!\n\nWinner in 1 Hour! https://t.co/5oM9EMvdfl'
p2
sS'Created At'
p3
S'2015-11-28 20:21:42'
p4
s.(dp0
S'Text'
p1
S'The most unbelievable thing about the iPhone 5C commercial is someone wanting to call any of those super annoying people.'
p2
sS'Created At'
p3
S'2015-11-28 20:21:42'
p4
s.(dp0
S'Text'
p1
S'I just received a reward: Hero https://t.co/bkAKyPtpep #Gameinsight #Androidgames #Android'
p2
sS'Created At'
p3
S'2015-11-28 20:21:42'
p4
s.(dp0
S'Text'
p1
S"I've harvested 1,254 of food!  https://t.co/aiBt1Q2pvB #android, #androidgames, #gameinsight"
p2
sS'Created At'
p3
S'2015-11-28 20:21:43'
p4
s.(dp0
S'Text'
p1
S'#iphone #apple Deals https://t.co/qNNHprAZh0 #8130 Original OEM Genuine APPLE EarPods Earphones for iPhone 6 / 6Pl\xe2\x80\xa6 https://t.co/W2ZXYdnJRQ'
p2
sS'Created At'
p3
S'2015-11-28 20:21:42'
p4
s.(dp0
S'Text'
p1
S"I've collected 73,120 gold coins!  https://t.co/STB6piBlTT #android, #androidgames, #gameinsight"
p2
sS'Created At'
p3
S'2015-11-28 20:21:43'
p4
s.(dp0
S'Text'
p1
S'NEW on EBAY: Apple iPhone 6S (Latest Model) - 16GB - Space Gray (AT&amp;T) Smartphone https://t.co/B8lRNefSsg https://t.co/s16lSdV7YZ'
p2
sS'Created At'
p3
S'2015-11-28 20:21:43'
p4
s.(dp0
S'Text'
p1
S"I've collected 23,315 gold coins!  https://t.co/eWaSHncjo3 #android, #androidgames, #gameinsight"
p2
sS'Created At'
p3
S'2015-11-28 20:21:43'
p4
s.(dp0
S'Text'
p1
S'#iphone #apple Deals https://t.co/HZkcNncDF5 #0676 Business Handsfree Stereo Earphone Wireless Bluetooth Headset f\xe2\x80\xa6 https://t.co/jWOxGCzkd0'
p2
sS'Created At'
p3
S'2015-11-28 20:21:44'
p4
s.(dp0
S'Text'
p1
S"I've collected 10,664 gold coins!  https://t.co/jX9cyOrfBQ #android, #androidgames, #gameinsight"
p2
sS'Created At'
p3
S'2015-11-28 20:21:44'
p4
s.(dp0
S'Text'
p1
S'NEW on EBAY: iPhone 6 16GB Space Gray Factory Unlocked https://t.co/V4F2GxHm8M https://t.co/0oo3JB3nkz'
p2
sS'Created At'
p3
S'2015-11-28 20:21:44'
p4
s.(dp0
S'Text'
p1
S'Peace out iPhone'
p2
sS'Created At'
p3
S'2015-11-28 20:21:44'
p4
s.(dp0
S'Text'
p1
S'Having fun playing #CSRRacing for iOS, why not join me for FREE?\nhttps://t.co/pWOitTOs68'
p2
sS'Created At'
p3
S'2015-11-28 20:21:44'
p4
s.(dp0
S'Text'
p1
S'RT @AmazeGear: Congrats @jessicawalshey DM us to claim your iPhone :)'
p2
sS'Created At'
p3
S'2015-11-28 20:21:45'
p4
s.(dp0
S'Text'
p1
S'RT @OplaRahman: Jailbreak iOS 9 Guide - https://t.co/ta4AZ0KVJV https://t.co/RA0edTUs6k'
p2
sS'Created At'
p3
S'2015-11-28 20:21:45'
p4
s.(dp0
S'Text'
p1
S"I've harvested 180 of food!  https://t.co/MBVc3Q4p59 #android, #androidgames, #gameinsight"
p2
sS'Created At'
p3
S'2015-11-28 20:21:45'
p4
s.(dp0
S'Text'
p1
S"I've harvested 562 of food!  https://t.co/sJPrnSsEFE #android, #androidgames, #gameinsight"
p2
sS'Created At'
p3
S'2015-11-28 20:21:45'
p4
s.(dp0
S'Text'
p1
S'#iphone #apple Deals https://t.co/eVaVhjonK7 #2859 Lot New Earphone Earbud Headset w/ Volume Control Mic fit iPhon\xe2\x80\xa6 https://t.co/cYRY9TdZWK'
p2
sS'Created At'
p3
S'2015-11-28 20:21:45'
p4
s.(dp0
S'Text'
p1
S"I've collected 3,018 gold coins!  https://t.co/sJPrnSsEFE #android, #androidgames, #gameinsight"
p2
sS'Created At'
p3
S'2015-11-28 20:21:45'
p4
s.(dp0
S'Text'
p1
S'Creating Andriod Client for Node.js Web App https://t.co/FTbIk5BnkZ #Android #AndroidDev'
p2
sS'Created At'
p3
S'2015-11-28 20:21:45'
p4
s.(dp0
S'Text'
p1
S"I have completed the quest 'Upgrade the Ston...' in the #Android game The Tribez.  https://t.co/jX9cyOrfBQ #androidgames, #gameinsight"
p2
sS'Created At'
p3
S'2015-11-28 20:21:45'
p4
s.(dp0
S'Text'
p1
S'I have gained level 11 in The Tribez and Castlez! Can you achieve it as well? https://t.co/xyZhvKBIiW #android,#androidgames,#gameinsight'
p2
sS'Created At'
p3
S'2015-11-28 20:21:45'
p4
s.(dp0
S'Text'
p1
S'NEW on EBAY: Apple iPhone 6 - 64GB - Silver (Verizon) Smartphone https://t.co/uhqUEwrbTf https://t.co/5g3PtVYTpo'
p2
sS'Created At'
p3
S'2015-11-28 20:21:45'
p4
s.(dp0
S'Text'
p1
S"I've harvested 6,022 of food!  https://t.co/RmY2biTYTH #android, #androidgames, #gameinsight"
p2
sS'Created At'
p3
S'2015-11-28 20:21:46'
p4
s.(dp0
S'Text'
p1
S'NEW on EBAY: Apple iPhone 6 - 128GB - Rose Gold (AT&amp;T) Smartphone https://t.co/WdkigI8n26 https://t.co/Ip6RLRx14n'
p2
sS'Created At'
p3
S'2015-11-28 20:21:46'
p4
s.(dp0
S'Text'
p1
S'Charletta bullshittin on this iPhone \xf0\x9f\x98\x9e\xf0\x9f\x98\x9e'
p2
sS'Created At'
p3
S'2015-11-28 20:21:46'
p4
s.(dp0
S'Text'
p1
S"I've collected 24,100 gold coins!  https://t.co/5wGVpo1NL7 #android, #androidgames, #gameinsight"
p2
sS'Created At'
p3
S'2015-11-28 20:21:46'
p4
s.(dp0
S'Text'
p1
S'LG Investment Adds New Fuel to Reports That Apple Is Planning an OLED\xc2\xa0iPhone https://t.co/qRPOqPNec7'
p2
sS'Created At'
p3
S'2015-11-28 20:21:46'
p4
s.(dp0
S'Text'
p1
S"New Victoria's Secret PINK In Ear Buds Headphones iPhone iPod RARE FIND!!  - Bid Now! Only\xe2\x80\xa6 https://t.co/giLpHa69eF https://t.co/qf3X749TSD"
p2
sS'Created At'
p3
S'2015-11-28 20:21:47'
p4
s.(dp0
S'Text'
p1
S"I've unlocked a new area of my Island! https://t.co/aVcLPd1u7c #Androidgames #Android #Gameinsight"
p2
sS'Created At'
p3
S'2015-11-28 20:21:47'
p4
s.(dp0
S'Text'
p1
S'Clever Apple Invention Paves the Way for a Truly Waterproof\xc2\xa0iPhone https://t.co/srj5iFG4St'
p2
sS'Created At'
p3
S'2015-11-28 20:21:47'
p4
s.(dp0
S'Text'
p1
S'NEW on EBAY: Apple iPhone 6S (Latest Model) - 64GB - Space Gray (Unlocked) Smartphone https://t.co/hqVfkLOFAW https://t.co/WP9rXeeKOv'
p2
sS'Created At'
p3
S'2015-11-28 20:21:47'
p4
s.(dp0
S'Text'
p1
S"I've collected 45,070 gold coins!  https://t.co/2ofvQfePLO #android, #androidgames, #gameinsight"
p2
sS'Created At'
p3
S'2015-11-28 20:21:47'
p4
s.(dp0
S'Text'
p1
S'RT @UltimateKing24: I dont take IOS sponsors anymore.. untill tonight going to make all my followers happy now'
p2
sS'Created At'
p3
S'2015-11-28 20:21:48'
p4
s.(dp0
S'Text'
p1
S'RT @BieberholicFeel: iPhone 7 is way better tbh https://t.co/TscO1RoKth'
p2
sS'Created At'
p3
S'2015-11-28 20:21:47'
p4
s.(dp0
S'Text'
p1
S"I've harvested 280 of food!  https://t.co/zQYmkq88Xe #android, #androidgames, #gameinsight"
p2
sS'Created At'
p3
S'2015-11-28 20:21:48'
p4
s.(dp0
S'Text'
p1
S'Download MIUI 7 \xe2\x80\x93 Launcher Theme v7.1.2  Apk for Android https://t.co/FDjVXrM9nl https://t.co/QTdG1nNzHi'
p2
sS'Created At'
p3
S'2015-11-28 20:21:48'
p4
s.(dp0
S'Text'
p1
S'1 awesome users just followed me. Via @FindUnfollower https://t.co/fGWGBldqDO. #iPhone #App'
p2
sS'Created At'
p3
S'2015-11-28 20:21:48'
p4
s.(dp0
S'Text'
p1
S'Wireless Bluetooth Headset HD Voice wind Noise Headphones for Jabra  iphone HTC - Bid Now!\xe2\x80\xa6 https://t.co/yQVMUK4Zjq https://t.co/csQ6raEPkT'
p2
sS'Created At'
p3
S'2015-11-28 20:21:49'
p4
s.(dp0
S'Text'
p1
S'5 Why Sell Your Iphone\xc2\xa04S https://t.co/8o4wI7ScQ9 https://t.co/aBnwtrYlTl'
p2
sS'Created At'
p3
S'2015-11-28 20:21:49'
p4
s.(dp0
S'Text'
p1
S'I have Post Office on my island! Now my island is even more awesome!  https://t.co/hKc36p27TX #android, #androidgames, #gameinsight'
p2
sS'Created At'
p3
S'2015-11-28 20:21:49'
p4
s.(dp0
S'Text'
p1
S"I've harvested 20 of food!  https://t.co/MB09zYykzx #android, #androidgames, #gameinsight"
p2
sS'Created At'
p3
S'2015-11-28 20:21:49'
p4
s.(dp0
S'Text'
p1
S"I've collected 2,000 gold coins!  https://t.co/MB09zYykzx #android, #androidgames, #gameinsight"
p2
sS'Created At'
p3
S'2015-11-28 20:21:49'
p4
s.(dp0
S'Text'
p1
S"I've collected 22,487 gold coins!  https://t.co/Pdf8eDAgSU #android, #androidgames, #gameinsight"
p2
sS'Created At'
p3
S'2015-11-28 20:21:50'
p4
s.(dp0
S'Text'
p1
S"I've finished the Logs and Lumber quest! Are you able to fulfil the same task? https://t.co/UZZc8nxQYF #android,#androidgames,#gameins..."
p2
sS'Created At'
p3
S'2015-11-28 20:21:50'
p4
s.(dp0
S'Text'
p1
S"I've harvested 135 of food!  https://t.co/71LjKBSjno #android, #androidgames, #gameinsight"
p2
sS'Created At'
p3
S'2015-11-28 20:21:50'
p4
s.(dp0
S'Text'
p1
S'AT&amp;T and AUDI S8 App For iPhone \xe2\x80\x93 The Transporter Refueled (2015) https://t.co/BtvTfCnzWu'
p2
sS'Created At'
p3
S'2015-11-28 20:21:50'
p4
s.(dp0
S'Text'
p1
S'NEW on EBAY: Apple iPhone 6 - 64GB - Gold (Verizon) Smartphone  https://t.co/CpcnkI1azR https://t.co/4J1fWjvdMZ'
p2
sS'Created At'
p3
S'2015-11-28 20:21:50'
p4
s.(dp0
S'Text'
p1
S'Having fun with #ClumsyNinja for iPhone! Join me now for FREE! https://t.co/wKENczaQpH'
p2
sS'Created At'
p3
S'2015-11-28 20:21:50'
p4
s.(dp0
S'Text'
p1
S'RT @AmazeGear: Congrats @jessicawalshey DM us to claim your iPhone :)'
p2
sS'Created At'
p3
S'2015-11-28 20:21:51'
p4
s.(dp0
S'Text'
p1
S"I've harvested 88 of food!  https://t.co/x0v9JsVKWj #android, #androidgames, #gameinsight"
p2
sS'Created At'
p3
S'2015-11-28 20:21:51'
p4
s.(dp0
S'Text'
p1
S"I've collected 258 gold coins!  https://t.co/x0v9JsVKWj #android, #androidgames, #gameinsight"
p2
sS'Created At'
p3
S'2015-11-28 20:21:51'
p4
s.(dp0
S'Text'
p1
S'Apple could make your old headphones obsolete with the next iPhone (AAPL) https://t.co/KxSrVHXqlz'
p2
sS'Created At'
p3
S'2015-11-28 20:21:51'
p4
s.(dp0
S'Text'
p1
S'I have Coffee Tree on my island! Now my island is even more awesome!  https://t.co/542qBwRpN3 #android, #androidgames, #gameinsight'
p2
sS'Created At'
p3
S'2015-11-28 20:21:51'
p4
s.(dp0
S'Text'
p1
S"RT @Dory: Why do android snapchats look like they're from the 1800's https://t.co/2XWU9JpTi5"
p2
sS'Created At'
p3
S'2015-11-28 20:21:51'
p4
s.(dp0
S'Text'
p1
S'NEW on EBAY: Apple iPhone 6 - 16GB - Gold (Verizon) Smartphone https://t.co/siFEdqwfFp https://t.co/lSakR5Mmd9'
p2
sS'Created At'
p3
S'2015-11-28 20:21:52'
p4
s.(dp0
S'Text'
p1
S"I've collected 1,586 gold coins!  https://t.co/zQYmkq88Xe #android, #androidgames, #gameinsight"
p2
sS'Created At'
p3
S'2015-11-28 20:21:52'
p4
s.(dp0
S'Text'
p1
S'I NEED IT https://t.co/4U1IlQT0Ht'
p2
sS'Created At'
p3
S'2015-11-28 20:21:52'
p4
s.(dp0
S'Text'
p1
S'Anyone have Xbox coins? Buying Xbox coins and card for IOS OR TOPPS RT AND IF I FIND A SELLER I WILL GIVEAWAY 5 mill'
p2
sS'Created At'
p3
S'2015-11-28 20:21:52'
p4
s.(dp0
S'Text'
p1
S'RT @UltimateKing24: I dont take IOS sponsors anymore.. untill tonight going to make all my followers happy now'
p2
sS'Created At'
p3
S'2015-11-28 20:21:52'
p4
s.(dp0
S'Text'
p1
S'OFFICIALLY IPHONE GANG GANG AGAIN\xf0\x9f\x92\xaf\xf0\x9f\x92\xaf\xf0\x9f\x92\xaf'
p2
sS'Created At'
p3
S'2015-11-28 20:21:52'
p4
s.(dp0
S'Text'
p1
S"RT @VentureBeat: Thanksgiving and Black Friday online sales up 18%, iOS numbers triple Android's https://t.co/QHU1874uIK by @EPro https://t\xe2\x80\xa6"
p2
sS'Created At'
p3
S'2015-11-28 20:21:53'
p4
s.(dp0
S'Text'
p1
S"10 ft iphone charger is the best thing that's ever happened to me"
p2
sS'Created At'
p3
S'2015-11-28 20:21:53'
p4
s.(dp0
S'Text'
p1
S'RT JenroCapital #Millennials #Investing in #Rental #Properties, via nytimes ZGRentals zillow trulia ZillowGroup  https://t.co/BUohKIa9qV'
p2
sS'Created At'
p3
S'2015-11-28 20:21:54'
p4
s.(dp0
S'Text'
p1
S"I've collected 22,744 gold coins!  https://t.co/u8hbDyB6NH #android, #androidgames, #gameinsight"
p2
sS'Created At'
p3
S'2015-11-28 20:21:54'
p4
s.(dp0
S'Text'
p1
S'I want the all white iPhone 6s plus \xf0\x9f\x98\xad'
p2
sS'Created At'
p3
S'2015-11-28 20:21:54'
p4
s.(dp0
S'Text'
p1
S'NEW on EBAY: Apple iPhone 6S Plus (Latest Model) - 64GB - Space Gray (AT&amp;T) Smartphone https://t.co/5gCrh3Abzz https://t.co/rcuy2e90Li'
p2
sS'Created At'
p3
S'2015-11-28 20:21:54'
p4
s.(dp0
S'Text'
p1
S'RT @icasnetwork2015: https://t.co/Ax1VqJuDEr Android M Coming soon - ICas @icasnetwork2015'
p2
sS'Created At'
p3
S'2015-11-28 20:21:54'
p4
s.(dp0
S'Text'
p1
S"I'm earning #mPLUSRewards in Tap Da Cookie Android. https://t.co/dXzfT1hHNU"
p2
sS'Created At'
p3
S'2015-11-28 20:21:54'
p4
s.(dp0
S'Text'
p1
S'I got a reward: Persistent in BigBusiness Deluxe for Android https://t.co/aBGZL3uJfv #Androidgames #Android #Gameinsight'
p2
sS'Created At'
p3
S'2015-11-28 20:21:54'
p4
s.(dp0
S'Text'
p1
S'@reginaldtoussa4 hi hope u apprVciate that addi7tive\xf0\x9f\x99\x8dandroid/ios/web game https://t.co/QwjybqKytZ thank\xe2\x9c\x89u'
p2
sS'Created At'
p3
S'2015-11-28 20:21:54'
p4
s.(dp0
S'Text'
p1
S'BEST DEALS : https://t.co/rSSpdztXFC #7543 iPhone 4 4S Cover Stand Case Hard Back (5 Colors) Screen Protectors, St\xe2\x80\xa6 https://t.co/woyUouaxeU'
p2
sS'Created At'
p3
S'2015-11-28 20:21:54'
p4
s.(dp0
S'Text'
p1
S"I've collected 71,842 gold coins!  https://t.co/g0uq8X36Q6 #android, #androidgames, #gameinsight"
p2
sS'Created At'
p3
S'2015-11-28 20:21:55'
p4
s.(dp0
S'Text'
p1
S'NEW on EBAY: Apple iPhone 6 - 64GB - Gold (Unlocked) Smartphone https://t.co/V1OGCtWVUS https://t.co/JwpNw1AAnr'
p2
sS'Created At'
p3
S'2015-11-28 20:21:55'
p4
s.(dp0
S'Text'
p1
S"I'm playing Alice's Wonderland on my iPhone, on the app store: https://t.co/5nvvWvKwqd #Alice #Reflex https://t.co/HhddVRYt8s"
p2
sS'Created At'
p3
S'2015-11-28 20:21:55'
p4
s.(dp0
S'Text'
p1
S"I've harvested 817 of food!  https://t.co/csCk0sd4gN #android, #androidgames, #gameinsight"
p2
sS'Created At'
p3
S'2015-11-28 20:21:55'
p4
s.(dp0
S'Text'
p1
S'RT @Cute_Cravings: \xf0\x9f\x8e\x84 SATURDAY SALE \xf0\x9f\x8e\x84\n\nOur Holiday Glitter Phone Cases are on Sale!!\n\nEnds TONIGHT! \xe2\x9b\x84\xef\xb8\x8f\xf0\x9f\x8e\x80\n\n\xf0\x9f\x91\x89\xf0\x9f\x8f\xbchttps://t.co/b6G9g6hAh5\xf0\x9f\x91\x88\xf0\x9f\x8f\xbc https:/\xe2\x80\xa6'
p2
sS'Created At'
p3
S'2015-11-28 20:21:55'
p4
s.(dp0
S'Text'
p1
S'I just gained 16 new followers using this awesome #iPhone #app @twigrow:https://t.co/f5bVhqyLRz'
p2
sS'Created At'
p3
S'2015-11-28 20:21:55'
p4
s.(dp0
S'Text'
p1
S'@UltimateKing24 BRO WHATS MIN IOS SPONSOR'
p2
sS'Created At'
p3
S'2015-11-28 20:21:56'
p4
s.(dp0
S'Text'
p1
S'Ever Wondered Why You Get Two Different Choices To Answer Calls On Your iPhone? https://t.co/Na4Q8ivgZ9'
p2
sS'Created At'
p3
S'2015-11-28 20:21:56'
p4
s.(dp0
S'Text'
p1
S'NEW on EBAY: Apple iPhone 6 - 16GB-Smartphone -Silver With Black Stand Up Case https://t.co/odTU6Ry8xK https://t.co/eYKonxARNv'
p2
sS'Created At'
p3
S'2015-11-28 20:21:56'
p4
s.(dp0
S'Text'
p1
S'RT @Cute_Cravings: \xf0\x9f\x8e\x84 SATURDAY SALE \xf0\x9f\x8e\x84\n\nOur Holiday Glitter Phone Cases are on Sale!!\n\nEnds TONIGHT! \xe2\x9b\x84\xef\xb8\x8f\xf0\x9f\x8e\x80\n\n\xf0\x9f\x91\x89\xf0\x9f\x8f\xbchttps://t.co/b6G9g6hAh5\xf0\x9f\x91\x88\xf0\x9f\x8f\xbc https:/\xe2\x80\xa6'
p2
sS'Created At'
p3
S'2015-11-28 20:21:56'
p4
s.(dp0
S'Text'
p1
S'@misterleoni @richardcyates @stephenquin58 @AndyHa9on @Ratkat Restoring themes on Android is a PITA. Badly needs a system-wide dark theme.'
p2
sS'Created At'
p3
S'2015-11-28 20:21:56'
p4
s.(dp0
S'Text'
p1
S'I managed to chase enemies from the village! https://t.co/01mSm8ELVi\xc2\xa0#iphonegames, #iphone, #gameinsight'
p2
sS'Created At'
p3
S'2015-11-28 20:21:56'
p4
s.(dp0
S'Text'
p1
S"I've collected 29,340 gold coins!  https://t.co/Ho1VdUixiY #android, #androidgames, #gameinsight"
p2
sS'Created At'
p3
S'2015-11-28 20:21:56'
p4
s.(dp0
S'Text'
p1
S"I've harvested 1,169 of food!  https://t.co/Ho1VdUixiY #android, #androidgames, #gameinsight"
p2
sS'Created At'
p3
S'2015-11-28 20:21:57'
p4
s.(dp0
S'Text'
p1
S'NEW on EBAY: Unlocked Apple iPhone 6 16GB Space Gray (Verizon) https://t.co/NURVE4aYZQ https://t.co/DENblTBADa'
p2
sS'Created At'
p3
S'2015-11-28 20:21:57'
p4
s.(dp0
S'Text'
p1
S'\xc2\xa1Nuevo en Ebay! APPLE IPHONE 6S 16GB ROSE GOLD NEW STILL SEALED (VODAFONE) https://t.co/jc0cvI7IZh https://t.co/5GvKwamam0'
p2
sS'Created At'
p3
S'2015-11-28 20:21:57'
p4
s.(dp0
S'Text'
p1
S'RT @BieberholicFeel: iPhone 7 is way better tbh https://t.co/TscO1RoKth'
p2
sS'Created At'
p3
S'2015-11-28 20:21:57'
p4
s.(dp0
S'Text'
p1
S"I've collected 12,585 gold coins!  https://t.co/Aa0Vetfp0t #android, #androidgames, #gameinsight"
p2
sS'Created At'
p3
S'2015-11-28 20:21:57'
p4
s.(dp0
S'Text'
p1
S"I've collected 1,130 gold coins! https://t.co/01mSm8ELVi #iphone, #iphonegames, #gameinsight"
p2
sS'Created At'
p3
S'2015-11-28 20:21:58'
p4
s.(dp0
S'Text'
p1
S'RT @OplaRahman: Jailbreak iOS 9 Guide - https://t.co/ta4AZ0KVJV https://t.co/RA0edTUs6k'
p2
sS'Created At'
p3
S'2015-11-28 20:21:58'
p4
s.(dp0
S'Text'
p1
S'RT @BieberholicFeel: iPhone 7 is way better tbh https://t.co/TscO1RoKth'
p2
sS'Created At'
p3
S'2015-11-28 20:21:58'
p4
s.(dp0
S'Text'
p1
S'#Iphone 7 Design\xc2\xa0News https://t.co/lGJIyc5w4S'
p2
sS'Created At'
p3
S'2015-11-28 20:21:58'
p4
s.(dp0
S'Text'
p1
S'Enter to Win a Google Nexus 6P Android Smartphone @Androidheadline #android #nexus #nexus6p https://t.co/sj5RpfpuVd'
p2
sS'Created At'
p3
S'2015-11-28 20:21:58'
p4
s.(dp0
S'Text'
p1
S"RT @yoifeellike: the iphone charger that doesn't quite reach"
p2
sS'Created At'
p3
S'2015-11-28 20:21:58'
p4
s.(dp0
S'Text'
p1
S'RT @OplaRahman: Jailbreak iOS 9 Guide - https://t.co/ta4AZ0KVJV https://t.co/RA0edTUs6k'
p2
sS'Created At'
p3
S'2015-11-28 20:21:58'
p4
s.(dp0
S'Text'
p1
S'NEW on EBAY: Apple iPhone 6 (Latest Model) - 128GB - Gold (Verizon) Smartphone https://t.co/YmHqg0ldBn https://t.co/mAripbfV95'
p2
sS'Created At'
p3
S'2015-11-28 20:21:58'
p4
s.(dp0
S'Text'
p1
S'BEST DEALS : https://t.co/k6mmPMPplM #7543 Stereo Wireless Bluetooth Selfie Handsfree Headset Earphone For iPhone \xe2\x80\xa6 https://t.co/L7TNqx73KE'
p2
sS'Created At'
p3
S'2015-11-28 20:21:58'
p4
s.(dp0
S'Text'
p1
S"feel bad for crisbelys texting warnis cause he ain't team iPhone"
p2
sS'Created At'
p3
S'2015-11-28 20:21:59'
p4
s.(dp0
S'Text'
p1
S"I've harvested 280 of food!  https://t.co/ABSQWn5dwq #android, #androidgames, #gameinsight"
p2
sS'Created At'
p3
S'2015-11-28 20:21:59'
p4
s.(dp0
S'Text'
p1
S'@Netflixhelps iPhone'
p2
sS'Created At'
p3
S'2015-11-28 20:21:59'
p4
s.(dp0
S'Text'
p1
S'NEW on EBAY: NEW - Apple iPhone 6 - 16GB - Space Gray (Verizon) Smartphone https://t.co/gHhp8i1cTC https://t.co/rgLqsSRwuq'
p2
sS'Created At'
p3
S'2015-11-28 20:21:59'
p4
s.(dp0
S'Text'
p1
S'RT @kin_718: https://t.co/Z9DRi137Z6 for iphone n pc users "Vote For SHINee!" https://t.co/IcyYungoQh'
p2
sS'Created At'
p3
S'2015-11-28 20:21:59'
p4
s.(dp0
S'Text'
p1
S"I've collected 18,627 gold coins!  https://t.co/ExVrakhV6z #android, #androidgames, #gameinsight"
p2
sS'Created At'
p3
S'2015-11-28 20:21:59'
p4
s.(dp0
S'Text'
p1
S'Nice to meet Cheshire Jr.! Look for the new acquaintances in the streets of London! https://t.co/rh4gopmZib #Android #AndroidGames'
p2
sS'Created At'
p3
S'2015-11-28 20:21:59'
p4
s.(dp0
S'Text'
p1
S"I've collected 345,535 gold coins! https://t.co/X42vgcBGGi #iphone, #iphonegames, #gameinsight"
p2
sS'Created At'
p3
S'2015-11-28 20:22:00'
p4
s.(dp0
S'Text'
p1
S'NEW on EBAY: Apple iPhone 6 (Latest Model) - 16GB - Silver (Factory Unlocked) Smartphone.. https://t.co/4Szh9TDpPG https://t.co/i0PgGUV00J'
p2
sS'Created At'
p3
S'2015-11-28 20:22:00'
p4
s.(dp0
S'Text'
p1
S"I've finished the A Home for a Knight quest! Are you able to fulfil the same task? https://t.co/YVWQKoxHtW #android,#androidgames,#gam..."
p2
sS'Created At'
p3
S'2015-11-28 20:22:00'
p4
s.(dp0
S'Text'
p1
S'Enter to Win a Google Nexus 5 Android Smartphone @Androidheadline #android #nexus #nexus5x  https://t.co/2lm60nONms'
p2
sS'Created At'
p3
S'2015-11-28 20:22:00'
p4
s.(dp0
S'Text'
p1
S'BEST DEALS : https://t.co/sfMUsqMMm1 #7543 Motorola XT1060 Moto X 16GB "Factory Unlocked" Android Smartphone https://t.co/dvDXlXIs0E'
p2
sS'Created At'
p3
S'2015-11-28 20:22:00'
p4
s.(dp0
S'Text'
p1
S'I got a reward: Master of Communication in BigBusiness Deluxe for Android https://t.co/YvlHJPkzZk #Androidgames #Android #Gameinsight'
p2
sS'Created At'
p3
S'2015-11-28 20:22:00'
p4
s.(dp0
S'Text'
p1
S'NEW on EBAY: Apple iPhone 6 (Latest Model) - 16GB - Space Grey (Verizon) Smartphone https://t.co/6BdosVFlFT https://t.co/sS8ue8mehi'
p2
sS'Created At'
p3
S'2015-11-28 20:22:01'
p4
s.(dp0
S'Text'
p1
S'@MaxdMerc @metal_kettle @StacyStacymc @OG_s7eele  @Gills4lifeMark \nAndroid without Root is like a Ferrari without Engine and life is too'
p2
sS'Created At'
p3
S'2015-11-28 20:22:01'
p4
s.(dp0
S'Text'
p1
S'@pcrtynextweeknd lmaoo my iPhone be doing shit like that too. Buy an SD Card'
p2
sS'Created At'
p3
S'2015-11-28 20:22:01'
p4
s.(dp0
S'Text'
p1
S'RT @AmazeGear: Congrats @jessicawalshey DM us to claim your iPhone :)'
p2
sS'Created At'
p3
S'2015-11-28 20:22:01'
p4
s.(dp0
S'Text'
p1
S"Cortana for iOS beta arrives (but it isn't for everyone): Here\xe2\x80\x99s some\xe2\x80\xa6 https://t.co/dQ0qzWdsov #Tech #Apple #Mac"
p2
sS'Created At'
p3
S'2015-11-28 20:22:01'
p4
s.(dp0
S'Text'
p1
S'#OneClickRoot: How-To Safely #Root #sony lt25i (Build: 9\xe2\x80\xa42\xe2\x80\xa4a\xe2\x80\xa41\xe2\x80\xa4210) Running #Android 4.3 https://t.co/MGqfHSdC4D'
p2
sS'Created At'
p3
S'2015-11-28 20:22:02'
p4
s.(dp0
S'Text'
p1
S'RT @TheSexology: Ever Wondered Why You Get Two Different Choices To Answer Calls On Your iPhone? https://t.co/UN1ENlurUf'
p2
sS'Created At'
p3
S'2015-11-28 20:22:02'
p4
s.(dp0
S'Text'
p1
S'New BLU Studio G 5.0 5MP HD Dual Sim Android v5.1 Unlocked GSM D790U Black:  $84.99End Date: Friday Dec-4-2015... https://t.co/W6Y9d52Go7'
p2
sS'Created At'
p3
S'2015-11-28 20:22:02'
p4
s.(dp0
S'Text'
p1
S'#OneClickRoot: How-To Safely #Root #apple lphone 5s Running #Android 4.2.2 https://t.co/B5yKX82sJa'
p2
sS'Created At'
p3
S'2015-11-28 20:22:02'
p4
s.(dp0
S'Text'
p1
S'#OneClickRoot: How-To Safely #Root #motorola xt320 Running #Android 2.3.6 https://t.co/ifdvHY0Zcq'
p2
sS'Created At'
p3
S'2015-11-28 20:22:02'
p4
s.(dp0
S'Text'
p1
S"Can't touch a bitch that has an Android"
p2
sS'Created At'
p3
S'2015-11-28 20:22:03'
p4
s.(dp0
S'Text'
p1
S"RT @Dory: Why do android snapchats look like they're from the 1800's https://t.co/2XWU9JpTi5"
p2
sS'Created At'
p3
S'2015-11-28 20:22:03'
p4
s.(dp0
S'Text'
p1
S"Woman finds stranger's photos &amp; messages on her 'new' iPhone - FOX 5 Atlanta https://t.co/qlDPpkbFdN"
p2
sS'Created At'
p3
S'2015-11-28 20:22:03'
p4
s.(dp0
S'Text'
p1
S'I just gained 5 new followers using this awesome #iPhone #app @twigrow:https://t.co/rrXYRDbANz'
p2
sS'Created At'
p3
S'2015-11-28 20:22:03'
p4
s.(dp0
S'Text'
p1
S'#tablets Apple iPad 2 64GB, Wi-Fi + 3G (AT&amp;T), 9.7in - Black (MC775LL/A):  $142.50 (25 Bids)End Date:... https://t.co/0FKmX5Y1cL #android'
p2
sS'Created At'
p3
S'2015-11-28 20:22:03'
p4
s.(dp0
S'Text'
p1
S'Enter to Win "The Great Android Holiday Giveaway" from https://t.co/d69I8PvO8R https://t.co/Cr6Q5Hjo4e ,  Over 25 #Android Prizes to be Won!'
p2
sS'Created At'
p3
S'2015-11-28 20:22:04'
p4
s.(dp0
S'Text'
p1
S'10 keep from apps cause your immature android sound propagation!: krNihO'
p2
sS'Created At'
p3
S'2015-11-28 20:22:04'
p4
s.(dp0
S'Text'
p1
S'#tablets Apple iPad Pro 128GB, Wi-Fi + 4G (Apple SIM), 12.9in - Space Gray (Latest Model): $1,100.00 ... https://t.co/ttEZjVZROy #android'
p2
sS'Created At'
p3
S'2015-11-28 20:22:04'
p4
s.(dp0
S'Text'
p1
S'RT @OplaRahman: Jailbreak iOS 9 Guide - https://t.co/ta4AZ0KVJV https://t.co/RA0edTUs6k'
p2
sS'Created At'
p3
S'2015-11-28 20:22:04'
p4
s.(dp0
S'Text'
p1
S'Check out the "Ultimate Holiday Tech Gift Guide 2015 \xe2\x80\x93 2016" Tons of #android and tech gift Ideas https://t.co/rwg2LyOJ2g #christmas #xmas'
p2
sS'Created At'
p3
S'2015-11-28 20:22:04'
p4
s.(dp0
S'Text'
p1
S'Top iOS news of the week:Apple Pay in China, OLED iPhones, and ... https://t.co/TowVz3Dc4Z'
p2
sS'Created At'
p3
S'2015-11-28 20:22:04'
p4
s.(dp0
S'Text'
p1
S"I've collected 21,102 gold coins! https://t.co/XbdVszloyj #iphone, #iphonegames, #gameinsight"
p2
sS'Created At'
p3
S'2015-11-28 20:22:04'
p4
s.(dp0
S'Text'
p1
S': Hardloop armband iPhone of Samsung https://t.co/aBKOkqEd03 #dagaanbieding https://t.co/24hH5r2Zof'
p2
sS'Created At'
p3
S'2015-11-28 20:22:05'
p4
s.(dp0
S'Text'
p1
S"I have completed the quest 'Collect income f...' in the #Android game The Tribez.  https://t.co/IekhlYyGQr #androidgames, #gameinsight"
p2
sS'Created At'
p3
S'2015-11-28 20:22:06'
p4
s.(dp0
S'Text'
p1
S'RT @Cute_Cravings: \xf0\x9f\x8e\x84 SATURDAY SALE \xf0\x9f\x8e\x84\n\nOur Holiday Glitter Phone Cases are on Sale!!\n\nEnds TONIGHT! \xe2\x9b\x84\xef\xb8\x8f\xf0\x9f\x8e\x80\n\n\xf0\x9f\x91\x89\xf0\x9f\x8f\xbchttps://t.co/b6G9g6hAh5\xf0\x9f\x91\x88\xf0\x9f\x8f\xbc https:/\xe2\x80\xa6'
p2
sS'Created At'
p3
S'2015-11-28 20:22:06'
p4
s.(dp0
S'Text'
p1
S"I've harvested 1,027 of food!  https://t.co/Pdf8eDAgSU #android, #androidgames, #gameinsight"
p2
sS'Created At'
p3
S'2015-11-28 20:22:06'
p4
s.(dp0
S'Text'
p1
S"WIN #WIN #iPhone6 -We're giving away an iPhone 6 thanks to @Pursha_com To enter, re-tweet &amp; Follow us! #competition https://t.co/vw8K8KrS7g"
p2
sS'Created At'
p3
S'2015-11-28 20:22:06'
p4
s.(dp0
S'Text'
p1
S'Why not try the @ReflexGamingLtd app, now on Android! https://t.co/4q0frJY3jH'
p2
sS'Created At'
p3
S'2015-11-28 20:22:06'
p4
s.(dp0
S'Text'
p1
S'RT @tinatbh: No offense but android snapchats look like photographs from the American civil war'
p2
sS'Created At'
p3
S'2015-11-28 20:22:07'
p4
s.(dp0
S'Text'
p1
S'RT @UltimateKing24: I dont take IOS sponsors anymore.. untill tonight going to make all my followers happy now'
p2
sS'Created At'
p3
S'2015-11-28 20:22:07'
p4
s.(dp0
S'Text'
p1
S'#iphone apps download email attachment https://t.co/x7wmL5cxyj'
p2
sS'Created At'
p3
S'2015-11-28 20:22:07'
p4
s.(dp0
S'Text'
p1
S'Fucked around and bought the iPhone 6s Plus'
p2
sS'Created At'
p3
S'2015-11-28 20:22:07'
p4
s.(dp0
S'Text'
p1
S"I've finished the Beautiful Garden quest! Are you able to fulfil the same task? https://t.co/HGR9D7fJCx #android,#androidgames,#gamein..."
p2
sS'Created At'
p3
S'2015-11-28 20:22:07'
p4
s.(dp0
S'Text'
p1
S'Instagram Quietly Testing Multiple Account Support on Android; Photographers Rejoice: \nIn a move sure to delig... https://t.co/o36UlJRBoy'
p2
sS'Created At'
p3
S'2015-11-28 20:22:07'
p4
s.(dp0
S'Text'
p1
S'Instagram Quietly Testing Multiple Account Support on Android; Photographers Rejoice: \nIn a move sure to delig... https://t.co/mM9ZjIt9IZ'
p2
sS'Created At'
p3
S'2015-11-28 20:22:08'
p4
s.(dp0
S'Text'
p1
S'RT @OplaRahman: Jailbreak iOS 9 Guide - https://t.co/ta4AZ0KVJV https://t.co/RA0edTUs6k'
p2
sS'Created At'
p3
S'2015-11-28 20:22:08'
p4
s.(dp0
S'Text'
p1
S'{Fstoppers} Instagram Quietly Testing Multiple Account Support on Android; Photographers Rejoice: \nIn a move s... https://t.co/QfemJtgS7G'
p2
sS'Created At'
p3
S'2015-11-28 20:22:08'
p4
s.(dp0
S'Text'
p1
S'I have Warehouse on my island! Now my island is even more awesome!  https://t.co/dOxg32e5H0 #android, #androidgames, #gameinsight'
p2
sS'Created At'
p3
S'2015-11-28 20:22:08'
p4
s.(dp0
S'Text'
p1
S'RT @ShitChallenge: @ShitChallenge start the next step!\nGet an iPhone for free!*\nVisit: https://t.co/26lOKqRqLN https://t.co/A5ObkoNi5O'
p2
sS'Created At'
p3
S'2015-11-28 20:22:08'
p4
s.(dp0
S'Text'
p1
S'Instagram Quietly Testing Multiple Account Support on Android; Photographers Rejoice: \nIn a move sure to delig... https://t.co/fmNhK1zYqo'
p2
sS'Created At'
p3
S'2015-11-28 20:22:09'
p4
s.(dp0
S'Text'
p1
S"Ever wondered what Apple's Activation Lock is and how to remove it? Wonder no more! #iPhone #iPad https://t.co/fNEDqFEQNR"
p2
sS'Created At'
p3
S'2015-11-28 20:22:09'
p4
s.(dp0
S'Text'
p1
S'ALWAYS ON POP FOR YOU RADIO: black box revelation: Shadowman  \nFREE IPHONE APP:\nhttps://t.co/nJQ1yBlhpa'
p2
sS'Created At'
p3
S'2015-11-28 20:22:09'
p4
s.(dp0
S'Text'
p1
S'Instagram Quietly Testing Multiple Account Support on Android; Photographers Rejoice: \nIn a move sure to delig... https://t.co/N8SHCs5rE9'
p2
sS'Created At'
p3
S'2015-11-28 20:22:09'
p4
s.(dp0
S'Text'
p1
S"New Victoria's Secret PINK In Ear Buds Headphones iPhone iPod RARE FIND!!  - Bid Now! Only\xe2\x80\xa6 https://t.co/gqTg5u5AjV https://t.co/ahz0gMzDA9"
p2
sS'Created At'
p3
S'2015-11-28 20:22:10'
p4
s.(dp0
S'Text'
p1
S'Instagram Quietly Testing Multiple Account Support on Android; Photographers Rejoice: \nIn a move sure to delig... https://t.co/XKsgqx3u00'
p2
sS'Created At'
p3
S'2015-11-28 20:22:10'
p4
s.(dp0
S'Text'
p1
S'#windows First Version of Cortana for iOS is Rolling Out to Testers: ... the walled garden appr... https://t.co/TKziZQf04q #windows-phone'
p2
sS'Created At'
p3
S'2015-11-28 20:22:10'
p4
s.(dp0
S'Text'
p1
S"I've harvested 1,080 of food!  https://t.co/71LjKBSjno #android, #androidgames, #gameinsight"
p2
sS'Created At'
p3
S'2015-11-28 20:22:10'
p4
s.(dp0
S'Text'
p1
S'awesome_3D: Where is your iPhone ? #QUPP'
p2
sS'Created At'
p3
S'2015-11-28 20:22:10'
p4
s.(dp0
S'Text'
p1
S'Download the Bury FC Fan App for iOS https://t.co/QNMfiU9Z8A &amp; Android https://t.co/vOcdNfcJXo FREE! https://t.co/fjCcv4EbhR'
p2
sS'Created At'
p3
S'2015-11-28 20:22:10'
p4
s.(dp0
S'Text'
p1
S"I've harvested 472 of food!  https://t.co/HisxSxEhtn #android, #androidgames, #gameinsight"
p2
sS'Created At'
p3
S'2015-11-28 20:22:10'
p4
s.(dp0
S'Text'
p1
S'I finished the "Treats for Tour..." task in Big Business Deluxe for Android! https://t.co/OPZeklN9Cc #Android #Gameinsight #Androidgames'
p2
sS'Created At'
p3
S'2015-11-28 20:22:10'
p4
s.(dp0
S'Text'
p1
S"I've collected 1,610 gold coins!  https://t.co/HisxSxEhtn #android, #androidgames, #gameinsight"
p2
sS'Created At'
p3
S'2015-11-28 20:22:10'
p4
s.(dp0
S'Text'
p1
S"I've collected 4,516 gold coins!  https://t.co/uhyelTDkFF #android, #androidgames, #gameinsight"
p2
sS'Created At'
p3
S'2015-11-28 20:22:10'
p4
s.(dp0
S'Text'
p1
S'RT @UltimateKing24: I dont take IOS sponsors anymore.. untill tonight going to make all my followers happy now'
p2
sS'Created At'
p3
S'2015-11-28 20:22:11'
p4
s.(dp0
S'Text'
p1
S'Two girls next to me staring at an iPhone in Starbucks: "He\'s cute, but he goes to Florida State" Smart girl...she swiped left. #FSUvsUF'
p2
sS'Created At'
p3
S'2015-11-28 20:22:11'
p4
s.(dp0
S'Text'
p1
S"I'm earning #mPLUSRewards in Cut Da Deck Android. https://t.co/Dm4CcGd33g"
p2
sS'Created At'
p3
S'2015-11-28 20:22:11'
p4
s.(dp0
S'Text'
p1
S'Wireless Bluetooth Headset HD Voice wind Noise Headphones for Jabra  iphone HTC - Bid Now!\xe2\x80\xa6 https://t.co/dLFbLvmd0F https://t.co/M5tsF89uad'
p2
sS'Created At'
p3
S'2015-11-28 20:22:11'
p4
s.(dp0
S'Text'
p1
S'Idk why i cant moving on from see an iphone such as priceless diamond white in the world'
p2
sS'Created At'
p3
S'2015-11-28 20:22:12'
p4
s.(dp0
S'Text'
p1
S'#iphone #apple Deals https://t.co/LoCbAcfbjh #7462 Apple iPhone 5S (Factory Unlocked) AT&amp;T T-Mobile Verizon Gold S\xe2\x80\xa6 https://t.co/MsMBExMjsX'
p2
sS'Created At'
p3
S'2015-11-28 20:22:11'
p4
s.(dp0
S'Text'
p1
S"New Victoria's Secret PINK In Ear Buds Headphones iPhone iPod RARE FIND!!  - Bid Now! Only\xe2\x80\xa6 https://t.co/n1wgWzVymJ https://t.co/cKtko5MeIL"
p2
sS'Created At'
p3
S'2015-11-28 20:22:12'
p4
s.(dp0
S'Text'
p1
S"I've collected 11,295 gold coins!  https://t.co/x0v9JsVKWj #android, #androidgames, #gameinsight"
p2
sS'Created At'
p3
S'2015-11-28 20:22:12'
p4
s.(dp0
S'Text'
p1
S'RT @charlieINTEL: #CODHeroes for iOS &amp; Android update: new #BlackOps3 specialists now available in game. https://t.co/DiWTiINk7t'
p2
sS'Created At'
p3
S'2015-11-28 20:22:12'
p4
s.(dp0
S'Text'
p1
S'Um no. "Report: Apple plans to nix 3.5mm port on iPhone 7, require Lightning for wired headphone" - 9to5Mac https://t.co/3ayOGqdtYz'
p2
sS'Created At'
p3
S'2015-11-28 20:22:12'
p4
s.(dp0
S'Text'
p1
S'#iphone #apple Deals https://t.co/ZWRaS2QtUR #6793 Apple iPhone 5 - 16 / 32 / 64GB - (Factory Unlocked) Smartphone\xe2\x80\xa6 https://t.co/UXYEF305LQ'
p2
sS'Created At'
p3
S'2015-11-28 20:22:12'
p4
s.(dp0
S'Text'
p1
S"RT @TheLiberal_ie: WIN #WIN #iPhone6 -We're giving away an iPhone 6 thanks to @Pursha_com To enter, re-tweet &amp; Follow us! #competition http\xe2\x80\xa6"
p2
sS'Created At'
p3
S'2015-11-28 20:22:12'
p4
s.(dp0
S'Text'
p1
S"Apple Loop: Frustration At iPad Pro, New iPhone 7 Leaks, Tim Cook's Report Card"
p2
sS'Created At'
p3
S'2015-11-28 20:22:13'
p4
s.(dp0
S'Text'
p1
S"I've reached level 10 in Big Business Deluxe for Android https://t.co/Y7o0xnGJfv #Gameinsight #Androidgames #Android"
p2
sS'Created At'
p3
S'2015-11-28 20:22:13'
p4
s.(dp0
S'Text'
p1
S'RT @tinatbh: No offense but android snapchats look like photographs from the American civil war'
p2
sS'Created At'
p3
S'2015-11-28 20:22:13'
p4
s.(dp0
S'Text'
p1
S'IOS Gas Cubby \xe2\x80\xa2 MPG &amp; Car... V 2.0.1 IPA Free Download - https://t.co/UjNBWMvb1o https://t.co/aAJbkkraZW'
p2
sS'Created At'
p3
S'2015-11-28 20:22:13'
p4
s.(dp0
S'Text'
p1
S'#iphone #apple Deals https://t.co/FDKRP4YnD3 #3931 Apple iPhone 5 - 16GB - (Factory Unlocked) Smartphone - White o\xe2\x80\xa6 https://t.co/EX7hKfSkOg'
p2
sS'Created At'
p3
S'2015-11-28 20:22:13'
p4
s.(dp0
S'Text'
p1
S'Wireless Bluetooth Headset HD Voice wind Noise Headphones for Jabra  iphone HTC - Bid Now!\xe2\x80\xa6 https://t.co/PdxHTPLGEx https://t.co/bH0IIiTjKI'
p2
sS'Created At'
p3
S'2015-11-28 20:22:13'
p4
s.(dp0
S'Text'
p1
S"I've collected 8,693 gold coins!  https://t.co/LLFw1GL5as #android, #androidgames, #gameinsight"
p2
sS'Created At'
p3
S'2015-11-28 20:22:13'
p4
s.(dp0
S'Text'
p1
S'#iphone #apple Deals https://t.co/LjoskT1QNU #4937 Apple iPhone 6 Gray Gold Silver 64GB (Factory Unlocked) Excelle\xe2\x80\xa6 https://t.co/PkyHRRR4KA'
p2
sS'Created At'
p3
S'2015-11-28 20:22:13'
p4
s.(dp0
S'Text'
p1
S"I've collected 24,515 gold coins!  https://t.co/sNPWIjMeht #android, #androidgames, #gameinsight"
p2
sS'Created At'
p3
S'2015-11-28 20:22:13'
p4
s.(dp0
S'Text'
p1
S'iOS Instagram asking to like photos. https://t.co/J5N6VRY9in'
p2
sS'Created At'
p3
S'2015-11-28 20:22:14'
p4
s.(dp0
S'Text'
p1
S'Favorite this if you want to get one of these iPhone cases \xf0\x9f\x98\x8a\xf0\x9f\x98\x8a'
p2
sS'Created At'
p3
S'2015-11-28 20:22:14'
p4
s.(dp0
S'Text'
p1
S"I've collected 105,400 gold coins!  https://t.co/Ho1VdUixiY #android, #androidgames, #gameinsight"
p2
sS'Created At'
p3
S'2015-11-28 20:22:14'
p4
s.(dp0
S'Text'
p1
S'#iphone #apple Deals https://t.co/LoCbAcfbjh #8795 Apple iPhone 5S (Factory Unlocked) AT&amp;T T-Mobile Verizon Gold S\xe2\x80\xa6 https://t.co/dTTb5gxJyh'
p2
sS'Created At'
p3
S'2015-11-28 20:22:14'
p4
s.(dp0
S'Text'
p1
S'RT @BieberholicFeel: iPhone 7 is way better tbh https://t.co/TscO1RoKth'
p2
sS'Created At'
p3
S'2015-11-28 20:22:14'
p4
s.(dp0
S'Text'
p1
S'#iphone #apple Deals https://t.co/FrPlN3zvdH #8214 Apple iPhone 5s 16GB a1533 Verizon Unlocked Gold Gray Silver https://t.co/gs3AqGqSIM'
p2
sS'Created At'
p3
S'2015-11-28 20:22:14'
p4
s.(dp0
S'Text'
p1
S"I've collected 42,335 gold coins!  https://t.co/2ofvQfePLO #android, #androidgames, #gameinsight"
p2
sS'Created At'
p3
S'2015-11-28 20:22:15'
p4
s.(dp0
S'Text'
p1
S'#iphone #apple Deals https://t.co/scwzI3LyXH #2499 Apple iPhone 5s 16GB a1533 Verizon Unlocked Silver Gold or Gray https://t.co/e6tORbpkCC'
p2
sS'Created At'
p3
S'2015-11-28 20:22:15'
p4
s.(dp0
S'Text'
p1
S"I've collected 25,022 gold coins!  https://t.co/S5kWIVfLFq #android, #androidgames, #gameinsight"
p2
sS'Created At'
p3
S'2015-11-28 20:22:15'
p4
s.(dp0
S'Text'
p1
S'RT @BieberholicFeel: iPhone 7 is way better tbh https://t.co/TscO1RoKth'
p2
sS'Created At'
p3
S'2015-11-28 20:22:15'
p4
s.(dp0
S'Text'
p1
S'I finished the "Clothing for All" task in Big Business Deluxe for Android! https://t.co/l2toQ49A0a #Gameinsight #Androidgames #Android'
p2
sS'Created At'
p3
S'2015-11-28 20:22:15'
p4
s.(dp0
S'Text'
p1
S'When your iPhone 6 gets ran over by a car. https://t.co/Q8xU64Uwaz'
p2
sS'Created At'
p3
S'2015-11-28 20:22:15'
p4
s.(dp0
S'Text'
p1
S"I've harvested 1,130 of food!  https://t.co/ExVrakhV6z #android, #androidgames, #gameinsight"
p2
sS'Created At'
p3
S'2015-11-28 20:22:16'
p4
s.(dp0
S'Text'
p1
S'The whatfor riddance an apple iphone?: dEnA'
p2
sS'Created At'
p3
S'2015-11-28 20:22:16'
p4
s.(dp0
S'Text'
p1
S'Instagram Quietly Testing Multiple Account Support on Android; Photographers Rejoice: \nIn a move sure to delig...... https://t.co/LUz09xgXZS'
p2
sS'Created At'
p3
S'2015-11-28 20:22:16'
p4
s.(dp0
S'Text'
p1
S"I'm using Bone Counter Free on iOS to add Dominoes! Follow @cweschapps and check it out here, https://t.co/mXdKQok9W2"
p2
sS'Created At'
p3
S'2015-11-28 20:22:16'
p4
s.(dp0
S'Text'
p1
S'If I switch from android to IPhone will I get more hoes ?'
p2
sS'Created At'
p3
S'2015-11-28 20:22:17'
p4
s.(dp0
S'Text'
p1
S'RT @ShitChallenge: @ShitChallenge start the next step!\nGet an iPhone for free!*\nVisit: https://t.co/26lOKqRqLN https://t.co/A5ObkoNi5O'
p2
sS'Created At'
p3
S'2015-11-28 20:22:17'
p4
s.(dp0
S'Text'
p1
S'Bubble shooters have never been so cool! #MGWV\n\xf0\x9f\x94\x85Bubble Monsters! &gt; iOS: https://t.co/tSyxGiP9ho https://t.co/nrYA11Bh9n'
p2
sS'Created At'
p3
S'2015-11-28 20:22:17'
p4
s.(dp0
S'Text'
p1
S'1 awesome users just followed me. Via @FindUnfollower https://t.co/p17gAk5oto. #iPhone #App'
p2
sS'Created At'
p3
S'2015-11-28 20:22:17'
p4
s.(dp0
S'Text'
p1
S'Instagram Quietly Testing Multiple Account Support on Android; Photographers Rejoice | Fstoppers https://t.co/caRHMJCse0'
p2
sS'Created At'
p3
S'2015-11-28 20:22:17'
p4
s.(dp0
S'Text'
p1
S'Instagram Quietly Testing Multiple Account Support on Android; Photographers Rejoice: \nIn a move sure to delig...... https://t.co/kXCG0xhu1u'
p2
sS'Created At'
p3
S'2015-11-28 20:22:18'
p4
s.(dp0
S'Text'
p1
S'RT @josesalinas220: If someone wants to give me an iPhone 6 for Christmas I will gladly give it a nice home \xf0\x9f\x98\x8a'
p2
sS'Created At'
p3
S'2015-11-28 20:22:18'
p4
s.(dp0
S'Text'
p1
S"I'm using Instagram++ for iOS by @unlimapps to add new features to Instagram! https://t.co/PiJ9sVW0Hr"
p2
sS'Created At'
p3
S'2015-11-28 20:22:18'
p4
s.(dp0
S'Text'
p1
S"I've collected 16,000 gold coins!  https://t.co/7qF4YN2XBQ #android, #androidgames, #gameinsight"
p2
sS'Created At'
p3
S'2015-11-28 20:22:18'
p4
s.(dp0
S'Text'
p1
S"I've harvested 1,358 of food!  https://t.co/za5P6Zpg6d #iphone, #iphonegames, #gameinsight"
p2
sS'Created At'
p3
S'2015-11-28 20:22:18'
p4
s.(dp0
S'Text'
p1
S"I've finished the Send 3 invitations quest! Are you able to fulfil the same task? https://t.co/IsGMrB0P7o #android,#androidgames,#game..."
p2
sS'Created At'
p3
S'2015-11-28 20:22:18'
p4
s.(dp0
S'Text'
p1
S'RT @Moegan_Mechelle: So true. \xf0\x9f\x98\x94 https://t.co/iCWDNQLlJL'
p2
sS'Created At'
p3
S'2015-11-28 20:22:19'
p4
s.(dp0
S'Text'
p1
S"New Victoria's Secret PINK In Ear Buds Headphones iPhone iPod RARE FIND!!  - Bid Now! Only\xe2\x80\xa6 https://t.co/DIcJXhGvpS https://t.co/Ekah0kvdc0"
p2
sS'Created At'
p3
S'2015-11-28 20:22:18'
p4
s.(dp0
S'Text'
p1
S"I've harvested 1,300 of food!  https://t.co/ALzTdWTfAX #android, #androidgames, #gameinsight"
p2
sS'Created At'
p3
S'2015-11-28 20:22:19'
p4
s.(dp0
S'Text'
p1
S'I have reached level 41 in Cat Story https://t.co/sjerd9mqj5 #Android, #AndroidGames, #GameInsight'
p2
sS'Created At'
p3
S'2015-11-28 20:22:19'
p4
s.(dp0
S'Text'
p1
S'I upgraded my Bazaar and can now order: Efreet in a Vase! https://t.co/wNjUS0qhgd #android,#androidgames,#gameinsight'
p2
sS'Created At'
p3
S'2015-11-28 20:22:19'
p4
s.(dp0
S'Text'
p1
S"What's this trash..... \xf0\x9f\x92\x81 \xf0\x9f\x92\x81 \xf0\x9f\x92\x81 \xf0\x9f\x92\x81 \xf0\x9f\x92\x81 \xf0\x9f\x92\x81  https://t.co/eJ5Iv6O0xA"
p2
sS'Created At'
p3
S'2015-11-28 20:22:19'
p4
s.(dp0
S'Text'
p1
S"I've finished the Guardian of Crops quest! Are you able to fulfil the same task? https://t.co/IFIJ87LIps #android,#androidgames,#gamei..."
p2
sS'Created At'
p3
S'2015-11-28 20:22:20'
p4
s.(dp0
S'Text'
p1
S'Black Friday Deals: 17 iPhone and iPad Games Available at Amazing Prices - NDTV https://t.co/YaUk6krsZx'
p2
sS'Created At'
p3
S'2015-11-28 20:22:20'
p4
s.(dp0
S'Text'
p1
S'RT @ForbesTech: New leak reveals that Apple may soon abandon the headphone jack for the iPhone: https://t.co/cLA0mVG5Bp https://t.co/IotIHA\xe2\x80\xa6'
p2
sS'Created At'
p3
S'2015-11-28 20:22:20'
p4
s.(dp0
S'Text'
p1
S'RT @OplaRahman: Jailbreak iOS 9 Guide - https://t.co/ta4AZ0KVJV https://t.co/RA0edTUs6k'
p2
sS'Created At'
p3
S'2015-11-28 20:22:20'
p4
s.(dp0
S'Text'
p1
S"RT @TheLiberal_ie: WIN #WIN #iPhone6 -We're giving away an iPhone 6 thanks to @Pursha_com To enter, re-tweet &amp; Follow us! #competition http\xe2\x80\xa6"
p2
sS'Created At'
p3
S'2015-11-28 20:22:20'
p4
s.(dp0
S'Text'
p1
S'RT @ShitChallenge: @ShitChallenge start the next step!\nGet an iPhone for free!*\nVisit: https://t.co/26lOKqRqLN https://t.co/A5ObkoNi5O'
p2
sS'Created At'
p3
S'2015-11-28 20:22:20'
p4
s.(dp0
S'Text'
p1
S'When you type "you" but your iPhone is persistent on putting "toy" instead.'
p2
sS'Created At'
p3
S'2015-11-28 20:22:21'
p4
s.(dp0
S'Text'
p1
S'Wireless Bluetooth Headset HD Voice wind Noise Headphones for Jabra  iphone HTC - Bid Now!\xe2\x80\xa6 https://t.co/ALMdh3CJZ2 https://t.co/adpIczAU9U'
p2
sS'Created At'
p3
S'2015-11-28 20:22:20'
p4
s.(dp0
S'Text'
p1
S'RT @BieberholicFeel: iPhone 7 is way better tbh https://t.co/TscO1RoKth'
p2
sS'Created At'
p3
S'2015-11-28 20:22:21'
p4
s.(dp0
S'Text'
p1
S"RT @TheLiberal_ie: WIN #WIN #iPhone6 -We're giving away an iPhone 6 thanks to @Pursha_com To enter, re-tweet &amp; Follow us! #competition http\xe2\x80\xa6"
p2
sS'Created At'
p3
S'2015-11-28 20:22:21'
p4
s.(dp0
S'Text'
p1
S"I have completed the quest 'Mysteries of the...' in the #Android game The Tribez.  https://t.co/HYpst1KwzW #androidgames, #gameinsight"
p2
sS'Created At'
p3
S'2015-11-28 20:22:21'
p4
s.(dp0
S'Text'
p1
S'RT @ImYayaDub: iPhone 7 \xf0\x9f\x98\xb1\xf0\x9f\x98\xb1 http://t.co/geYOFGV65c'
p2
sS'Created At'
p3
S'2015-11-28 20:22:21'
p4
s.(dp0
S'Text'
p1
S"I've harvested 303 of food!  https://t.co/gxvxJvzC8e #android, #androidgames, #gameinsight"
p2
sS'Created At'
p3
S'2015-11-28 20:22:22'
p4
s.(dp0
S'Text'
p1
S"Lookin for a iPhone 4 or 5 don't matter whether its 5s or 5c. Don't matter the price"
p2
sS'Created At'
p3
S'2015-11-28 20:22:22'
p4
s.(dp0
S'Text'
p1
S'Anyone have Xbox coins? Buying Xbox coins and card for IOS OR TOPPS RT AND IF I FIND A SELLER I WILL GIVEAWAY 5 mi\xe2\x80\xa6 https://t.co/7GDypz5tZ8'
p2
sS'Created At'
p3
S'2015-11-28 20:22:21'
p4
s.(dp0
S'Text'
p1
S'I have Trading Post on my island! Now my island is even more awesome!  https://t.co/h7tZhq94vg #android, #androidgames, #gameinsight'
p2
sS'Created At'
p3
S'2015-11-28 20:22:22'
p4
s.(dp0
S'Text'
p1
S"I've harvested 2,341 of food!  https://t.co/thIzvtLAnw #android, #androidgames, #gameinsight"
p2
sS'Created At'
p3
S'2015-11-28 20:22:22'
p4
s.(dp0
S'Text'
p1
S"I've harvested 1,310 of food!  https://t.co/K9xaENteBH #android, #androidgames, #gameinsight"
p2
sS'Created At'
p3
S'2015-11-28 20:22:22'
p4
s.(dp0
S'Text'
p1
S'RT @tinatbh: No offense but android snapchats look like photographs from the American civil war'
p2
sS'Created At'
p3
S'2015-11-28 20:22:23'
p4
s.(dp0
S'Text'
p1
S"I've harvested 752 of food!  https://t.co/1mgGFTFQvf #android, #androidgames, #gameinsight"
p2
sS'Created At'
p3
S'2015-11-28 20:22:23'
p4
s.(dp0
S'Text'
p1
S'Instagram Quietly Testing Multiple Account Support on Android; Photographers Rejoice https://t.co/KsBKr8OlM6 https://t.co/EvMVZsGSGr'
p2
sS'Created At'
p3
S'2015-11-28 20:22:23'
p4
s.(dp0
S'Text'
p1
S"I've collected 2,525 gold coins!  https://t.co/1mgGFTFQvf #android, #androidgames, #gameinsight"
p2
sS'Created At'
p3
S'2015-11-28 20:22:23'
p4
s.(dp0
S'Text'
p1
S"I've collected 80,475 gold coins!  https://t.co/thIzvtLAnw #android, #androidgames, #gameinsight"
p2
sS'Created At'
p3
S'2015-11-28 20:22:23'
p4
s.(dp0
S'Text'
p1
S'RT @icasnetwork2015: https://t.co/Ax1VqJuDEr Android M Coming soon - ICas @icasnetwork2015'
p2
sS'Created At'
p3
S'2015-11-28 20:22:24'
p4
s.(dp0
S'Text'
p1
S"I've harvested 1,041 of food!  https://t.co/dOxg32e5H0 #android, #androidgames, #gameinsight"
p2
sS'Created At'
p3
S'2015-11-28 20:22:24'
p4
s.(dp0
S'Text'
p1
S"I've collected 45,885 gold coins!  https://t.co/dOxg32e5H0 #android, #androidgames, #gameinsight"
p2
sS'Created At'
p3
S'2015-11-28 20:22:24'
p4
s.(dp0
S'Text'
p1
S"I've harvested 1,518 of food!  https://t.co/PIH9UpZidN #android, #androidgames, #gameinsight"
p2
sS'Created At'
p3
S'2015-11-28 20:22:24'
p4
s.(dp0
S'Text'
p1
S'RT @CydiaPlus: Top 10 Cydia Tweaks For The Pangu iOS 9.1 _ 9.2 Jailbreak https://t.co/KEJoqol33l'
p2
sS'Created At'
p3
S'2015-11-28 20:22:25'
p4
s.(dp0
S'Text'
p1
S'https://t.co/XY5TwcNSOd #6901 Apple iPhone 4s 16GB Smartphone AT&amp;T Factory Unlocked https://t.co/YKaromv2r5'
p2
sS'Created At'
p3
S'2015-11-28 20:22:25'
p4
s.(dp0
S'Text'
p1
S"RT @yoifeellike: the iphone charger that doesn't quite reach"
p2
sS'Created At'
p3
S'2015-11-28 20:22:25'
p4
s.(dp0
S'Text'
p1
S'5 Why Sell Your Iphone\xc2\xa04S https://t.co/0rR5xl4qP8 https://t.co/iq74POChj9'
p2
sS'Created At'
p3
S'2015-11-28 20:22:25'
p4
s.(dp0
S'Text'
p1
S"I've collected 1,059 gold coins!  https://t.co/kSH5oxAl1T #android, #androidgames, #gameinsight"
p2
sS'Created At'
p3
S'2015-11-28 20:22:25'
p4
s.(dp0
S'Text'
p1
S'https://t.co/0g2c02uw2T #1183 Apple iPhone 4S 8GB "Factory Unlocked" Black and White Smartphone https://t.co/xIPAp9Rrsv'
p2
sS'Created At'
p3
S'2015-11-28 20:22:25'
p4
s.(dp0
S'Text'
p1
S'comment things are good about this picture.. you got a iPhone!! and you got the job \xf0\x9f\x91\x8f\xf0\x9f\x8f\xbd\xf0\x9f\x99\x8c\xf0\x9f\x8f\xbd\xf0\x9f\x98\x85 Congrats  https://t.co/7sRrASbstW'
p2
sS'Created At'
p3
S'2015-11-28 20:22:26'
p4
s.(dp0
S'Text'
p1
S'My life is so easy and empty I actually have a strong opinion about the look of the new iPhone operating system.'
p2
sS'Created At'
p3
S'2015-11-28 20:22:26'
p4
s.(dp0
S'Text'
p1
S'https://t.co/N9ladpuMD7 #8582 AT&amp;T iPhone 5c 16GB Apple Factory Unlocked Smartphone Clean Esn https://t.co/5g7rnpSbHP'
p2
sS'Created At'
p3
S'2015-11-28 20:22:26'
p4
s.(dp0
S'Text'
p1
S'ultimate spiderman game on IOS and Google play #Gaming #Tsu #Screenshot #OrignalContent https://t.co/imvArG2pyL https://t.co/Mlxf1feN2n'
p2
sS'Created At'
p3
S'2015-11-28 20:22:26'
p4
s.(dp0
S'Text'
p1
S"I'm earning #mPLUSRewards in https://t.co/k1Z1x2YAaM for Android. https://t.co/NanZUXliAw @dictionarycom"
p2
sS'Created At'
p3
S'2015-11-28 20:22:26'
p4
s.(dp0
S'Text'
p1
S'https://t.co/HFoov4ZWX1 #1364 Apple iPhone 6 a1549 16GB (AT&amp;T) - Gold Silver or Gray https://t.co/oAIdVFM7nt'
p2
sS'Created At'
p3
S'2015-11-28 20:22:27'
p4
s.(dp0
S'Text'
p1
S'I have discovered a new territory in The Tribez! https://t.co/uhyelTDkFF  #android, #androidgames, #gameinsight'
p2
sS'Created At'
p3
S'2015-11-28 20:22:28'
p4
s.(dp0
S'Text'
p1
S'https://t.co/gNP405rfK7 #8716 Apple iPhone 5S 16GB "Factory Unlocked" 4G LTE iOS Smartphone https://t.co/92C4Di9ZHo'
p2
sS'Created At'
p3
S'2015-11-28 20:22:28'
p4
s.(dp0
S'Text'
p1
S'Statistics show a record high in mobile shopping, iOS users are leading the\xc2\xa0frenzy https://t.co/MXRABgOu2b'
p2
sS'Created At'
p3
S'2015-11-28 20:22:28'
p4
s.(dp0
S'Text'
p1
S"I've collected 23,135 gold coins!  https://t.co/D1IWgBVbA6 #android, #androidgames, #gameinsight"
p2
sS'Created At'
p3
S'2015-11-28 20:22:29'
p4
s.(dp0
S'Text'
p1
S"RT @Dory: Why do android snapchats look like they're from the 1800's https://t.co/2XWU9JpTi5"
p2
sS'Created At'
p3
S'2015-11-28 20:22:29'
p4
s.(dp0
S'Text'
p1
S"I've finished the Send 10 invitations quest! Are you able to fulfil the same task? https://t.co/lOLgCCd2Gn #android,#androidgames,#gam..."
p2
sS'Created At'
p3
S'2015-11-28 20:22:29'
p4
s.(dp0
S'Text'
p1
S'I have gained level 42 in The Tribez and Castlez! Can you achieve it as well? https://t.co/wNjUS0qhgd #android,#androidgames,#gameinsight'
p2
sS'Created At'
p3
S'2015-11-28 20:22:29'
p4
s.(dp0
S'Text'
p1
S"RT @heyifeellike: the iphone charger that doesn't quite reach"
p2
sS'Created At'
p3
S'2015-11-28 20:22:29'
p4
s.(dp0
S'Text'
p1
S'https://t.co/p8XQV1P66U #0138 Apple iPhone 5 16GB "Factory Unlocked" Black and White Smartphone https://t.co/DigZ2CQnf1'
p2
sS'Created At'
p3
S'2015-11-28 20:22:29'
p4
s.(dp0
S'Text'
p1
S'RT @iphonista555: Free Samurai game https://t.co/Ga4s8eX38a #iPhone #game #japan #samurai #ninja #\xe5\x88\x80\xe5\x89\xa3\xe4\xb9\xb1\xe8\x88\x9e #gamedev #\xe3\x82\xb2\xe3\x83\xbc\xe3\x83\xa0\xe5\x88\xb6\xe4\xbd\x9c #\xe5\x92\x8c\xe9\xa2\xa8 #\xe4\xbe\x8d #\xe5\xbf\x8d\xe8\x80\x85 #unity'
p2
sS'Created At'
p3
S'2015-11-28 20:22:29'
p4
s.(dp0
S'Text'
p1
S'RT @ShitChallenge: @ShitChallenge start the next step!\nGet an iPhone for free!*\nVisit: https://t.co/26lOKqRqLN https://t.co/A5ObkoNi5O'
p2
sS'Created At'
p3
S'2015-11-28 20:22:30'
p4
s.(dp0
S'Text'
p1
S"I've collected 42,800 gold coins!  https://t.co/Ho1VdUixiY #android, #androidgames, #gameinsight"
p2
sS'Created At'
p3
S'2015-11-28 20:22:30'
p4
s.(dp0
S'Text'
p1
S'I got a cool new iPhone case and screen protector today.  #starwarstheforceawakens #iphone6splus\xe2\x80\xa6 https://t.co/EZ8Q3OVX1T'
p2
sS'Created At'
p3
S'2015-11-28 20:22:30'
p4
s.(dp0
S'Text'
p1
S"RT @Dory: Why do android snapchats look like they're from the 1800's https://t.co/2XWU9JpTi5"
p2
sS'Created At'
p3
S'2015-11-28 20:22:30'
p4
s.(dp0
S'Text'
p1
S"I've finished the Send 2 invitations quest! Are you able to fulfil the same task? https://t.co/g4sivuD1RR #android,#androidgames,#game..."
p2
sS'Created At'
p3
S'2015-11-28 20:22:30'
p4
s.(dp0
S'Text'
p1
S"I've collected 17,100 gold coins!  https://t.co/2ofvQfePLO #android, #androidgames, #gameinsight"
p2
sS'Created At'
p3
S'2015-11-28 20:22:30'
p4
s.(dp0
S'Text'
p1
S"I've collected 9,070 gold coins!  https://t.co/yPi0HuUW8Y #android, #androidgames, #gameinsight"
p2
sS'Created At'
p3
S'2015-11-28 20:22:31'
p4
s.(dp0
S'Text'
p1
S'RT @OplaRahman: Jailbreak iOS 9 Guide - https://t.co/ta4AZ0KVJV https://t.co/RA0edTUs6k'
p2
sS'Created At'
p3
S'2015-11-28 20:22:31'
p4
s.(dp0
S'Text'
p1
S"I've harvested 195 of food!  https://t.co/yPi0HuUW8Y #android, #androidgames, #gameinsight"
p2
sS'Created At'
p3
S'2015-11-28 20:22:31'
p4
s.(dp0
S'Text'
p1
S'https://t.co/8rkQytSIUW #3737 Factory Unlocked Apple iPhone 5 16GB iOS Smartphone 4G GSM Retina White / Black https://t.co/0I8W2nrWn5'
p2
sS'Created At'
p3
S'2015-11-28 20:22:30'
p4
s.(dp0
S'Text'
p1
S'Web Tip No 14 Affordable video hosting with support for HTML links that is IOS compatible https://t.co/aQhdymtoXa https://t.co/7o8C1f0lmF'
p2
sS'Created At'
p3
S'2015-11-28 20:22:31'
p4
s.(dp0
S'Text'
p1
S'https://t.co/tu0VXVZCHb \xe2\x84\xa2 #Android #App Free Download Link: https://t.co/o81zEncoYX'
p2
sS'Created At'
p3
S'2015-11-28 20:22:31'
p4
s.(dp0
S'Text'
p1
S"RT @TheLiberal_ie: WIN #WIN #iPhone6 -We're giving away an iPhone 6 thanks to @Pursha_com To enter, re-tweet &amp; Follow us! #competition http\xe2\x80\xa6"
p2
sS'Created At'
p3
S'2015-11-28 20:22:31'
p4
s.(dp0
S'Text'
p1
S"I'm earning #mPLUSRewards in Splat Da Bat Android. https://t.co/D23dJhU96q"
p2
sS'Created At'
p3
S'2015-11-28 20:22:31'
p4
s.(dp0
S'Text'
p1
S"My iPhone won't connect to the wifi I'm literally going to resurrect Steve Jobs from the dead HE WOULDN'T DO ME LIKE THIS"
p2
sS'Created At'
p3
S'2015-11-28 20:22:32'
p4
s.(dp0
S'Text'
p1
S'RT @OplaRahman: Jailbreak iOS 9 Guide - https://t.co/ta4AZ0KVJV https://t.co/RA0edTUs6k'
p2
sS'Created At'
p3
S'2015-11-28 20:22:32'
p4
s.(dp0
S'Text'
p1
S'Apples and Oranges... https://t.co/XewIM0Lr8S'
p2
sS'Created At'
p3
S'2015-11-28 20:22:32'
p4
s.(dp0
S'Text'
p1
S'https://t.co/k8aUUI5HoJ #8963 Apple iPhone 5S - 16 32 64GB GSM "Factory Unlocked" Smartphone Gold Gray Silver https://t.co/CjUQPNFhpW'
p2
sS'Created At'
p3
S'2015-11-28 20:22:32'
p4
s.(dp0
S'Text'
p1
S'RT @AmazeGear: For my actives this \xe2\x9d\xa4\xef\xb8\x8f RT + Follow @Rxnzoo for your chance to win this iPhone!\n\nWinner in 1 Hour! https://t.co/5oM9EMvdfl'
p2
sS'Created At'
p3
S'2015-11-28 20:22:32'
p4
s.(dp0
S'Text'
p1
S"RT @yoifeellike: the iphone charger that doesn't quite reach"
p2
sS'Created At'
p3
S'2015-11-28 20:22:32'
p4
s.(dp0
S'Text'
p1
S'@Shou_TV will your upcoming update for the nonjailbroken iOS 9 people include 9.1 support? Just wondering.'
p2
sS'Created At'
p3
S'2015-11-28 20:22:32'
p4
s.(dp0
S'Text'
p1
S"RT @TheLiberal_ie: WIN #WIN #iPhone6 -We're giving away an iPhone 6 thanks to @Pursha_com To enter, re-tweet &amp; Follow us! #competition http\xe2\x80\xa6"
p2
sS'Created At'
p3
S'2015-11-28 20:22:33'
p4
s.(dp0
S'Text'
p1
S'RT @TravelingBunch: Clever Apple invention paves the way for a truly waterproof iPhone https://t.co/Kl0aLgcJEP'
p2
sS'Created At'
p3
S'2015-11-28 20:22:33'
p4
s.(dp0
S'Text'
p1
S'https://t.co/gMpJIJo7yN #3530 Apple iPhone 5s - 32GB GSM Unlocked Smartphone Space Gray - Silver - Gold https://t.co/RiGKgqCub2'
p2
sS'Created At'
p3
S'2015-11-28 20:22:33'
p4
s.(dp0
S'Text'
p1
S'Is that zac Efron tho  https://t.co/wS32iNRjpY'
p2
sS'Created At'
p3
S'2015-11-28 20:22:33'
p4
s.(dp0
S'Text'
p1
S"I've collected 9,649 gold coins!  https://t.co/k7tD763c9U #android, #androidgames, #gameinsight"
p2
sS'Created At'
p3
S'2015-11-28 20:22:33'
p4
s.(dp0
S'Text'
p1
S"RT @TheLiberal_ie: WIN #WIN #iPhone6 -We're giving away an iPhone 6 thanks to @Pursha_com To enter, re-tweet &amp; Follow us! #competition http\xe2\x80\xa6"
p2
sS'Created At'
p3
S'2015-11-28 20:22:33'
p4
s.(dp0
S'Text'
p1
S'RT @ShitChallenge: @ShitChallenge start the next step!\nGet an iPhone for free!*\nVisit: https://t.co/26lOKqRqLN https://t.co/A5ObkoNi5O'
p2
sS'Created At'
p3
S'2015-11-28 20:22:33'
p4
s.(dp0
S'Text'
p1
S"I've finished the Credit Transactions quest! Are you able to fulfil the same task? https://t.co/7TKiR8Z0Dv #android,#androidgames,#gam..."
p2
sS'Created At'
p3
S'2015-11-28 20:22:33'
p4
s.(dp0
S'Text'
p1
S"Cortana for iOS beta arrives (but it isn't for everyone): Here\xe2\x80\x99s some good news and bad news for those of you\xe2\x80\xa6 https://t.co/YC5eMUKQzY #ios"
p2
sS'Created At'
p3
S'2015-11-28 20:22:33'
p4
s.(dp0
S'Text'
p1
S'Samsung Galaxy Tab 3 8.0 T311 16GB 3G Android 4.2 Tablet PC - White https://t.co/Q9JpPkHw5u #3g_tablets_buy_online'
p2
sS'Created At'
p3
S'2015-11-28 20:22:33'
p4
s.(dp0
S'Text'
p1
S"I've harvested 1,120 of food!  https://t.co/81bKItIunQ #android, #androidgames, #gameinsight"
p2
sS'Created At'
p3
S'2015-11-28 20:22:34'
p4
s.(dp0
S'Text'
p1
S"I've collected 5,965 gold coins!  https://t.co/HWt4Pib6jj #android, #androidgames, #gameinsight"
p2
sS'Created At'
p3
S'2015-11-28 20:22:34'
p4
s.(dp0
S'Text'
p1
S"I have completed the quest 'Marble rush.' in the #Android game The Tribez.  https://t.co/k7tD763c9U #androidgames, #gameinsight"
p2
sS'Created At'
p3
S'2015-11-28 20:22:35'
p4
s.(dp0
S'Text'
p1
S'RT @OplaRahman: Jailbreak iOS 9 Guide - https://t.co/ta4AZ0KVJV https://t.co/RA0edTUs6k'
p2
sS'Created At'
p3
S'2015-11-28 20:22:35'
p4
s.(dp0
S'Text'
p1
S'RT @Cute_Cravings: \xf0\x9f\x8e\x84 SATURDAY SALE \xf0\x9f\x8e\x84\n\nOur Holiday Glitter Phone Cases are on Sale!!\n\nEnds TONIGHT! \xe2\x9b\x84\xef\xb8\x8f\xf0\x9f\x8e\x80\n\n\xf0\x9f\x91\x89\xf0\x9f\x8f\xbchttps://t.co/b6G9g6hAh5\xf0\x9f\x91\x88\xf0\x9f\x8f\xbc https:/\xe2\x80\xa6'
p2
sS'Created At'
p3
S'2015-11-28 20:22:35'
p4
s.(dp0
S'Text'
p1
S'iphone 4s  https://t.co/iWQzw2U3BX'
p2
sS'Created At'
p3
S'2015-11-28 20:22:35'
p4
s.(dp0
S'Text'
p1
S'RT @OplaRahman: Jailbreak iOS 9 Guide - https://t.co/ta4AZ0KVJV https://t.co/RA0edTUs6k'
p2
sS'Created At'
p3
S'2015-11-28 20:22:36'
p4
s.(dp0
S'Text'
p1
S'RT In my collection #AlfaSpider1989 I use Android App https://t.co/GyEQcVjKCy #Android https://t.co/YWGWRLLYz2'
p2
sS'Created At'
p3
S'2015-11-28 20:22:36'
p4
s.(dp0
S'Text'
p1
S"RT @TheLiberal_ie: WIN #WIN #iPhone6 -We're giving away an iPhone 6 thanks to @Pursha_com To enter, re-tweet &amp; Follow us! #competition http\xe2\x80\xa6"
p2
sS'Created At'
p3
S'2015-11-28 20:22:37'
p4
s.(dp0
S'Text'
p1
S'I upgraded my Bakery and can now order: Magical Tiramisu! https://t.co/fD98SwvTwK #iphone,#iphonegames,#gameinsight'
p2
sS'Created At'
p3
S'2015-11-28 20:22:37'
p4
s.(dp0
S'Text'
p1
S"I've collected 1,864 gold coins!  https://t.co/Osmrzz385i #android, #androidgames, #gameinsight"
p2
sS'Created At'
p3
S'2015-11-28 20:22:37'
p4
s.(dp0
S'Text'
p1
S'Disney Star Rowan Blanchard Joins The Battle For Gender https://t.co/lsrfpbhKXy #trending #News #Startups #HowTo #DIY #Android #HowTo #Apps'
p2
sS'Created At'
p3
S'2015-11-28 20:22:37'
p4
s.(dp0
S'Text'
p1
S"I've finished the Harvest Season quest! Are you able to fulfil the same task? https://t.co/kZrVAVjQka #android,#androidgames,#gameinsight"
p2
sS'Created At'
p3
S'2015-11-28 20:22:37'
p4
s.(dp0
S'Text'
p1
S"RT @Dory: Why do android snapchats look like they're from the 1800's https://t.co/2XWU9JpTi5"
p2
sS'Created At'
p3
S'2015-11-28 20:22:38'
p4
s.(dp0
S'Text'
p1
S"I've finished the Counterattack quest! Are you able to fulfil the same task? https://t.co/CowOPpGsK2 #android,#androidgames,#gameinsight"
p2
sS'Created At'
p3
S'2015-11-28 20:22:38'
p4
s.(dp0
S'Text'
p1
S'Receipt Manager for iOS Productivity Entertainment iPad App ***** $1. ... https://t.co/bNdVFfPSss https://t.co/mEvdNHqxfk'
p2
sS'Created At'
p3
S'2015-11-28 20:22:38'
p4
s.(dp0
S'Text'
p1
S'RT @Cute_Cravings: \xf0\x9f\x8e\x84 SATURDAY SALE \xf0\x9f\x8e\x84\n\nOur Holiday Glitter Phone Cases are on Sale!!\n\nEnds TONIGHT! \xe2\x9b\x84\xef\xb8\x8f\xf0\x9f\x8e\x80\n\n\xf0\x9f\x91\x89\xf0\x9f\x8f\xbchttps://t.co/b6G9g6hAh5\xf0\x9f\x91\x88\xf0\x9f\x8f\xbc https:/\xe2\x80\xa6'
p2
sS'Created At'
p3
S'2015-11-28 20:22:38'
p4
s.(dp0
S'Text'
p1
S"RT @TheLiberal_ie: WIN #WIN #iPhone6 -We're giving away an iPhone 6 thanks to @Pursha_com To enter, re-tweet &amp; Follow us! #competition http\xe2\x80\xa6"
p2
sS'Created At'
p3
S'2015-11-28 20:22:40'
p4
s.(dp0
S'Text'
p1
S"I've harvested 890 of food!  https://t.co/kSH5oxAl1T #android, #androidgames, #gameinsight"
p2
sS'Created At'
p3
S'2015-11-28 20:22:40'
p4
s.(dp0
S'Text'
p1
S"I've collected 12,680 gold coins!  https://t.co/kSH5oxAl1T #android, #androidgames, #gameinsight"
p2
sS'Created At'
p3
S'2015-11-28 20:22:40'
p4
s.(dp0
S'Text'
p1
S'RT @SimonMaloy: *sigh* https://t.co/dPuc8qT5y8 https://t.co/Yz4cCxU8ox'
p2
sS'Created At'
p3
S'2015-11-28 20:22:40'
p4
s.(dp0
S'Text'
p1
S'Thank you @danrubin for sharing the iPhone portrait you took of me holding the Polaroid on\xe2\x80\xa6 https://t.co/A1xI0MUH9f https://t.co/XgkYycPMB3'
p2
sS'Created At'
p3
S'2015-11-28 20:22:40'
p4
s.(dp0
S'Text'
p1
S"I've collected 12,500 gold coins!  https://t.co/6Ucvw86H9P #android, #androidgames, #gameinsight"
p2
sS'Created At'
p3
S'2015-11-28 20:22:40'
p4
s.(dp0
S'Text'
p1
S"RT @TheLiberal_ie: WIN #WIN #iPhone6 -We're giving away an iPhone 6 thanks to @Pursha_com To enter, re-tweet &amp; Follow us! #competition http\xe2\x80\xa6"
p2
sS'Created At'
p3
S'2015-11-28 20:22:40'
p4
s.(dp0
S'Text'
p1
S"The Kingdom's citizens are happy to have Pumpkin Lantern! Try to build it too! https://t.co/KulTuOgtmr #android,#androidgames,#gameins..."
p2
sS'Created At'
p3
S'2015-11-28 20:22:41'
p4
s.(dp0
S'Text'
p1
S'Even iphone cookies.....'
p2
sS'Created At'
p3
S'2015-11-28 20:22:41'
p4
s.(dp0
S'Text'
p1
S"Cortana for iOS beta arrives (but it isn't for everyone) https://t.co/Bx0Jt57uQH | Macworld"
p2
sS'Created At'
p3
S'2015-11-28 20:22:41'
p4
s.(dp0
S'Text'
p1
S"I've finished the The Ripest Apples quest! Are you able to fulfil the same task? https://t.co/98x1nB8Gzu #android,#androidgames,#gamei..."
p2
sS'Created At'
p3
S'2015-11-28 20:22:42'
p4
s.(dp0
S'Text'
p1
S"RT @heyifeellike: the iphone charger that doesn't quite reach"
p2
sS'Created At'
p3
S'2015-11-28 20:22:42'
p4
s.(dp0
S'Text'
p1
S"RT @Dory: Why do android snapchats look like they're from the 1800's https://t.co/2XWU9JpTi5"
p2
sS'Created At'
p3
S'2015-11-28 20:22:42'
p4
s.(dp0
S'Text'
p1
S"I've collected 31,745 gold coins!  https://t.co/5wGVpo1NL7 #android, #androidgames, #gameinsight"
p2
sS'Created At'
p3
S'2015-11-28 20:22:42'
p4
s.(dp0
S'Text'
p1
S'"There are purchased items on the iPhone that have not been transferred to your iTunes library." - Then fucking tell me which ones!!!'
p2
sS'Created At'
p3
S'2015-11-28 20:22:42'
p4
s.(dp0
S'Text'
p1
S"RT @TheLiberal_ie: WIN #WIN #iPhone6 -We're giving away an iPhone 6 thanks to @Pursha_com To enter, re-tweet &amp; Follow us! #competition http\xe2\x80\xa6"
p2
sS'Created At'
p3
S'2015-11-28 20:22:42'
p4
s.(dp0
S'Text'
p1
S'@Selfridges only browser that worked was Mercury on iPhone-but "couldn\'t find the page" website error msg when I clicked basket to check out'
p2
sS'Created At'
p3
S'2015-11-28 20:22:43'
p4
s.(dp0
S'Text'
p1
S"I've harvested 1,135 of food!  https://t.co/zuOiKnAmZ9 #android, #androidgames, #gameinsight"
p2
sS'Created At'
p3
S'2015-11-28 20:22:43'
p4
s.(dp0
S'Text'
p1
S'RT @UnboxTherapy: New iPhone winner at midnight. Gonna do a Twitter exclusive for this one - RT and reply here to enter! https://t.co/t6vWu\xe2\x80\xa6'
p2
sS'Created At'
p3
S'2015-11-28 20:22:43'
p4
s.(dp0
S'Text'
p1
S'RT @OplaRahman: Jailbreak iOS 9 Guide - https://t.co/ta4AZ0KVJV https://t.co/RA0edTUs6k'
p2
sS'Created At'
p3
S'2015-11-28 20:22:43'
p4
s.(dp0
S'Text'
p1
S"RT @TheLiberal_ie: WIN #WIN #iPhone6 -We're giving away an iPhone 6 thanks to @Pursha_com To enter, re-tweet &amp; Follow us! #competition http\xe2\x80\xa6"
p2
sS'Created At'
p3
S'2015-11-28 20:22:44'
p4
s.(dp0
S'Text'
p1
S'I have Ancient Bar on my island! Now my island is even more awesome!  https://t.co/UtKEzddpOf #android, #androidgames, #gameinsight'
p2
sS'Created At'
p3
S'2015-11-28 20:22:44'
p4
s.(dp0
S'Text'
p1
S'@ASOS_HeretoHelp is there a problem with your iOS app? Not letting me search for any click and collect points. https://t.co/jG0qWuecgD'
p2
sS'Created At'
p3
S'2015-11-28 20:22:44'
p4
s.(dp0
S'Text'
p1
S"I've collected 1,100 gold coins!  https://t.co/ij0weXDi7V #android, #androidgames, #gameinsight"
p2
sS'Created At'
p3
S'2015-11-28 20:22:45'
p4
s.(dp0
S'Text'
p1
S"I've harvested 337 of food!  https://t.co/ij0weXDi7V #android, #androidgames, #gameinsight"
p2
sS'Created At'
p3
S'2015-11-28 20:22:45'
p4
s.(dp0
S'Text'
p1
S"I've finished the Family Relic quest! Are you able to fulfil the same task? https://t.co/kZrVAVjQka #android,#androidgames,#gameinsight"
p2
sS'Created At'
p3
S'2015-11-28 20:22:45'
p4
s.(dp0
S'Text'
p1
S'RT @BieberholicFeel: iPhone 7 is way better tbh https://t.co/TscO1RoKth'
p2
sS'Created At'
p3
S'2015-11-28 20:22:46'
p4
s.(dp0
S'Text'
p1
S"I've collected 10,900 gold coins!  https://t.co/2ofvQfePLO #android, #androidgames, #gameinsight"
p2
sS'Created At'
p3
S'2015-11-28 20:22:46'
p4
s.(dp0
S'Text'
p1
S'Top 5 Must Have Android Widgets 2015: https://t.co/YUEp0JPx5l via @YouTube'
p2
sS'Created At'
p3
S'2015-11-28 20:22:46'
p4
s.(dp0
S'Text'
p1
S"I've finished the Send 4 invitations quest! Are you able to fulfil the same task? https://t.co/IsGMrB0P7o #android,#androidgames,#game..."
p2
sS'Created At'
p3
S'2015-11-28 20:22:47'
p4
s.(dp0
S'Text'
p1
S'@lfid245466 @DareToMarco do you sell for iOS coins?'
p2
sS'Created At'
p3
S'2015-11-28 20:22:47'
p4
s.(dp0
S'Text'
p1
S"I've collected 17,350 gold coins!  https://t.co/sNPWIjMeht #android, #androidgames, #gameinsight"
p2
sS'Created At'
p3
S'2015-11-28 20:22:47'
p4
s.(dp0
S'Text'
p1
S'I upgraded my Bakery and can now order: Cherry Pie! https://t.co/0nZFYjxFzR #android,#androidgames,#gameinsight'
p2
sS'Created At'
p3
S'2015-11-28 20:22:47'
p4
s.(dp0
S'Text'
p1
S"RT @TheLiberal_ie: WIN #WIN #iPhone6 -We're giving away an iPhone 6 thanks to @Pursha_com To enter, re-tweet &amp; Follow us! #competition http\xe2\x80\xa6"
p2
sS'Created At'
p3
S'2015-11-28 20:22:47'
p4
s.(dp0
S'Text'
p1
S'RT @ForbesTech: New leak reveals that Apple may soon abandon the headphone jack for the iPhone: https://t.co/cLA0mVG5Bp https://t.co/IotIHA\xe2\x80\xa6'
p2
sS'Created At'
p3
S'2015-11-28 20:22:48'
p4
s.(dp0
S'Text'
p1
S'White Rear Glass Battery Cover Back Door Housing Case For iPhone 4 4G A1332 - Bid Now! Onl\xe2\x80\xa6 https://t.co/HlEy4wezy3 https://t.co/mrICGrXcmq'
p2
sS'Created At'
p3
S'2015-11-28 20:22:48'
p4
s.(dp0
S'Text'
p1
S"I've harvested 1,190 of food!  https://t.co/X42vgcBGGi #iphone, #iphonegames, #gameinsight"
p2
sS'Created At'
p3
S'2015-11-28 20:22:48'
p4
s.(dp0
S'Text'
p1
S'Maybe ....just maybe  https://t.co/Ig7jpTZZ0T'
p2
sS'Created At'
p3
S'2015-11-28 20:22:48'
p4
s.(dp0
S'Text'
p1
S'I have Mansion on my island! Now my island is even more awesome!  https://t.co/2zQvZCYYaI #android, #androidgames, #gameinsight'
p2
sS'Created At'
p3
S'2015-11-28 20:22:48'
p4
s.(dp0
S'Text'
p1
S"I've harvested 1,964 of food!  https://t.co/ha27hhQloN #iphone, #iphonegames, #gameinsight"
p2
sS'Created At'
p3
S'2015-11-28 20:22:49'
p4
s.(dp0
S'Text'
p1
S'Think u should get an iphone'
p2
sS'Created At'
p3
S'2015-11-28 20:22:49'
p4
s.(dp0
S'Text'
p1
S"RT @Dory: Why do android snapchats look like they're from the 1800's https://t.co/2XWU9JpTi5"
p2
sS'Created At'
p3
S'2015-11-28 20:22:49'
p4
s.(dp0
S'Text'
p1
S'Silk Leather Wallet Stand Case Cover For Apple iPhone 4 4G 4S Luxury Slot Slim - Bid Now! \xe2\x80\xa6 https://t.co/g813MMSSSg https://t.co/naPOCFyjuB'
p2
sS'Created At'
p3
S'2015-11-28 20:22:49'
p4
s.(dp0
S'Text'
p1
S'RT @OmarImranTweets: "Y dnt u Muslims tell ISIS to stop"\n\nOk hold up *pulls out iphone*\n\n"Yo ISIS habibi,its me plz stop"\n\nISIS:"ok habibi \xe2\x80\xa6'
p2
sS'Created At'
p3
S'2015-11-28 20:22:49'
p4
s.(dp0
S'Text'
p1
S'RT @tinatbh: No offense but android snapchats look like photographs from the American civil war'
p2
sS'Created At'
p3
S'2015-11-28 20:22:49'
p4
s.(dp0
S'Text'
p1
S'Apple iPhone 4s - 16GB - Black (Unlocked) w/Case Verizon Straight Talk EXCELLENT - Bid Now\xe2\x80\xa6 https://t.co/n6TP7uWn7Y https://t.co/Ys2eTeiJ0m'
p2
sS'Created At'
p3
S'2015-11-28 20:22:50'
p4
s.(dp0
S'Text'
p1
S'Page-ReadinG: Five tips you can use to make your Android phone work faster and longer: https://t.co/0Gxlwyt9KR'
p2
sS'Created At'
p3
S'2015-11-28 20:22:50'
p4
s.(dp0
S'Text'
p1
S"I'm now a B-List celebrity in Kim Kardashian: Hollywood. You can be famous too by playing on iPhone!  https://t.co/cToB3P4MmF"
p2
sS'Created At'
p3
S'2015-11-28 20:22:50'
p4
s.(dp0
S'Text'
p1
S'Apple iPhone 4s - 8GB - Black (Verizon) Smartphone - UNLOCKED W/Otter Black Case - Bid Now\xe2\x80\xa6 https://t.co/w768AZbtlG https://t.co/ucewP2HcKY'
p2
sS'Created At'
p3
S'2015-11-28 20:22:50'
p4
s.(dp0
S'Text'
p1
S"RT @TheLiberal_ie: WIN #WIN #iPhone6 -We're giving away an iPhone 6 thanks to @Pursha_com To enter, re-tweet &amp; Follow us! #competition http\xe2\x80\xa6"
p2
sS'Created At'
p3
S'2015-11-28 20:22:51'
p4
s.(dp0
S'Text'
p1
S'My new iPhone is \xf0\x9f\x91\x8c\xf0\x9f\x8f\xbb\xf0\x9f\x91\x8c\xf0\x9f\x8f\xbb\xf0\x9f\x91\x8c\xf0\x9f\x8f\xbb'
p2
sS'Created At'
p3
S'2015-11-28 20:22:51'
p4
s.(dp0
S'Text'
p1
S'need  https://t.co/niPmaNt0T8'
p2
sS'Created At'
p3
S'2015-11-28 20:22:51'
p4
s.(dp0
S'Text'
p1
S'RT @OplaRahman: Jailbreak iOS 9 Guide - https://t.co/ta4AZ0KVJV https://t.co/RA0edTUs6k'
p2
sS'Created At'
p3
S'2015-11-28 20:22:51'
p4
s.(dp0
S'Text'
p1
S"I've harvested 30 of food!  https://t.co/XdDwXA5Qxl #android, #androidgames, #gameinsight"
p2
sS'Created At'
p3
S'2015-11-28 20:22:51'
p4
s.(dp0
S'Text'
p1
S"I've collected 3,330 gold coins!  https://t.co/XdDwXA5Qxl #android, #androidgames, #gameinsight"
p2
sS'Created At'
p3
S'2015-11-28 20:22:51'
p4
s.(dp0
S'Text'
p1
S"I've finished the Now We Need Stone quest! Are you able to fulfil the same task? https://t.co/124bBos3lk #android,#androidgames,#gamei..."
p2
sS'Created At'
p3
S'2015-11-28 20:22:52'
p4
s.(dp0
S'Text'
p1
S"I've harvested 1,540 of food!  https://t.co/Ud7LdtEzBP #android, #androidgames, #gameinsight"
p2
sS'Created At'
p3
S'2015-11-28 20:22:52'
p4
s.(dp0
S'Text'
p1
S"I'm earning #mPLUSRewards in Tap Da Cookie Android. https://t.co/LMn475r3ks"
p2
sS'Created At'
p3
S'2015-11-28 20:22:52'
p4
s.(dp0
S'Text'
p1
S'RT @UltimateKing24: I dont take IOS sponsors anymore.. untill tonight going to make all my followers happy now'
p2
sS'Created At'
p3
S'2015-11-28 20:22:52'
p4
s.(dp0
S'Text'
p1
S'Does anyone have an extra iPhone I can borrow until I get my new one, my phone is so broken rn'
p2
sS'Created At'
p3
S'2015-11-28 20:22:52'
p4
s.(dp0
S'Text'
p1
S'RT @_mobApp0: TC App Booster- Best Android Optimizer &amp; Cleaner by simply 1 tap! Speed up phone 60%+!\n https://t.co/FHhte5jcWO'
p2
sS'Created At'
p3
S'2015-11-28 20:22:53'
p4
s.(dp0
S'Text'
p1
S'The 13 highest-paying jobs for people who want to work https://t.co/xLv01VM5GS #trending #News #Startups #HowTo #DIY #Android #HowTo #Apps'
p2
sS'Created At'
p3
S'2015-11-28 20:22:53'
p4
s.(dp0
S'Text'
p1
S"I've harvested 635 of food!  https://t.co/ABSQWn5dwq #android, #androidgames, #gameinsight"
p2
sS'Created At'
p3
S'2015-11-28 20:22:53'
p4
s.(dp0
S'Text'
p1
S"RT @TheLiberal_ie: WIN #WIN #iPhone6 -We're giving away an iPhone 6 thanks to @Pursha_com To enter, re-tweet &amp; Follow us! #competition http\xe2\x80\xa6"
p2
sS'Created At'
p3
S'2015-11-28 20:22:53'
p4
s.(dp0
S'Text'
p1
S"I've harvested 2,016 of food!  https://t.co/uyyQXQgpOJ #android, #androidgames, #gameinsight"
p2
sS'Created At'
p3
S'2015-11-28 20:22:54'
p4
s.(dp0
S'Text'
p1
S'New eBay Deal! NEW Belkin TuneBase Hands Free Car Mount AUX &amp; Charger for iPhone 5S 5C 5 https://t.co/e5cUjbolY6 https://t.co/hSSC63q9Xa'
p2
sS'Created At'
p3
S'2015-11-28 20:22:54'
p4
s.(dp0
S'Text'
p1
S'I have reached level 39 in The Tribez! Join in and try to overtake me!  https://t.co/LLFw1GL5as #android, #androidgames, #gameinsight'
p2
sS'Created At'
p3
S'2015-11-28 20:22:55'
p4
s.(dp0
S'Text'
p1
S'RT @asymco: Online orders made using mobile phones or tablets jumped to 39% of all online sales on Thanksgiving (34% last yr) https://t.co/\xe2\x80\xa6'
p2
sS'Created At'
p3
S'2015-11-28 20:22:55'
p4
s.(dp0
S'Text'
p1
S"I'm playing Lady Luck Double Take on my iPhone, available on the app store: https://t.co/n1qsqud8er #Reflex https://t.co/dXVtvVJKWc"
p2
sS'Created At'
p3
S'2015-11-28 20:22:55'
p4
s.(dp0
S'Text'
p1
S'RT @tinatbh: No offense but android snapchats look like photographs from the American civil war'
p2
sS'Created At'
p3
S'2015-11-28 20:22:55'
p4
s.(dp0
S'Text'
p1
S"I've harvested 1,032 of food!  https://t.co/2gsCZkjQvt #android, #androidgames, #gameinsight"
p2
sS'Created At'
p3
S'2015-11-28 20:22:55'
p4
s.(dp0
S'Text'
p1
S'RT @OplaRahman: Jailbreak iOS 9 Guide - https://t.co/ta4AZ0KVJV https://t.co/RA0edTUs6k'
p2
sS'Created At'
p3
S'2015-11-28 20:22:56'
p4
s.(dp0
S'Text'
p1
S"I have completed the quest 'Pumpkin feast.' in the #Android game The Tribez.  https://t.co/K0vnjwHVQb #androidgames, #gameinsight"
p2
sS'Created At'
p3
S'2015-11-28 20:22:56'
p4
s.(dp0
S'Text'
p1
S"I've harvested 2,126 of food!  https://t.co/XoAyrwZgzm #android, #androidgames, #gameinsight"
p2
sS'Created At'
p3
S'2015-11-28 20:22:56'
p4
s.(dp0
S'Text'
p1
S'RT @icasnetwork2015: https://t.co/Ax1VqJuDEr Android M Coming soon - ICas @icasnetwork2015'
p2
sS'Created At'
p3
S'2015-11-28 20:22:56'
p4
s.(dp0
S'Text'
p1
S"I've finished the Fragrant Drink quest! Are you able to fulfil the same task? https://t.co/wNjUS0qhgd #android,#androidgames,#gameinsight"
p2
sS'Created At'
p3
S'2015-11-28 20:22:56'
p4
s.(dp0
S'Text'
p1
S"RT @TheLiberal_ie: WIN #WIN #iPhone6 -We're giving away an iPhone 6 thanks to @Pursha_com To enter, re-tweet &amp; Follow us! #competition http\xe2\x80\xa6"
p2
sS'Created At'
p3
S'2015-11-28 20:22:57'
p4
s.(dp0
S'Text'
p1
S"I'm earning #mPLUSRewards in Punchcard for Android. https://t.co/VEUFsl4eXu @MyPunchcard"
p2
sS'Created At'
p3
S'2015-11-28 20:22:56'
p4
s.(dp0
S'Text'
p1
S'Another level, and with it, more building... https://t.co/Sm8gwH8wlB #iPhone #iPhoneGames #gameinsight'
p2
sS'Created At'
p3
S'2015-11-28 20:22:57'
p4
s.(dp0
S'Text'
p1
S"I've finished the Elven Baths quest! Are you able to fulfil the same task? https://t.co/124bBos3lk #android,#androidgames,#gameinsight"
p2
sS'Created At'
p3
S'2015-11-28 20:22:57'
p4
s.(dp0
S'Text'
p1
S"I've collected 11,670 gold coins!  https://t.co/XoAyrwZgzm #android, #androidgames, #gameinsight"
p2
sS'Created At'
p3
S'2015-11-28 20:22:57'
p4
s.(dp0
S'Text'
p1
S'RT @UltimateKing24: I dont take IOS sponsors anymore.. untill tonight going to make all my followers happy now'
p2
sS'Created At'
p3
S'2015-11-28 20:22:57'
p4
s.(dp0
S'Text'
p1
S'Must be nice  https://t.co/LVMLfdXNqM'
p2
sS'Created At'
p3
S'2015-11-28 20:22:57'
p4
s.(dp0
S'Text'
p1
S"RT @elle91: Next generation Monopoly pieces:\n-Croc\n-Fedora\n-Prius\n-iPhone\n-Starbucks cup\n-A thimble because we've made very little progress\xe2\x80\xa6"
p2
sS'Created At'
p3
S'2015-11-28 20:22:57'
p4
s.(dp0
S'Text'
p1
S"I've collected 3,439 gold coins!  https://t.co/KPZntsBDsw #android, #androidgames, #gameinsight"
p2
sS'Created At'
p3
S'2015-11-28 20:22:58'
p4
s.(dp0
S'Text'
p1
S"I've harvested 360 of food!  https://t.co/KPZntsBDsw #android, #androidgames, #gameinsight"
p2
sS'Created At'
p3
S'2015-11-28 20:22:58'
p4
s.(dp0
S'Text'
p1
S"I've finished the A Wide Selection of Pies quest! Are you able to fulfil the same task? https://t.co/0nZFYjxFzR #android,#androidgames..."
p2
sS'Created At'
p3
S'2015-11-28 20:22:58'
p4
s.(dp0
S'Text'
p1
S'I have gained level 4 in The Tribez and Castlez! Can you achieve it as well? https://t.co/0tBrrawg5y #android,#androidgames,#gameinsight'
p2
sS'Created At'
p3
S'2015-11-28 20:22:59'
p4
s.(dp0
S'Text'
p1
S"How to put your iOS device into 'night mode' - CNET https://t.co/I8JONoMJtw"
p2
sS'Created At'
p3
S'2015-11-28 20:22:59'
p4
s.(dp0
S'Text'
p1
S'RT @ayyjace: iPhone 7 looks weird af https://t.co/WDThIUgUSL'
p2
sS'Created At'
p3
S'2015-11-28 20:22:59'
p4
s.(dp0
S'Text'
p1
S'RT @popa_PERK: When you scared of getting screenshot \xf0\x9f\x98\xad https://t.co/nH6XOmlhq9'
p2
sS'Created At'
p3
S'2015-11-28 20:22:59'
p4
s.(dp0
S'Text'
p1
S"I've harvested 574 of food!  https://t.co/tDPXqdMFX6 #android, #androidgames, #gameinsight"
p2
sS'Created At'
p3
S'2015-11-28 20:22:59'
p4
s.(dp0
S'Text'
p1
S"I've collected 4,567 gold coins!  https://t.co/tDPXqdMFX6 #android, #androidgames, #gameinsight"
p2
sS'Created At'
p3
S'2015-11-28 20:22:59'
p4
s.(dp0
S'Text'
p1
S"I've collected 586 gold coins!  https://t.co/hKc36oKwvn #android, #androidgames, #gameinsight"
p2
sS'Created At'
p3
S'2015-11-28 20:22:59'
p4
s.(dp0
S'Text'
p1
S"I've harvested 736 of food!  https://t.co/hKc36oKwvn #android, #androidgames, #gameinsight"
p2
sS'Created At'
p3
S'2015-11-28 20:22:59'
p4
s.(dp0
S'Text'
p1
S'RT @jason_pontin: Bill Gates Expected to Create Billion-Dollar Fund for Clean Energy, via @nytimes https://t.co/LEVcN3L7dC'
p2
sS'Created At'
p3
S'2015-11-28 20:23:00'
p4
s.(dp0
S'Text'
p1
S'Fred from phoenix https://t.co/37WQGVRVHu \n\n#phoenix  #dance #freedating #iphone'
p2
sS'Created At'
p3
S'2015-11-28 20:23:00'
p4
s.(dp0
S'Text'
p1
S"I've collected 106,050 gold coins!  https://t.co/Ho1VdUixiY #android, #androidgames, #gameinsight"
p2
sS'Created At'
p3
S'2015-11-28 20:23:00'
p4
s.(dp0
S'Text'
p1
S"I've collected 3,362 gold coins!  https://t.co/wP9ZSi2A70 #android, #androidgames, #gameinsight"
p2
sS'Created At'
p3
S'2015-11-28 20:23:00'
p4
s.(dp0
S'Text'
p1
S"I've harvested 774 of food!  https://t.co/wP9ZSi2A70 #android, #androidgames, #gameinsight"
p2
sS'Created At'
p3
S'2015-11-28 20:23:00'
p4
s.(dp0
S'Text'
p1
S'RT @AmazeGear: First to RT wins a iPhone of your choice!\n\nI will ask for proof of having notifications on! https://t.co/CFK00Scr3c'
p2
sS'Created At'
p3
S'2015-11-28 20:23:00'
p4
s.(dp0
S'Text'
p1
S'I have gained level 10 in The Tribez and Castlez! Can you achieve it as well? https://t.co/7TKiR8Z0Dv #android,#androidgames,#gameinsight'
p2
sS'Created At'
p3
S'2015-11-28 20:23:00'
p4
s.(dp0
S'Text'
p1
S"34.3:116/5,0 runs, Dropped!  It's Steven Smith, would you believe it? Good length ball outsid #cric #cricket on #iOS https://t.co/ik9c3pPk7l"
p2
sS'Created At'
p3
S'2015-11-28 20:23:00'
p4
s.(dp0
S'Text'
p1
S'Having fun playing #CSRRacing for iOS, why not join me for FREE?\nhttps://t.co/hAtuwvjxkI'
p2
sS'Created At'
p3
S'2015-11-28 20:23:01'
p4
s.(dp0
S'Text'
p1
S"I've harvested 1,625 of food!  https://t.co/eVm7QpV1NM #android, #androidgames, #gameinsight"
p2
sS'Created At'
p3
S'2015-11-28 20:23:01'
p4
s.(dp0
S'Text'
p1
S'The Tribez &amp; Castlez! Is a great game! Download and see for yourself: https://t.co/0tBrrawg5y #android,#androidgames,#gameinsight'
p2
sS'Created At'
p3
S'2015-11-28 20:23:01'
p4
s.(dp0
S'Text'
p1
S"I've collected 13,511 gold coins! https://t.co/XbdVszloyj #iphone, #iphonegames, #gameinsight"
p2
sS'Created At'
p3
S'2015-11-28 20:23:01'
p4
s.(dp0
S'Text'
p1
S'Cortana makes landfall on iOS: Begins Beta-Testing https://t.co/LKsBdLCkwb #tech #techgeekforever'
p2
sS'Created At'
p3
S'2015-11-28 20:23:02'
p4
s.(dp0
S'Text'
p1
S"I've harvested 1,066 of food!  https://t.co/LfvgL5nEfn #android, #androidgames, #gameinsight"
p2
sS'Created At'
p3
S'2015-11-28 20:23:02'
p4
s.(dp0
S'Text'
p1
S"RT @JokeAuthority: Why did the storm trooper buy an iPhone? He couldn't find the droid he was looking for."
p2
sS'Created At'
p3
S'2015-11-28 20:23:02'
p4
s.(dp0
S'Text'
p1
S'RT @Goals4Dudes: I need a matte black iPhone in my life https://t.co/JaQNiIP0PM'
p2
sS'Created At'
p3
S'2015-11-28 20:23:02'
p4
s.(dp0
S'Text'
p1
S'5 Why Sell Your Iphone\xc2\xa04S https://t.co/yEeay4UZgM https://t.co/UxLnwd2Ykg'
p2
sS'Created At'
p3
S'2015-11-28 20:23:02'
p4
s.(dp0
S'Text'
p1
S"Gon' smashed my iPhone to bits \xf0\x9f\x98\xb2\n\n\xe2\x98\xa0\xe2\x80\xa2\xf0\x9f\x94\xa8\xe2\x80\xa2\xf0\x9f\x92\xa5 https://t.co/j5nm8xsuwo"
p2
sS'Created At'
p3
S'2015-11-28 20:23:02'
p4
s.(dp0
S'Text'
p1
S'The Time We Forgot Our Own Song (Day 381) #Android #Android #travelseries https://t.co/JcrRxGMNIk https://t.co/1B5kJ21mbV'
p2
sS'Created At'
p3
S'2015-11-28 20:23:02'
p4
s.(dp0
S'Text'
p1
S'The Tribez is a great game! Try to become a tribal leader!  https://t.co/K0vnjwHVQb #android, #androidgames, #gameinsight'
p2
sS'Created At'
p3
S'2015-11-28 20:23:03'
p4
s.(dp0
S'Text'
p1
S"I've collected 40,575 gold coins!  https://t.co/NuFRzWQpB1 #android, #androidgames, #gameinsight"
p2
sS'Created At'
p3
S'2015-11-28 20:23:03'
p4
s.(dp0
S'Text'
p1
S'RT @SR1DD: Fate of ObamaCare co-ops uncertain after half collapse https://t.co/3Wyc62E9jB via the @FoxNews Android app'
p2
sS'Created At'
p3
S'2015-11-28 20:23:03'
p4
s.(dp0
S'Text'
p1
S'I hate using my iPhone 4 but I have no choice since my parents took up my phone \xf0\x9f\x98\x95'
p2
sS'Created At'
p3
S'2015-11-28 20:23:03'
p4
s.(dp0
S'Text'
p1
S'#AndroidOyunlar\xc4\xb1 #EAGames #MaddenNFLMobileAndroid Madden NFL Mobile v2.9.4 Android Apk\xe2\x80\xa6 https://t.co/zxMcUtNR8r https://t.co/CPJCtOuyVQ'
p2
sS'Created At'
p3
S'2015-11-28 20:23:03'
p4
s.(dp0
S'Text'
p1
S'I upgraded my Bakery and can now order: Holiday Cake! https://t.co/G4HsPAOQeu #android,#androidgames,#gameinsight'
p2
sS'Created At'
p3
S'2015-11-28 20:23:04'
p4
s.(dp0
S'Text'
p1
S'RT @UltimateKing24: I dont take IOS sponsors anymore.. untill tonight going to make all my followers happy now'
p2
sS'Created At'
p3
S'2015-11-28 20:23:05'
p4
s.(dp0
S'Text'
p1
S'The hottest handheld on the farmers market. #androidgames #gameinsight #follow #followmejp #android https://t.co/GgAcmLQHDk'
p2
sS'Created At'
p3
S'2015-11-28 20:23:04'
p4
s.(dp0
S'Text'
p1
S"Check out peta2's FREE iPhone App! https://t.co/wlSvSgbr3r"
p2
sS'Created At'
p3
S'2015-11-28 20:23:05'
p4
s.(dp0
S'Text'
p1
S'RT @BieberholicFeel: iPhone 7 is way better tbh https://t.co/TscO1RoKth'
p2
sS'Created At'
p3
S'2015-11-28 20:23:05'
p4
s.(dp0
S'Text'
p1
S"Hopefully we'll get a iOS 9.1 jailbreak, before iOS 9.2 is released. I could use it a lot!"
p2
sS'Created At'
p3
S'2015-11-28 20:23:05'
p4
s.(dp0
S'Text'
p1
S"RT @RetroFist: Making progress on the iOS version of @FireFuGame! It's running at 60FPS too. Wii! :) #screenshotsaturday #gamedev https://t\xe2\x80\xa6"
p2
sS'Created At'
p3
S'2015-11-28 20:23:05'
p4
s.(dp0
S'Text'
p1
S'Apple #IPhone 4s - 16GB - Black (Sprint) Smartphone - https://t.co/e7L7nnZX2T |  Apple #IPhone 4s ... https://t.co/ZHqzA3F6i6'
p2
sS'Created At'
p3
S'2015-11-28 20:23:05'
p4
s.(dp0
S'Text'
p1
S"I'm playing #HitTheDracpot from #ReflexGaming on my iPhone! https://t.co/1cGzpbhGN5 https://t.co/YFxPvoJ3PL"
p2
sS'Created At'
p3
S'2015-11-28 20:23:05'
p4
s.(dp0
S'Text'
p1
S"I've harvested 139 of food!  https://t.co/K0vnjwHVQb #android, #androidgames, #gameinsight"
p2
sS'Created At'
p3
S'2015-11-28 20:23:06'
p4
s.(dp0
S'Text'
p1
S'#certified #preowned #macbookpro #forsale #iphone #accessories #apple #repairs #techsupport and more!\xe2\x80\xa6 https://t.co/aillFFy2yL'
p2
sS'Created At'
p3
S'2015-11-28 20:23:06'
p4
s.(dp0
S'Text'
p1
S"I've collected 272 gold coins!  https://t.co/K0vnjwHVQb #android, #androidgames, #gameinsight"
p2
sS'Created At'
p3
S'2015-11-28 20:23:07'
p4
s.(dp0
S'Text'
p1
S'Just sending out a giant fuck you to the person who decided the music on an iPhone should lower every time you get a text.'
p2
sS'Created At'
p3
S'2015-11-28 20:23:07'
p4
s.(dp0
S'Text'
p1
S"I've collected 510 gold coins!  https://t.co/xXu7DJKYPG #android, #androidgames, #gameinsight"
p2
sS'Created At'
p3
S'2015-11-28 20:23:07'
p4
s.(dp0
S'Text'
p1
S'RT @USA_Photography: Instagram Quietly Testing Multiple Account Support on Android; Photographers Rejoice: \nIn a move sure to delig... http\xe2\x80\xa6'
p2
sS'Created At'
p3
S'2015-11-28 20:23:07'
p4
s.(dp0
S'Text'
p1
S"I've harvested 39 of food!  https://t.co/xXu7DJKYPG #android, #androidgames, #gameinsight"
p2
sS'Created At'
p3
S'2015-11-28 20:23:07'
p4
s.(dp0
S'Text'
p1
S'@Herb_Tube Thanks for following! Have you tried our iOS app yet? Use it to get the latest news on the go! https://t.co/vTI4ZRpN6s'
p2
sS'Created At'
p3
S'2015-11-28 20:23:07'
p4
s.(dp0
S'Text'
p1
S'#iphone #apple Deals https://t.co/Fl5j5XwqUA #1433 Apple iPhone 4S 16GB "Factory Unlocked" Black and White Smartph\xe2\x80\xa6 https://t.co/wvCHD7zdkm'
p2
sS'Created At'
p3
S'2015-11-28 20:23:07'
p4
s.(dp0
S'Text'
p1
S'The Accessibility Of The iPhone 6s https://t.co/SyQ344zam6'
p2
sS'Created At'
p3
S'2015-11-28 20:23:07'
p4
s.(dp0
S'Text'
p1
S"I'm earning #mPLUSRewards in Da Daily Compliment Android. https://t.co/XzLOQbqgUq"
p2
sS'Created At'
p3
S'2015-11-28 20:23:08'
p4
s.(dp0
S'Text'
p1
S"I'm earning #mPLUSRewards in Light Da Fuse Android. https://t.co/ynww5XS9cj"
p2
sS'Created At'
p3
S'2015-11-28 20:23:08'
p4
s.(dp0
S'Text'
p1
S'#iphone #apple Deals https://t.co/SggjFB8nI6 #8332 Apple iPhone 5S 16GB "Factory Unlocked" 4G LTE iOS Smartphone https://t.co/50vmGz9yMC'
p2
sS'Created At'
p3
S'2015-11-28 20:23:08'
p4
s.(dp0
S'Text'
p1
S"I've finished the Carrier Pigeon quest! Are you able to fulfil the same task? https://t.co/0tBrrawg5y #android,#androidgames,#gameinsight"
p2
sS'Created At'
p3
S'2015-11-28 20:23:09'
p4
s.(dp0
S'Text'
p1
S'#iphone #apple Deals https://t.co/bYCTPpOjyb #6393 Apple iPhone 5 - 16GB - (Factory Unlocked) Smartphone - White o\xe2\x80\xa6 https://t.co/KbtsTicZXe'
p2
sS'Created At'
p3
S'2015-11-28 20:23:09'
p4
s.(dp0
S'Text'
p1
S'#Smartphones 6.0" Unlocked Dual Core Android 4.4 Smartphone GSM GPS 3G Black Cell Phone AT https://t.co/fEWTodPcg1 #Cellphones #Auction'
p2
sS'Created At'
p3
S'2015-11-28 20:23:09'
p4
s.(dp0
S'Text'
p1
S'Iphone app maturescence services are at leisure on superego hereat by wake upheaval: VQguzXkt'
p2
sS'Created At'
p3
S'2015-11-28 20:23:09'
p4
s.(dp0
S'Text'
p1
S"Isn't it a lot of work to manage your photos from your iPhone? MyPics is the app for you. https://t.co/MtMQhrbG3w"
p2
sS'Created At'
p3
S'2015-11-28 20:23:10'
p4
s.(dp0
S'Text'
p1
S'I upgraded my Town Hall to level 3! https://t.co/O1edvotFCC #android,#androidgames,#gameinsight'
p2
sS'Created At'
p3
S'2015-11-28 20:23:10'
p4
s.(dp0
S'Text'
p1
S'#Top3Apps for #Adventsfest\n\nTwitter for iPhone 41%\nTwitter for Android 18%\nTwitter Web Client 17%'
p2
sS'Created At'
p3
S'2015-11-28 20:23:10'
p4
s.(dp0
S'Text'
p1
S'https://t.co/Fvt97gcRAl #9398 X-Dragon 10000mAh Dual USB Solar Power Bank for iPhone 6 Plus 5s 5c 5 4s https://t.co/JyYQgwtTyx'
p2
sS'Created At'
p3
S'2015-11-28 20:23:09'
p4
s.(dp0
S'Text'
p1
S'Download the FREE #NorthamptonTown Fan App for iOS https://t.co/B2wqKxIMDD &amp; Android https://t.co/kFSiHRlXp9 https://t.co/fDgEIdsB94'
p2
sS'Created At'
p3
S'2015-11-28 20:23:10'
p4
s.(dp0
S'Text'
p1
S'https://t.co/46hkVjXsLG #1528 New Black Lower Dock Charge Port Connector Assembly for iPhone 3G 8/16GB+5 Tools https://t.co/o48Hz6981L'
p2
sS'Created At'
p3
S'2015-11-28 20:23:10'
p4
s.(dp0
S'Text'
p1
S'#iphone #apple Deals https://t.co/jVZQDgqzyN #7552 Apple iPhone 5S 16GB AT&amp;T 4G LTE Smartphone https://t.co/8iNpfzP1LH'
p2
sS'Created At'
p3
S'2015-11-28 20:23:10'
p4
s.(dp0
S'Text'
p1
S"The Kingdom's citizens are happy to have Paved Road! Try to build it too! https://t.co/HGR9D7fJCx #android,#androidgames,#gameinsight"
p2
sS'Created At'
p3
S'2015-11-28 20:23:10'
p4
s.(dp0
S'Text'
p1
S'https://t.co/q1S1Lo0c09  - Make iPhone Apps Using Swift, Xcode and iOS8 - 7 Apps #ios8 #Swift #Xcode https://t.co/GSH7lLE6IA'
p2
sS'Created At'
p3
S'2015-11-28 20:23:10'
p4
s.(dp0
S'Text'
p1
S'White Rear Glass Battery Cover Back Door Housing Case For iPhone 4 4G A1332 - Bid Now! Onl\xe2\x80\xa6 https://t.co/pTLz8sBxAJ https://t.co/aOv35Lz90t'
p2
sS'Created At'
p3
S'2015-11-28 20:23:11'
p4
s.(dp0
S'Text'
p1
S'https://t.co/EMTAd24o2z #7038 50x Original Genuine APPLE iPhone 6/5S/5C/5/4/4S 5W EU Wall Charger Adapter https://t.co/k97ipwmhAi'
p2
sS'Created At'
p3
S'2015-11-28 20:23:10'
p4
s.(dp0
S'Text'
p1
S"I've finished the Rebuilding the Town Hall quest! Are you able to fulfil the same task? https://t.co/O1edvotFCC #android,#androidgames..."
p2
sS'Created At'
p3
S'2015-11-28 20:23:11'
p4
s.(dp0
S'Text'
p1
S'RT @ForbesTech: New leak reveals that Apple may soon abandon the headphone jack for the iPhone: https://t.co/cLA0mVG5Bp https://t.co/IotIHA\xe2\x80\xa6'
p2
sS'Created At'
p3
S'2015-11-28 20:23:11'
p4
s.(dp0
S'Text'
p1
S"RT @lifehacker: Get Doze, Android Marshmallow's battery-saving feature, on older Androids with this app: https://t.co/KZ785PqvGp https://t.\xe2\x80\xa6"
p2
sS'Created At'
p3
S'2015-11-28 20:23:11'
p4
s.(dp0
S'Text'
p1
S'https://t.co/fJllCxjKGP #2201 100 X PCS Charge Sync Dock With 3FT 1m USB Data Cable For iPhone 6 Plus 6 5S 5 https://t.co/gyVfDFWJLA'
p2
sS'Created At'
p3
S'2015-11-28 20:23:11'
p4
s.(dp0
S'Text'
p1
S'Silk Leather Wallet Stand Case Cover For Apple iPhone 4 4G 4S Luxury Slot Slim - Bid Now! \xe2\x80\xa6 https://t.co/5pn7iPDA1A https://t.co/wICODOShle'
p2
sS'Created At'
p3
S'2015-11-28 20:23:12'
p4
s.(dp0
S'Text'
p1
S'Apple iPhone 4s - 16GB - Black (Unlocked) w/Case Verizon Straight Talk EXCELLENT - Bid Now\xe2\x80\xa6 https://t.co/j067VuiObY https://t.co/6qByyHmN2E'
p2
sS'Created At'
p3
S'2015-11-28 20:23:12'
p4
s.(dp0
S'Text'
p1
S'60% OFF BLACK FRIDAY - AARATEK Pro Sport Armband for iPhone 6,6s, Galaxy S6,S5,S4 (Black) - Best fo\xe2\x80\xa6 https://t.co/8DOyhNGN2t'
p2
sS'Created At'
p3
S'2015-11-28 20:23:13'
p4
s.(dp0
S'Text'
p1
S'https://t.co/3ibcgikP9y #1841 LOT REMAX Dual USB Adapter 3.4A Home Travel Wall Charger For Iphone Samsung HTC https://t.co/3iXvSf6Ohc'
p2
sS'Created At'
p3
S'2015-11-28 20:23:12'
p4
s.(dp0
S'Text'
p1
S"I've collected 6,830 gold coins!  https://t.co/hKc36oKwvn #android, #androidgames, #gameinsight"
p2
sS'Created At'
p3
S'2015-11-28 20:23:13'
p4
s.(dp0
S'Text'
p1
S'Apple iPhone 4s - 8GB - Black (Verizon) Smartphone - UNLOCKED W/Otter Black Case - Bid Now\xe2\x80\xa6 https://t.co/ufe9VMlJiE https://t.co/0TRoClkubL'
p2
sS'Created At'
p3
S'2015-11-28 20:23:13'
p4
s.(dp0
S'Text'
p1
S"I've finished the Message Board quest! Are you able to fulfil the same task? https://t.co/0tBrrawg5y #android,#androidgames,#gameinsight"
p2
sS'Created At'
p3
S'2015-11-28 20:23:13'
p4
s.(dp0
S'Text'
p1
S"RT @TheLiberal_ie: WIN #WIN #iPhone6 -We're giving away an iPhone 6 thanks to @Pursha_com To enter, re-tweet &amp; Follow us! #competition http\xe2\x80\xa6"
p2
sS'Created At'
p3
S'2015-11-28 20:23:13'
p4
s.(dp0
S'Text'
p1
S'RT @ShitChallenge: @ShitChallenge start the next step!\nGet an iPhone for free!*\nVisit: https://t.co/26lOKqRqLN https://t.co/A5ObkoNi5O'
p2
sS'Created At'
p3
S'2015-11-28 20:23:13'
p4
s.(dp0
S'Text'
p1
S'RT @ForbesTech: New leak indicates that Apple might be in talks to change its iPhone display technology: https://t.co/ojeSHojVNx https://t.\xe2\x80\xa6'
p2
sS'Created At'
p3
S'2015-11-28 20:23:14'
p4
s.(dp0
S'Text'
p1
S'Idk why I found this so funny \xf0\x9f\x98\x82 https://t.co/pOMqWNsX9k'
p2
sS'Created At'
p3
S'2015-11-28 20:23:14'
p4
s.(dp0
S'Text'
p1
S'FIRST Smart Magic Ring Multifunction Magic Smart NFC Ring for Android WP Mobile Phones Samsung Gala\xe2\x80\xa6 https://t.co/lOjHRc5pIv'
p2
sS'Created At'
p3
S'2015-11-28 20:23:14'
p4
s.(dp0
S'Text'
p1
S'Ever Wondered Why You Get Two Different Choices To Answer Calls On Your iPhone? https://t.co/XmDgFQaPwC'
p2
sS'Created At'
p3
S'2015-11-28 20:23:14'
p4
s.(dp0
S'Text'
p1
S"RT @Dory: Why do android snapchats look like they're from the 1800's https://t.co/2XWU9JpTi5"
p2
sS'Created At'
p3
S'2015-11-28 20:23:15'
p4
s.(dp0
S'Text'
p1
S"RT @TheLiberal_ie: WIN #WIN #iPhone6 -We're giving away an iPhone 6 thanks to @Pursha_com To enter, re-tweet &amp; Follow us! #competition http\xe2\x80\xa6"
p2
sS'Created At'
p3
S'2015-11-28 20:23:15'
p4
s.(dp0
S'Text'
p1
S'No logs kept gigabit speed #VPN https://t.co/ziXjWg6V13 \n#IOS #Android #apple #mac #windows #windows10 #microsoft\nhttps://t.co/OU07HFy7IN'
p2
sS'Created At'
p3
S'2015-11-28 20:23:15'
p4
s.(dp0
S'Text'
p1
S'Retweeted Android Central (@androidcentral):\n\nMoto X Style is now receiving the Marshmallow update in India... https://t.co/Ad3JG8vd7C'
p2
sS'Created At'
p3
S'2015-11-28 20:23:15'
p4
s.(dp0
S'Text'
p1
S'RT @AmazeGear: Congrats @jessicawalshey DM us to claim your iPhone :)'
p2
sS'Created At'
p3
S'2015-11-28 20:23:15'
p4
s.(dp0
S'Text'
p1
S'IOS Caverns of Minos V 0001.01.01 IPA Free Download - https://t.co/f1WmxmGzDD https://t.co/SyRXFLirFd'
p2
sS'Created At'
p3
S'2015-11-28 20:23:16'
p4
s.(dp0
S'Text'
p1
S"One of Mark Zuckerberg's 'big regrets' shows why h https://t.co/4Z6TTDiTH7 #hot #Trending #News #Startups #HowTo #DIY #Android #HowTo #Apps"
p2
sS'Created At'
p3
S'2015-11-28 20:23:16'
p4
s.(dp0
S'Text'
p1
S'https://t.co/3BqHJ6M9nH #0664 poddities iPhone 6/6 Plus strap NETSUKE silver Free tracking Japan https://t.co/hYozh8dAE1'
p2
sS'Created At'
p3
S'2015-11-28 20:23:16'
p4
s.(dp0
S'Text'
p1
S'RT @StreetCreditMa: Acer Iconia 7 16GB Android Tablet- White/Black https://t.co/h7Fbsj1hTm'
p2
sS'Created At'
p3
S'2015-11-28 20:23:16'
p4
s.(dp0
S'Text'
p1
S'When ya mom ordering you an iPhone 6 https://t.co/uWNF57UOHG'
p2
sS'Created At'
p3
S'2015-11-28 20:23:16'
p4
s.(dp0
S'Text'
p1
S"I'm in the Apple Store and someone's baby is sucking on an iPhone charger. Wtf like pay attention to your kid"
p2
sS'Created At'
p3
S'2015-11-28 20:23:16'
p4
s.(dp0
S'Text'
p1
S"There's a lot of other things I care about more than JJ Bella telling his iPhone he wants to make it cum"
p2
sS'Created At'
p3
S'2015-11-28 20:23:16'
p4
s.(dp0
S'Text'
p1
S"I've collected 67,700 gold coins!  https://t.co/Ho1VdUixiY #android, #androidgames, #gameinsight"
p2
sS'Created At'
p3
S'2015-11-28 20:23:16'
p4
s.(dp0
S'Text'
p1
S'https://t.co/RDFOlK24F0 #9307 MFI Silver Lightning Cable Cord Connector Charger for iPhone 5s 5 (2 ft.) https://t.co/e4ohYdILBb'
p2
sS'Created At'
p3
S'2015-11-28 20:23:16'
p4
s.(dp0
S'Text'
p1
S"Retweet if you're team iPhone"
p2
sS'Created At'
p3
S'2015-11-28 20:23:17'
p4
s.(dp0
S'Text'
p1
S'https://t.co/C2RfPaGzvh #4159 KLOGI PU Leather Bag Case Cover with Strap for iPhone 6 (Salmon White) https://t.co/s5pj9wyG3u'
p2
sS'Created At'
p3
S'2015-11-28 20:23:17'
p4
s.(dp0
S'Text'
p1
S'I just gained 4 new followers using this awesome #iPhone #app @twigrow:https://t.co/nvhkjvnIHk'
p2
sS'Created At'
p3
S'2015-11-28 20:23:17'
p4
s.(dp0
S'Text'
p1
S'#10BillionWives \nI married5,971,994,827,579,964Wives!\n\niOS: https://t.co/KKoQhytLn7\nAndroid: https://t.co/kQDlesvbsz https://t.co/4arCLUwwuX'
p2
sS'Created At'
p3
S'2015-11-28 20:23:17'
p4
s.(dp0
S'Text'
p1
S'RT @thehackmind: hairycoders: hairycoders: Aid_Rostov: RT tvdeun: FireEye on the Cisco IOS firmware #hack - \xe2\x80\xa6 http://t.co/AprPoegNDq'
p2
sS'Created At'
p3
S'2015-11-28 20:23:18'
p4
s.(dp0
S'Text'
p1
S'listen now :  Living Room Nightflash  on ZEN FOR YOU RADIO\nFREE APP IPHONE / ANDROID\nhttps://t.co/tqcO4JxpNp'
p2
sS'Created At'
p3
S'2015-11-28 20:23:18'
p4
s.(dp0
S'Text'
p1
S'#Awesome #App \xe2\x80\x93 8 awesome paid iPhone apps on sale for free for a limited time \xe2\x80\x93 Welcome to... https://t.co/IX1ki9iUZm #gplus #Googleplus'
p2
sS'Created At'
p3
S'2015-11-28 20:23:18'
p4
s.(dp0
S'Text'
p1
S"@MikeKiernan84 @appboyce @jon_boyce Yep, Twitter won me over. It even made it to my iPhone's fav 4: https://t.co/XTz3zt7o4D"
p2
sS'Created At'
p3
S'2015-11-28 20:23:17'
p4
s.(dp0
S'Text'
p1
S'https://t.co/PqFkOivMyx #7332 KLOGI PU Clutch Purse Case Card Holder Strap for iPhone 6 / 6s  (heart / Beige) https://t.co/VTlPwShjCl'
p2
sS'Created At'
p3
S'2015-11-28 20:23:18'
p4
s.(dp0
S'Text'
p1
S"I've harvested 300 of food!  https://t.co/MB09zYykzx #android, #androidgames, #gameinsight"
p2
sS'Created At'
p3
S'2015-11-28 20:23:18'
p4
s.(dp0
S'Text'
p1
S'RT @OplaRahman: Jailbreak iOS 9 Guide - https://t.co/ta4AZ0KVJV https://t.co/RA0edTUs6k'
p2
sS'Created At'
p3
S'2015-11-28 20:23:18'
p4
s.(dp0
S'Text'
p1
S"I've collected 10,590 gold coins!  https://t.co/NuFRzWQpB1 #android, #androidgames, #gameinsight"
p2
sS'Created At'
p3
S'2015-11-28 20:23:18'
p4
s.(dp0
S'Text'
p1
S'This is very handy \n RT @CoolBlindTech: Speed Test for iOS : Geekiness Made Easy https://t.co/g72dNYe057'
p2
sS'Created At'
p3
S'2015-11-28 20:23:18'
p4
s.(dp0
S'Text'
p1
S'#iphone #apple Deals https://t.co/UksoZnUDTp #2031 Apple iPhone 6 Plus - 16GB - Space Gray (T-Mobile) Smartphone https://t.co/sOzQq1qXGs'
p2
sS'Created At'
p3
S'2015-11-28 20:23:18'
p4
s.(dp0
S'Text'
p1
S'https://t.co/utQ1le4abq #0793 Colorful White Lightning Cord Cable Connector for iPhone 5c 5S 5 (1.3 m) https://t.co/WYjmEKDo6d'
p2
sS'Created At'
p3
S'2015-11-28 20:23:18'
p4
s.(dp0
S'Text'
p1
S"I've finished the Send 5 invitations quest! Are you able to fulfil the same task? https://t.co/IsGMrB0P7o #android,#androidgames,#game..."
p2
sS'Created At'
p3
S'2015-11-28 20:23:19'
p4
s.(dp0
S'Text'
p1
S"RT @yoifeellike: the iphone charger that doesn't quite reach"
p2
sS'Created At'
p3
S'2015-11-28 20:23:19'
p4
s.(dp0
S'Text'
p1
S'RT @BieberholicFeel: iPhone 7 is way better tbh https://t.co/TscO1RoKth'
p2
sS'Created At'
p3
S'2015-11-28 20:23:19'
p4
s.(dp0
S'Text'
p1
S'#iphone #apple Deals https://t.co/Kj4KHHDYIu #2812 8 Pin Audi AMI MDI MMI AUX Charge Cable Lighting Adapter For iP\xe2\x80\xa6 https://t.co/8ISx1uRDCd'
p2
sS'Created At'
p3
S'2015-11-28 20:23:19'
p4
s.(dp0
S'Text'
p1
S'https://t.co/z0zT9Efjug #1740 Simplism Fabric Strap Hard Case Cover for iPhone 6s Plus / 6 Plus (Denim) https://t.co/KeaRl8zwaC'
p2
sS'Created At'
p3
S'2015-11-28 20:23:19'
p4
s.(dp0
S'Text'
p1
S'ForbesTech: New leak reveals that Apple may soon abandon the headphone jack for the iPhone: \xe2\x80\xa6 https://t.co/VeTaWgN4Si'
p2
sS'Created At'
p3
S'2015-11-28 20:23:20'
p4
s.(dp0
S'Text'
p1
S'RT @AmazeGear: Congrats @jessicawalshey DM us to claim your iPhone :)'
p2
sS'Created At'
p3
S'2015-11-28 20:23:20'
p4
s.(dp0
S'Text'
p1
S'I have Bathhouse on my island! Now my island is even more awesome!  https://t.co/4jYHpHswa9 #android, #androidgames, #gameinsight'
p2
sS'Created At'
p3
S'2015-11-28 20:23:20'
p4
s.(dp0
S'Text'
p1
S'https://t.co/83s9c62OCf #8097 Hamee MFi Lightning Cable 65cm Earphone Set for iPhone 5 5s 6 6 Plus (Silver) https://t.co/SuoQfV8l4I'
p2
sS'Created At'
p3
S'2015-11-28 20:23:20'
p4
s.(dp0
S'Text'
p1
S'Your iPhone taken away bitch bye \xf0\x9f\x98\x82\xf0\x9f\x98\x82\xf0\x9f\x98\x82\xf0\x9f\x98\x82\xf0\x9f\x98\x82 https://t.co/tdXxAcGRab'
p2
sS'Created At'
p3
S'2015-11-28 20:23:20'
p4
s.(dp0
S'Text'
p1
S'https://t.co/ab1kKlQfOX #4986 simasima ZOOPY Plush Doll Mobile Case Cover Stand for iPhone 5S 5C 5 (Rabbit) https://t.co/4Nk5MtmTWI'
p2
sS'Created At'
p3
S'2015-11-28 20:23:21'
p4
s.(dp0
S'Text'
p1
S'--&gt; https://t.co/YzvzkrgPLb &lt;--- #ANDROID #APP AND #GAMES #GRATIS || What the Super Mario Maker amiibo sprites for\xe2\x80\xa6 https://t.co/lGWxWNIB8B'
p2
sS'Created At'
p3
S'2015-11-28 20:23:21'
p4
s.(dp0
S'Text'
p1
S'RT @AmazeGear: Congrats @jessicawalshey DM us to claim your iPhone :)'
p2
sS'Created At'
p3
S'2015-11-28 20:23:22'
p4
s.(dp0
S'Text'
p1
S'RT @AmazeGear: For my actives this \xe2\x9d\xa4\xef\xb8\x8f RT + Follow @Rxnzoo for your chance to win this iPhone!\n\nWinner in 1 Hour! https://t.co/5oM9EMvdfl'
p2
sS'Created At'
p3
S'2015-11-28 20:23:22'
p4
s.(dp0
S'Text'
p1
S'RT @ArianaSamantha6: #android #Arkansas #photoshop #practice The #bulimia #recovery #program: https://t.co/SHfeeNW4SY A Membership https://\xe2\x80\xa6'
p2
sS'Created At'
p3
S'2015-11-28 20:23:22'
p4
s.(dp0
S'Text'
p1
S"I've harvested 1,209 of food!  https://t.co/kL7JrD7jXe #android, #androidgames, #gameinsight"
p2
sS'Created At'
p3
S'2015-11-28 20:23:22'
p4
s.(dp0
S'Text'
p1
S"RT @Dory: Why do android snapchats look like they're from the 1800's https://t.co/2XWU9JpTi5"
p2
sS'Created At'
p3
S'2015-11-28 20:23:22'
p4
s.(dp0
S'Text'
p1
S"RT @Dory: Why do android snapchats look like they're from the 1800's https://t.co/2XWU9JpTi5"
p2
sS'Created At'
p3
S'2015-11-28 20:23:22'
p4
s.(dp0
S'Text'
p1
S'--&gt; https://t.co/YzvzkrgPLb &lt;--- #ANDROID #APP AND #GAMES #GRATIS || After many many coats of purple to get that r\xe2\x80\xa6 https://t.co/UypxB8xhUn'
p2
sS'Created At'
p3
S'2015-11-28 20:23:22'
p4
s.(dp0
S'Text'
p1
S"I've harvested 1,580 of food!  https://t.co/ddxvR2ElIO #android, #androidgames, #gameinsight"
p2
sS'Created At'
p3
S'2015-11-28 20:23:23'
p4
s.(dp0
S'Text'
p1
S'Apple iPhone 5 - 16GB - Black &amp; Slate (Sprint) Smartphone claim yours now via https://t.co/Ct7pJyFPM5 #iphone #ios\xe2\x80\xa6 https://t.co/yRYDiYjauA'
p2
sS'Created At'
p3
S'2015-11-28 20:23:22'
p4
s.(dp0
S'Text'
p1
S'https://t.co/zoa2YHJb6W #1426 Simasima Myumyu Animal Case Cover Stand for iPhone 6 (Dalmatian / Beige x Brown) https://t.co/bsXs10ulWj'
p2
sS'Created At'
p3
S'2015-11-28 20:23:22'
p4
s.(dp0
S'Text'
p1
S'#iphone #apple Deals https://t.co/2BQOQLjOWn #1341 Apple iPhone 5S 16GB AT&amp;T 4G LTE Smartphone https://t.co/SMInSMYbTj'
p2
sS'Created At'
p3
S'2015-11-28 20:23:22'
p4
s.(dp0
S'Text'
p1
S'money &amp; shoes . Lots &amp; lots of shoes \xf0\x9f\x98\xbb &amp; the iPhone 6\xf0\x9f\x98\x9b https://t.co/nez955KG3r'
p2
sS'Created At'
p3
S'2015-11-28 20:23:23'
p4
s.(dp0
S'Text'
p1
S'Castle Dungeon has been explored. Are you able to reach it too? https://t.co/dCXQw0sPma #android,#androidgames,#gameinsight'
p2
sS'Created At'
p3
S'2015-11-28 20:23:23'
p4
s.(dp0
S'Text'
p1
S"I've collected 251,424 gold coins!  https://t.co/uyyQXQgpOJ #android, #androidgames, #gameinsight"
p2
sS'Created At'
p3
S'2015-11-28 20:23:23'
p4
s.(dp0
S'Text'
p1
S'Apple iPhone 3GS - 16GB - White Ready to Activate claim yours now via https://t.co/Ct7pJyFPM5 #iphone #ios #iphone\xe2\x80\xa6 https://t.co/WU9uOyAp0V'
p2
sS'Created At'
p3
S'2015-11-28 20:23:23'
p4
s.(dp0
S'Text'
p1
S'https://t.co/KaVeEZ0acH #8340 NEW IPHONE 4 4S FLOWER RHINESTONE BALL CHARM EARPHONE PLUG CAP COVER BLACK https://t.co/B2XSvuMAyF'
p2
sS'Created At'
p3
S'2015-11-28 20:23:23'
p4
s.(dp0
S'Text'
p1
S'RT @madisonwbu: THIS WHY YALL NEED TO UPDATE YOUR SHIT GUYS. I CANT EVEN TALK TO MY GF CAUSE SHES A LAME W THAT IOS.DINOSAUR https://t.co/W\xe2\x80\xa6'
p2
sS'Created At'
p3
S'2015-11-28 20:23:24'
p4
s.(dp0
S'Text'
p1
S'#iphone #apple Deals https://t.co/7SJeTIAa7a #9789 APPLE IPHONE 5S 16gb unlocked GREY/BLACK NEW  *FAST SHIP* SEALED https://t.co/I8GAXm6ODS'
p2
sS'Created At'
p3
S'2015-11-28 20:23:23'
p4
s.(dp0
S'Text'
p1
S"--&gt; https://t.co/YzvzkrgPLb &lt;--- #ANDROID #APP AND #GAMES #GRATIS || So happy, today I'll be able to play with two\xe2\x80\xa6 https://t.co/qT3FvknoV2"
p2
sS'Created At'
p3
S'2015-11-28 20:23:24'
p4
s.(dp0
S'Text'
p1
S'Ever Wondered Why You Get Two Different Choices To Answer Calls On Your iPhone? https://t.co/5DSB48emb1 https://t.co/7x5qcAg2K0'
p2
sS'Created At'
p3
S'2015-11-28 20:23:24'
p4
s.(dp0
S'Text'
p1
S'#iphone #apple Deals https://t.co/OCLoibPP2O #7567 Apple iPhone 5S 16GB "Factory Unlocked" Gray - Gold - Silver  S\xe2\x80\xa6 https://t.co/O9ZXCrTy2G'
p2
sS'Created At'
p3
S'2015-11-28 20:23:25'
p4
s.(dp0
S'Text'
p1
S"I've harvested 30 of food!  https://t.co/LLFw1GL5as #android, #androidgames, #gameinsight"
p2
sS'Created At'
p3
S'2015-11-28 20:23:25'
p4
s.(dp0
S'Text'
p1
S'Make it a holiday to remember. Enter for a chance to win an iPhone. 12 days of giveaways. 12 chances to win.  https://t.co/gVjz833bu8'
p2
sS'Created At'
p3
S'2015-11-28 20:23:25'
p4
s.(dp0
S'Text'
p1
S'New Nokia Lumia 920 32GB Windows Phone Black Unlocked Smartphone - https://t.co/J02ucdZ9g9 | \n ...\n#Android https://t.co/3xUoCktJoV'
p2
sS'Created At'
p3
S'2015-11-28 20:23:25'
p4
s.(dp0
S'Text'
p1
S'#iphone #apple Deals https://t.co/SQ0CiKpEa5 #9133 Apple iPhone 5S 16GB "Factory Unlocked" Gray - Gold - Silver  S\xe2\x80\xa6 https://t.co/bXixV1l902'
p2
sS'Created At'
p3
S'2015-11-28 20:23:25'
p4
s.(dp0
S'Text'
p1
S"I've collected 50,900 gold coins!  https://t.co/LLFw1GL5as #android, #androidgames, #gameinsight"
p2
sS'Created At'
p3
S'2015-11-28 20:23:25'
p4
s.(dp0
S'Text'
p1
S'#iphone #apple Deals https://t.co/UqmBCBuFuh #4805 Apple iPhone 5 - 64GB - (Factory Unlocked) Smartphone - White o\xe2\x80\xa6 https://t.co/wRlPhTkbtk'
p2
sS'Created At'
p3
S'2015-11-28 20:23:25'
p4
s.(dp0
S'Text'
p1
S'Start playing Big Business Deluxe for Android https://t.co/ncQFl30ynA #Androidgames #Android #Gameinsight https://t.co/HSfcoq2cHf'
p2
sS'Created At'
p3
S'2015-11-28 20:23:25'
p4
s.(dp0
S'Text'
p1
S'money or iPhone 6\xf0\x9f\x98\xad https://t.co/F1rQ3BqVNa'
p2
sS'Created At'
p3
S'2015-11-28 20:23:26'
p4
s.(dp0
S'Text'
p1
S'#iphone #apple Deals https://t.co/AhPGAFQu53 #1217 Apple iPhone 6s 16GB (GSM Unlocked) iOS Smartphone - Gold/Rose \xe2\x80\xa6 https://t.co/cb9BahL2ld'
p2
sS'Created At'
p3
S'2015-11-28 20:23:26'
p4
s.(dp0
S'Text'
p1
S'--&gt; https://t.co/YzvzkrgPLb &lt;--- #ANDROID #APP AND #GAMES #GRATIS || Channel update video is on YouTube, link is i\xe2\x80\xa6 https://t.co/cOPvwX7rie'
p2
sS'Created At'
p3
S'2015-11-28 20:23:26'
p4
s.(dp0
S'Text'
p1
S"I've collected 130,785 gold coins!  https://t.co/IJVCQKbi7f #android, #androidgames, #gameinsight"
p2
sS'Created At'
p3
S'2015-11-28 20:23:26'
p4
s.(dp0
S'Text'
p1
S'#iphone #apple Deals https://t.co/XTPIUPYjot #7033 Apple iPhone 5 - 16GB - (Factory Unlocked) Smartphone - White o\xe2\x80\xa6 https://t.co/flOD5FVqzV'
p2
sS'Created At'
p3
S'2015-11-28 20:23:26'
p4
s.(dp0
S'Text'
p1
S'#iphone #apple Deals https://t.co/3TuFQKdqyd #8654 Apple iPhone 5S - 16 32 64GB GSM "Factory Unlocked" Smartphone \xe2\x80\xa6 https://t.co/eWpefAd7NI'
p2
sS'Created At'
p3
S'2015-11-28 20:23:26'
p4
s.(dp0
S'Text'
p1
S'3x Earphone Earbud Headset Headphone w/ Volume Control For Apple iPhone 6 5 5s  - Bid Now!\xe2\x80\xa6 https://t.co/Q9rTnMsnLs https://t.co/gkcGsbdSzM'
p2
sS'Created At'
p3
S'2015-11-28 20:23:26'
p4
s.(dp0
S'Text'
p1
S'RT @zayy__3: iPhone 7\xf0\x9f\x98\x8d https://t.co/eXE2lECZ8c'
p2
sS'Created At'
p3
S'2015-11-28 20:23:27'
p4
s.(dp0
S'Text'
p1
S"RT @Dory: Why do android snapchats look like they're from the 1800's https://t.co/2XWU9JpTi5"
p2
sS'Created At'
p3
S'2015-11-28 20:23:27'
p4
s.(dp0
S'Text'
p1
S'#iphone #apple Deals https://t.co/p2fcN4K75Y #7094 Apple iPhone 5C - 16gb - Factory GSM Unlocked Smartphone (B) https://t.co/VWhRyGAKM8'
p2
sS'Created At'
p3
S'2015-11-28 20:23:27'
p4
s.(dp0
S'Text'
p1
S"I've harvested 1,047 of food!  https://t.co/hxWQHUG6st #android, #androidgames, #gameinsight"
p2
sS'Created At'
p3
S'2015-11-28 20:23:27'
p4
s.(dp0
S'Text'
p1
S'#iphone #apple Deals https://t.co/WJsCEGMmbJ #3853 Apple iPhone 5C - 16gb - Factory GSM Unlocked Smartphone (B) https://t.co/RQodoIoeey'
p2
sS'Created At'
p3
S'2015-11-28 20:23:27'
p4
s.(dp0
S'Text'
p1
S'#kindlefire https://t.co/8qtUNI0jZY #kindlefire https://t.co/8qtUNI0jZY RT araijain: Product Review - Vodacom Smart Tab 3G - Android Tabl\xe2\x80\xa6'
p2
sS'Created At'
p3
S'2015-11-28 20:23:28'
p4
s.(dp0
S'Text'
p1
S'RT @OplaRahman: Jailbreak iOS 9 Guide - https://t.co/ta4AZ0KVJV https://t.co/RA0edTUs6k'
p2
sS'Created At'
p3
S'2015-11-28 20:23:27'
p4
s.(dp0
S'Text'
p1
S'#iphone #apple Deals https://t.co/amsbvXxPEp #9225 Apple iPhone 5 16GB 4G LTE FACTORY UNLOCKED Clean ESN Black or \xe2\x80\xa6 https://t.co/FeGGeQHAYm'
p2
sS'Created At'
p3
S'2015-11-28 20:23:28'
p4
s.(dp0
S'Text'
p1
S'#iphone #apple Deals https://t.co/QDOhelGKRa #5323 Apple iPhone 5 16GB "Factory Unlocked" iOS Black and White Smar\xe2\x80\xa6 https://t.co/wQXymywUCK'
p2
sS'Created At'
p3
S'2015-11-28 20:23:28'
p4
s.(dp0
S'Text'
p1
S'--&gt; https://t.co/YzvzkrgPLb &lt;--- #ANDROID #APP AND #GAMES #GRATIS || #Thanksgiving #Weekend #SALE continues @ #emp\xe2\x80\xa6 https://t.co/UJ6YpTTIHf'
p2
sS'Created At'
p3
S'2015-11-28 20:23:28'
p4
s.(dp0
S'Text'
p1
S'Smallest Bluetooth headphone Headset For Iphone,Samsung,motorola,HTC Cell Phone - Bid Now!\xe2\x80\xa6 https://t.co/tDq9Jv2KeT https://t.co/MBegr2BGQQ'
p2
sS'Created At'
p3
S'2015-11-28 20:23:28'
p4
s.(dp0
S'Text'
p1
S"I've collected 52,414 gold coins!  https://t.co/KMDLef2nty #android, #androidgames, #gameinsight"
p2
sS'Created At'
p3
S'2015-11-28 20:23:28'
p4
s.(dp0
S'Text'
p1
S"I've harvested 1,006 of food!  https://t.co/KMDLef2nty #android, #androidgames, #gameinsight"
p2
sS'Created At'
p3
S'2015-11-28 20:23:28'
p4
s.(dp0
S'Text'
p1
S'#iphone #apple Deals https://t.co/fPdjnUFDHy #6217 Apple iPhone 5s - 16gb - Factory GSM Unlocked Smartphone (C) https://t.co/8eQtsSTO6C'
p2
sS'Created At'
p3
S'2015-11-28 20:23:28'
p4
s.(dp0
S'Text'
p1
S'RT @ShitChallenge: @ShitChallenge start the next step!\nGet an iPhone for free!*\nVisit: https://t.co/26lOKqRqLN https://t.co/A5ObkoNi5O'
p2
sS'Created At'
p3
S'2015-11-28 20:23:29'
p4
s.(dp0
S'Text'
p1
S"I've collected 25,540 gold coins!  https://t.co/hKc36oKwvn #android, #androidgames, #gameinsight"
p2
sS'Created At'
p3
S'2015-11-28 20:23:29'
p4
s.(dp0
S'Text'
p1
S'RT @icasnetwork2015: https://t.co/Ax1VqJuDEr Android M Coming soon - ICas @icasnetwork2015'
p2
sS'Created At'
p3
S'2015-11-28 20:23:29'
p4
s.(dp0
S'Text'
p1
S'#iphone #apple Deals https://t.co/yOMlxM5VJW #1180 Genuine Original Apple 1440 mAh Standard Internal Battery 616-0\xe2\x80\xa6 https://t.co/wXy5uBGWsD'
p2
sS'Created At'
p3
S'2015-11-28 20:23:29'
p4
s.(dp0
S'Text'
p1
S'#iphone #apple Deals https://t.co/pkSupePvgS #0283 Apple iPhone 4S 16GB "Factory Unlocked" Black and White Smartph\xe2\x80\xa6 https://t.co/roKPVoOWJY'
p2
sS'Created At'
p3
S'2015-11-28 20:23:29'
p4
s.(dp0
S'Text'
p1
S'But I never iphone, Android these niggas'
p2
sS'Created At'
p3
S'2015-11-28 20:23:29'
p4
s.(dp0
S'Text'
p1
S'RT @AmazeGear: Congrats @jessicawalshey DM us to claim your iPhone :)'
p2
sS'Created At'
p3
S'2015-11-28 20:23:29'
p4
s.(dp0
S'Text'
p1
S'RT @aka_aus: I swear to god my iPhone 6S be acting like a 3GS. Fucking stupid.'
p2
sS'Created At'
p3
S'2015-11-28 20:23:29'
p4
s.(dp0
S'Text'
p1
S'--&gt; https://t.co/YzvzkrgPLb &lt;--- #ANDROID #APP AND #GAMES #GRATIS || Until Dawn only on PS4... When eight friends \xe2\x80\xa6 https://t.co/p8kJTn0EqM'
p2
sS'Created At'
p3
S'2015-11-28 20:23:29'
p4
s.(dp0
S'Text'
p1
S'#iphone #apple Deals https://t.co/NPNyx5Ur9a #5693 Apple iPhone 6 - 16GB - Factory GSM Unlocked Smartphone BLACK W\xe2\x80\xa6 https://t.co/LNn8VfNCfZ'
p2
sS'Created At'
p3
S'2015-11-28 20:23:29'
p4
s.(dp0
S'Text'
p1
S'#iphone #apple Deals https://t.co/B7v7eA5Pw6 #2182 Apple iPhone 6 - 16GB - Factory GSM Unlocked Smartphone BLACK W\xe2\x80\xa6 https://t.co/CRhIrHPVBn'
p2
sS'Created At'
p3
S'2015-11-28 20:23:29'
p4
s.(dp0
S'Text'
p1
S'--&gt; https://t.co/YzvzkrgPLb &lt;--- #ANDROID #APP AND #GAMES #GRATIS || Check out our new listings!! More to come tod\xe2\x80\xa6 https://t.co/lX1bUenxLb'
p2
sS'Created At'
p3
S'2015-11-28 20:23:30'
p4
s.(dp0
S'Text'
p1
S'RT @News10Live: Girl Killed In Her Sleep From Wearing Earbuds While iPhone Was Charging https://t.co/UPMPInXrk9'
p2
sS'Created At'
p3
S'2015-11-28 20:23:30'
p4
s.(dp0
S'Text'
p1
S'RT @OplaRahman: Jailbreak iOS 9 Guide - https://t.co/ta4AZ0KVJV https://t.co/RA0edTUs6k'
p2
sS'Created At'
p3
S'2015-11-28 20:23:30'
p4
s.(dp0
S'Text'
p1
S'RT @yooogab_: Honestly I hate seeing a pretty girl with an android and android quality picture. LMAO'
p2
sS'Created At'
p3
S'2015-11-28 20:23:30'
p4
s.(dp0
S'Text'
p1
S'Sport Bluetooth Wireless Headset Headphone Earphone Mic for iPhone Samsung HTC - Bid Now! \xe2\x80\xa6 https://t.co/TskHvsnNId https://t.co/tU5DQVWEy5'
p2
sS'Created At'
p3
S'2015-11-28 20:23:30'
p4
s.(dp0
S'Text'
p1
S'#iphone #apple Deals https://t.co/lHg6s5UPLx #7372 Mophie Juice Pack Helium Rechargeable External Battery Case for\xe2\x80\xa6 https://t.co/VaNGXd5xCL'
p2
sS'Created At'
p3
S'2015-11-28 20:23:30'
p4
s.(dp0
S'Text'
p1
S"I've collected 7,375 gold coins!  https://t.co/wP9ZSi2A70 #android, #androidgames, #gameinsight"
p2
sS'Created At'
p3
S'2015-11-28 20:23:31'
p4
s.(dp0
S'Text'
p1
S'Anybody else iphone just be randomly restarting?'
p2
sS'Created At'
p3
S'2015-11-28 20:23:31'
p4
s.(dp0
S'Text'
p1
S"I've harvested 1,047 of food!  https://t.co/2ofvQfePLO #android, #androidgames, #gameinsight"
p2
sS'Created At'
p3
S'2015-11-28 20:23:31'
p4
s.(dp0
S'Text'
p1
S'#iphone #apple Deals https://t.co/PQr0CFIULU #5253 New High-Capacity Li-ion Internal Battery Replacement for iPhon\xe2\x80\xa6 https://t.co/GBw1HOKi9m'
p2
sS'Created At'
p3
S'2015-11-28 20:23:31'
p4
s.(dp0
S'Text'
p1
S"I've collected 10,153 gold coins!  https://t.co/9CsecJGHqf #android, #androidgames, #gameinsight"
p2
sS'Created At'
p3
S'2015-11-28 20:23:31'
p4
s.(dp0
S'Text'
p1
S'--&gt; https://t.co/YzvzkrgPLb &lt;--- #ANDROID #APP AND #GAMES #GRATIS || Follow @StickyFlames\n\n#games #indiedev #indie\xe2\x80\xa6 https://t.co/vpiEOCysOq'
p2
sS'Created At'
p3
S'2015-11-28 20:23:31'
p4
s.(dp0
S'Text'
p1
S'RT @ShitChallenge: @ShitChallenge start the next step!\nGet an iPhone for free!*\nVisit: https://t.co/26lOKqRqLN https://t.co/A5ObkoNi5O'
p2
sS'Created At'
p3
S'2015-11-28 20:23:32'
p4
s.(dp0
S'Text'
p1
S'#iphone #apple Deals https://t.co/WLGXRpKuo2 #6714 Mophie Juice Pack Desktop Dock For Apple iPhone 5/5s dock-jp5-p\xe2\x80\xa6 https://t.co/ufBef468Yi'
p2
sS'Created At'
p3
S'2015-11-28 20:23:32'
p4
s.(dp0
S'Text'
p1
S"I've harvested 1,090 of food!  https://t.co/rnqjEwlTNK #android, #androidgames, #gameinsight"
p2
sS'Created At'
p3
S'2015-11-28 20:23:32'
p4
s.(dp0
S'Text'
p1
S'ABC News App for iPhone, Android &amp; Windows - ABC News: https://t.co/5OLPeQUsQk'
p2
sS'Created At'
p3
S'2015-11-28 20:23:32'
p4
s.(dp0
S'Text'
p1
S"I've collected 21,033 gold coins!  https://t.co/rnqjEwlTNK #android, #androidgames, #gameinsight"
p2
sS'Created At'
p3
S'2015-11-28 20:23:32'
p4
s.(dp0
S'Text'
p1
S'RT @ShitChallenge: @ShitChallenge start the next step!\nGet an iPhone for free!*\nVisit: https://t.co/26lOKqRqLN https://t.co/A5ObkoNi5O'
p2
sS'Created At'
p3
S'2015-11-28 20:23:32'
p4
s.(dp0
S'Text'
p1
S'RT @ShitChallenge: @ShitChallenge start the next step!\nGet an iPhone for free!*\nVisit: https://t.co/26lOKqRqLN https://t.co/A5ObkoNi5O'
p2
sS'Created At'
p3
S'2015-11-28 20:23:33'
p4
s.