(dp0
S'Text'
p1
S'A new territory is discovered in The Tribez &amp; Castlez! Can you unlock it too? https://t.co/uFFclbFFu8 #android,#androidgames,#gameinsight'
p2
sS'Created At'
p3
S'2015-11-28 22:02:34'
p4
s.(dp0
S'Text'
p1
S"I've finished the Magical Pocket quest! Are you able to fulfil the same task? https://t.co/8yZNYAsCHp #android,#androidgames,#gameinsight"
p2
sS'Created At'
p3
S'2015-11-28 22:02:34'
p4
s.(dp0
S'Text'
p1
S'New HTC One A9 Touts Android 6.0 Marshmallow https://t.co/WDZUbQBE2E #htc #onea9 #android #marshmallow #amoled #snapdragon #ultrapixel'
p2
sS'Created At'
p3
S'2015-11-28 22:02:34'
p4
s.(dp0
S'Text'
p1
S'WILLIHARD - now available for iOS | Android https://t.co/GaOZapmRaE'
p2
sS'Created At'
p3
S'2015-11-28 22:02:35'
p4
s.(dp0
S'Text'
p1
S"I've harvested 162 of food!  https://t.co/gFO2qYpJLJ #android, #androidgames, #gameinsight"
p2
sS'Created At'
p3
S'2015-11-28 22:02:35'
p4
s.(dp0
S'Text'
p1
S"I've finished the Fortress on the Horizon quest! Are you able to fulfil the same task? https://t.co/uFFclbFFu8 #android,#androidgames,..."
p2
sS'Created At'
p3
S'2015-11-28 22:02:36'
p4
s.(dp0
S'Text'
p1
S"I've collected 41,312 gold coins!  https://t.co/gFO2qYpJLJ #android, #androidgames, #gameinsight"
p2
sS'Created At'
p3
S'2015-11-28 22:02:36'
p4
s.(dp0
S'Text'
p1
S"I've harvested 812 of food!  https://t.co/N7lkW4E21E #android, #androidgames, #gameinsight"
p2
sS'Created At'
p3
S'2015-11-28 22:02:36'
p4
s.(dp0
S'Text'
p1
S'I have discovered a new territory in The Tribez! https://t.co/bckrMbRJBy  #android, #androidgames, #gameinsight'
p2
sS'Created At'
p3
S'2015-11-28 22:02:37'
p4
s.(dp0
S'Text'
p1
S'today in @OttawaCitizen, @touch_plow, are you planning on a Windows Client\\UWP? Android?'
p2
sS'Created At'
p3
S'2015-11-28 22:02:37'
p4
s.(dp0
S'Text'
p1
S'I have Bathhouse on my island! Now my island is even more awesome!  https://t.co/eoOaoLrxx6 #android, #androidgames, #gameinsight'
p2
sS'Created At'
p3
S'2015-11-28 22:02:37'
p4
s.(dp0
S'Text'
p1
S'I have Nice Hut on my island! Now my island is even more awesome!  https://t.co/sPbEzqjuRm #android, #androidgames, #gameinsight'
p2
sS'Created At'
p3
S'2015-11-28 22:02:38'
p4
s.(dp0
S'Text'
p1
S'10 days of the Turkish resistance ! https://t.co/0BkpWCXrpU'
p2
sS'Created At'
p3
S'2015-11-28 22:02:40'
p4
s.(dp0
S'Text'
p1
S"I've collected 19,300 gold coins!  https://t.co/yG0FDzHGEh #android, #androidgames, #gameinsight"
p2
sS'Created At'
p3
S'2015-11-28 22:02:41'
p4
s.(dp0
S'Text'
p1
S"I have completed the quest 'Build a Bathhouse.' in the #Android game The Tribez.  https://t.co/eoOaoLrxx6 #androidgames, #gameinsight"
p2
sS'Created At'
p3
S'2015-11-28 22:02:41'
p4
s.(dp0
S'Text'
p1
S"I've collected 32,060 gold coins!  https://t.co/VLO7sEfHsf #android, #androidgames, #gameinsight"
p2
sS'Created At'
p3
S'2015-11-28 22:02:42'
p4
s.(dp0
S'Text'
p1
S'you can afford $400 weave but yet you have an android..... hmmm\xf0\x9f\xa4\x94 https://t.co/6npb53usPq'
p2
sS'Created At'
p3
S'2015-11-28 22:02:42'
p4
s.(dp0
S'Text'
p1
S'RT @icasnetwork2015: https://t.co/Ax1VqJuDEr Android M Coming soon - ICas @icasnetwork2015'
p2
sS'Created At'
p3
S'2015-11-28 22:02:43'
p4
s.(dp0
S'Text'
p1
S"I'm now an E-List celebrity in Kim Kardashian: Hollywood. You can be famous too by playing on Android! https://t.co/1X8lkRA5Ff"
p2
sS'Created At'
p3
S'2015-11-28 22:02:43'
p4
s.(dp0
S'Text'
p1
S"I've finished the Border Lockdown quest! Are you able to fulfil the same task? https://t.co/7TKiR8Z0Dv #android,#androidgames,#gameins..."
p2
sS'Created At'
p3
S'2015-11-28 22:02:43'
p4
s.(dp0
S'Text'
p1
S"I've collected 30,752 gold coins!  https://t.co/HzPIPVwCNE #android, #androidgames, #gameinsight"
p2
sS'Created At'
p3
S'2015-11-28 22:02:43'
p4
s.(dp0
S'Text'
p1
S"I've harvested 1,543 of food!  https://t.co/HzPIPVwCNE #android, #androidgames, #gameinsight"
p2
sS'Created At'
p3
S'2015-11-28 22:02:43'
p4
s.(dp0
S'Text'
p1
S'Your mcm hold an android'
p2
sS'Created At'
p3
S'2015-11-28 22:02:44'
p4
s.(dp0
S'Text'
p1
S"I've collected 20,370 gold coins!  https://t.co/TPKFAOFPdu #android, #androidgames, #gameinsight"
p2
sS'Created At'
p3
S'2015-11-28 22:02:46'
p4
s.(dp0
S'Text'
p1
S"I've harvested 100 of food!  https://t.co/m4guXKLV7z #android, #androidgames, #gameinsight"
p2
sS'Created At'
p3
S'2015-11-28 22:02:46'
p4
s.(dp0
S'Text'
p1
S"I've harvested 1,000 of food!  https://t.co/qLoVW6A2ck #android, #androidgames, #gameinsight"
p2
sS'Created At'
p3
S'2015-11-28 22:02:47'
p4
s.(dp0
S'Text'
p1
S"I've collected 5,305 gold coins!  https://t.co/qLoVW6A2ck #android, #androidgames, #gameinsight"
p2
sS'Created At'
p3
S'2015-11-28 22:02:47'
p4
s.(dp0
S'Text'
p1
S"I've collected 34,920 gold coins!  https://t.co/JNhDnB27fI #android, #androidgames, #gameinsight"
p2
sS'Created At'
p3
S'2015-11-28 22:02:47'
p4
s.(dp0
S'Text'
p1
S"I've collected 426 gold coins!  https://t.co/1ngPfTRP3z #android, #androidgames, #gameinsight"
p2
sS'Created At'
p3
S'2015-11-28 22:02:47'
p4
s.(dp0
S'Text'
p1
S"I've harvested 946 of food!  https://t.co/1ngPfTRP3z #android, #androidgames, #gameinsight"
p2
sS'Created At'
p3
S'2015-11-28 22:02:47'
p4
s.(dp0
S'Text'
p1
S'My Defence is at level 8! Are your citizens safe too? https://t.co/7TKiR8Z0Dv #android,#androidgames,#gameinsight'
p2
sS'Created At'
p3
S'2015-11-28 22:02:48'
p4
s.(dp0
S'Text'
p1
S'A tiny part of Square\xe2\x80\x99s business could make it a Wall Str https://t.co/y9Gmt3jK4j #apps #News #Startups #HowTo #DIY #Android #HowTo #Apps'
p2
sS'Created At'
p3
S'2015-11-28 22:02:48'
p4
s.(dp0
S'Text'
p1
S'RT @DJ_HollyGrove: For those of you with #Android phone who want to listen later... Beats 1 stream URLs : apple https://t.co/mqzGyfL61n'
p2
sS'Created At'
p3
S'2015-11-28 22:02:48'
p4
s.(dp0
S'Text'
p1
S"I've collected 76,900 gold coins!  https://t.co/rkuVTkdgDC #android, #androidgames, #gameinsight"
p2
sS'Created At'
p3
S'2015-11-28 22:02:48'
p4
s.(dp0
S'Text'
p1
S'I have Police on my island! Now my island is even more awesome!  https://t.co/FV4p5bxqUF #android, #androidgames, #gameinsight'
p2
sS'Created At'
p3
S'2015-11-28 22:02:49'
p4
s.(dp0
S'Text'
p1
S'Nice to meet Lady Fleming! Look for the new acquaintances in the streets of London! https://t.co/bq9OQvfM7G #Android #AndroidGames'
p2
sS'Created At'
p3
S'2015-11-28 22:02:50'
p4
s.(dp0
S'Text'
p1
S"I've collected 10,037 gold coins!  https://t.co/Aa0Vetfp0t #android, #androidgames, #gameinsight"
p2
sS'Created At'
p3
S'2015-11-28 22:02:50'
p4
s.(dp0
S'Text'
p1
S"I've finished the Send 4 invitations quest! Are you able to fulfil the same task? https://t.co/L7grUkzw68 #android,#androidgames,#game..."
p2
sS'Created At'
p3
S'2015-11-28 22:02:50'
p4
s.(dp0
S'Text'
p1
S'RT @tinatbh: No offense but android snapchats look like photographs from the American civil war'
p2
sS'Created At'
p3
S'2015-11-28 22:02:51'
p4
s.(dp0
S'Text'
p1
S"I've harvested 824 of food!  https://t.co/Mvi0f7lU0S #android, #androidgames, #gameinsight"
p2
sS'Created At'
p3
S'2015-11-28 22:02:51'
p4
s.(dp0
S'Text'
p1
S"I've collected 995 gold coins!  https://t.co/Mvi0f7lU0S #android, #androidgames, #gameinsight"
p2
sS'Created At'
p3
S'2015-11-28 22:02:51'
p4
s.(dp0
S'Text'
p1
S'Get #WildWallet on Android - https://t.co/rwNu8lWo5k to earn amazing rewards for trying free apps. Use code 2335037 for 200 Bonus Credits!'
p2
sS'Created At'
p3
S'2015-11-28 22:02:53'
p4
s.(dp0
S'Text'
p1
S"I've collected 13,200 gold coins!  https://t.co/N7lkW4E21E #android, #androidgames, #gameinsight"
p2
sS'Created At'
p3
S'2015-11-28 22:02:53'
p4
s.(dp0
S'Text'
p1
S"I've collected 11,025 gold coins!  https://t.co/u481aFrBpW #android, #androidgames, #gameinsight"
p2
sS'Created At'
p3
S'2015-11-28 22:02:54'
p4
s.(dp0
S'Text'
p1
S"RT @Dory: Why do android snapchats look like they're from the 1800's https://t.co/2XWU9JpTi5"
p2
sS'Created At'
p3
S'2015-11-28 22:02:54'
p4
s.(dp0
S'Text'
p1
S'Auto subscr/unsubscr SMS Marketing Service for android: https://t.co/MrdHx8nHUe'
p2
sS'Created At'
p3
S'2015-11-28 22:02:54'
p4
s.(dp0
S'Text'
p1
S"I've finished the Send 3 invitations quest! Are you able to fulfil the same task? https://t.co/bsxk2yZiRB #android,#androidgames,#game..."
p2
sS'Created At'
p3
S'2015-11-28 22:02:55'
p4
s.(dp0
S'Text'
p1
S"I've harvested 1,060 of food!  https://t.co/c6T9L74FoF #android, #androidgames, #gameinsight"
p2
sS'Created At'
p3
S'2015-11-28 22:02:55'
p4
s.(dp0
S'Text'
p1
S"I've harvested 1,058 of food!  https://t.co/Xfto48WrNG #android, #androidgames, #gameinsight"
p2
sS'Created At'
p3
S'2015-11-28 22:02:56'
p4
s.(dp0
S'Text'
p1
S"I've collected 20,962 gold coins!  https://t.co/1pDkKRYymk #android, #androidgames, #gameinsight"
p2
sS'Created At'
p3
S'2015-11-28 22:02:56'
p4
s.(dp0
S'Text'
p1
S'Download #Moviebox for PC\nhttps://t.co/J6xj3Q2GeG \n#Android\n#androidapps #apps2015 #entertainment\n#hollywoodmovies\n#Movieboxapp'
p2
sS'Created At'
p3
S'2015-11-28 22:02:56'
p4
s.(dp0
S'Text'
p1
S"I've collected 203,876 gold coins!  https://t.co/uyyQXQgpOJ #android, #androidgames, #gameinsight"
p2
sS'Created At'
p3
S'2015-11-28 22:02:57'
p4
s.(dp0
S'Text'
p1
S"I've reached level 18. I earned \xc2\xa0$40000 and \xe2\x82\xac2! https://t.co/tpNgXnj0s6 #Androidgames #Gameinsight #Android"
p2
sS'Created At'
p3
S'2015-11-28 22:02:57'
p4
s.(dp0
S'Text'
p1
S'RT @rohit_dangar: Malaysia returning remains from site of https://t.co/yuuUGHfcG3 #uncategorized #Trending #News #Startups #HowTo #DIY #And\xe2\x80\xa6'
p2
sS'Created At'
p3
S'2015-11-28 22:02:57'
p4
s.(dp0
S'Text'
p1
S'\xe2\x9d\xa4 [FREE] Adult Comic Viewer (Android)\xe2\x9d\xa4 App Download \xe2\x96\xba https://t.co/T3jRdR9Dk6   #hentai #ecchi #anime #porn1771 https://t.co/IStfiGKE6M'
p2
sS'Created At'
p3
S'2015-11-28 22:02:57'
p4
s.(dp0
S'Text'
p1
S'I\'ve just finished "Meeting the Guardian"! I\'d love for you to come and get a gift from me! https://t.co/TcVbBL17Lg #android  #gameinsight'
p2
sS'Created At'
p3
S'2015-11-28 22:02:57'
p4
s.(dp0
S'Text'
p1
S"I'm earning #mPLUSRewards in Light Da Fuse Android. https://t.co/qSleijayZw"
p2
sS'Created At'
p3
S'2015-11-28 22:02:57'
p4
s.(dp0
S'Text'
p1
S"I've harvested 87 of food!  https://t.co/8bf92hBF9c #android, #androidgames, #gameinsight"
p2
sS'Created At'
p3
S'2015-11-28 22:02:58'
p4
s.(dp0
S'Text'
p1
S'RT @immuneApps: IceCream lets you pack more pictures into your iPhone by sa https://t.co/NHVOD6Sh2V #apps #News #Startups #HowTo #DIY #Andr\xe2\x80\xa6'
p2
sS'Created At'
p3
S'2015-11-28 22:02:58'
p4
s.(dp0
S'Text'
p1
S"I've harvested 1,531 of food!  https://t.co/p7QRqEevzP #android, #androidgames, #gameinsight"
p2
sS'Created At'
p3
S'2015-11-28 22:02:58'
p4
s.(dp0
S'Text'
p1
S"I've collected 11,943 gold coins!  https://t.co/YMMulBgWPF #android, #androidgames, #gameinsight"
p2
sS'Created At'
p3
S'2015-11-28 22:03:00'
p4
s.(dp0
S'Text'
p1
S"I've collected 15,250 gold coins!  https://t.co/HzPIPVwCNE #android, #androidgames, #gameinsight"
p2
sS'Created At'
p3
S'2015-11-28 22:03:00'
p4
s.(dp0
S'Text'
p1
S"I've collected 13,177 gold coins!  https://t.co/kftcC0vgF2 #android, #androidgames, #gameinsight"
p2
sS'Created At'
p3
S'2015-11-28 22:03:01'
p4
s.(dp0
S'Text'
p1
S'@htpcBeginner is giving away Wireless AC routers, Android TV Boxs, and Amazon Fire TV to its forum participants. https://t.co/Yr1Nei5mjB'
p2
sS'Created At'
p3
S'2015-11-28 22:03:00'
p4
s.(dp0
S'Text'
p1
S"I've finished the More Subjects quest! Are you able to fulfil the same task? https://t.co/SQdHS49q4x #android,#androidgames,#gameinsight"
p2
sS'Created At'
p3
S'2015-11-28 22:03:00'
p4
s.(dp0
S'Text'
p1
S"RT @Dory: Why do android snapchats look like they're from the 1800's https://t.co/2XWU9JpTi5"
p2
sS'Created At'
p3
S'2015-11-28 22:03:01'
p4
s.(dp0
S'Text'
p1
S"I have completed the quest 'Find three Treas...' in the #Android game The Tribez.  https://t.co/m80dId3pcL #androidgames, #gameinsight"
p2
sS'Created At'
p3
S'2015-11-28 22:03:01'
p4
s.(dp0
S'Text'
p1
S"I've collected 3,058 gold coins!  https://t.co/qJGneMlD7D #android, #androidgames, #gameinsight"
p2
sS'Created At'
p3
S'2015-11-28 22:03:01'
p4
s.(dp0
S'Text'
p1
S'I just received a reward: Firm https://t.co/tpNgXnj0s6 #Gameinsight #Androidgames #Android'
p2
sS'Created At'
p3
S'2015-11-28 22:03:02'
p4
s.(dp0
S'Text'
p1
S'I finished the "Participate in ..." task in Big Business Deluxe for Android! https://t.co/bTYhGmlNLW #Android #Gameinsight #Androidgames'
p2
sS'Created At'
p3
S'2015-11-28 22:03:02'
p4
s.(dp0
S'Text'
p1
S'I just received a reward: Firm https://t.co/tpNgXnj0s6 #Android #Gameinsight #Androidgames'
p2
sS'Created At'
p3
S'2015-11-28 22:03:03'
p4
s.(dp0
S'Text'
p1
S'I have successfully completed the Ol... quest in The Tribez &amp; Castlez for #Android. https://t.co/1Vf0jo4tF4 #androidgames, #gameinsight'
p2
sS'Created At'
p3
S'2015-11-28 22:03:03'
p4
s.(dp0
S'Text'
p1
S"I've finished the A Home for a Knight quest! Are you able to fulfil the same task? https://t.co/XWji3vs40I #android,#androidgames,#gam..."
p2
sS'Created At'
p3
S'2015-11-28 22:03:03'
p4
s.(dp0
S'Text'
p1
S"I've collected 62,210 gold coins!  https://t.co/vqvYP8XjYw #android, #androidgames, #gameinsight"
p2
sS'Created At'
p3
S'2015-11-28 22:03:03'
p4
s.(dp0
S'Text'
p1
S"I've collected 11,641 gold coins!  https://t.co/scfqRq7red #android, #androidgames, #gameinsight"
p2
sS'Created At'
p3
S'2015-11-28 22:03:04'
p4
s.(dp0
S'Text'
p1
S"I've harvested 1,187 of food!  https://t.co/rkuVTkdgDC #android, #androidgames, #gameinsight"
p2
sS'Created At'
p3
S'2015-11-28 22:03:04'
p4
s.(dp0
S'Text'
p1
S"I've collected 281,460 gold coins!  https://t.co/gFO2qYpJLJ #android, #androidgames, #gameinsight"
p2
sS'Created At'
p3
S'2015-11-28 22:03:04'
p4
s.(dp0
S'Text'
p1
S"I've collected 6,395 gold coins!  https://t.co/pGIPeFdkgi #android, #androidgames, #gameinsight"
p2
sS'Created At'
p3
S'2015-11-28 22:03:05'
p4
s.(dp0
S'Text'
p1
S'Messenger App Review (Latest Update Review)\nhttps://t.co/zZg1dzrTzX\n#android #apps #review #facebookmessenger #MESSENGER #Facebook'
p2
sS'Created At'
p3
S'2015-11-28 22:03:05'
p4
s.(dp0
S'Text'
p1
S'RT @tracyfalbe: Read it free on your #Android tablet\nEpic #fantasy Union of Renegades\n#Googleplay https://t.co/Xomm83feOA https://t.co/uPck\xe2\x80\xa6'
p2
sS'Created At'
p3
S'2015-11-28 22:03:07'
p4
s.(dp0
S'Text'
p1
S'#Top3Apps for #DKLSATU7AN\n\nTwitter for Android 43%\nWrite Longer 20%\nMobile Web (M2) 14%'
p2
sS'Created At'
p3
S'2015-11-28 22:03:07'
p4
s.(dp0
S'Text'
p1
S'https://t.co/zs0o4dMevV aNag 5.4.0: Added comment hanlding, added back refresh btn, some fixes and reordered dialog buttons :)'
p2
sS'Created At'
p3
S'2015-11-28 22:03:07'
p4
s.(dp0
S'Text'
p1
S"I've collected 19,565 gold coins!  https://t.co/KTZiHYT2IT #android, #androidgames, #gameinsight"
p2
sS'Created At'
p3
S'2015-11-28 22:03:08'
p4
s.(dp0
S'Text'
p1
S'15 Best New Features in Android 5.1 Lollipop https://t.co/o1bfJoDOgX #AndroidLollipop #android #Android51 #Google #smartphones #AndroidOne'
p2
sS'Created At'
p3
S'2015-11-28 22:03:08'
p4
s.(dp0
S'Text'
p1
S'Unlocked White 5.7" Samsung Galaxy Note 3 4G Android GSM Smartphone 32GB DHL - Bid Now! On\xe2\x80\xa6 https://t.co/IeZyniB4eV https://t.co/LCpS9dnt7r'
p2
sS'Created At'
p3
S'2015-11-28 22:03:09'
p4
s.(dp0
S'Text'
p1
S"I'm earning #mPLUSRewards in Tap Da Cookie Android. https://t.co/j90fv2GxC9"
p2
sS'Created At'
p3
S'2015-11-28 22:03:10'
p4
s.(dp0
S'Text'
p1
S'@davelfc1984 @uk_turk @KodiCommunity @PLifesson\n1 of these 2 check channels\niPhone:\nhttps://t.co/Ig6UQktOFT\nAndroid: https://t.co/icYa79jxn3'
p2
sS'Created At'
p3
S'2015-11-28 22:03:10'
p4
s.(dp0
S'Text'
p1
S"I have completed the quest 'Mine 2 Gold Veins.' in the #Android game The Tribez.  https://t.co/x0jYJQEO5V #androidgames, #gameinsight"
p2
sS'Created At'
p3
S'2015-11-28 22:03:10'
p4
s.(dp0
S'Text'
p1
S"I have completed the quest '4 Long-Term Deal...' in the #Android game The Tribez.  https://t.co/I89Djzx0EP #androidgames, #gameinsight"
p2
sS'Created At'
p3
S'2015-11-28 22:03:12'
p4
s.(dp0
S'Text'
p1
S"I'm earning #mPLUSRewards in Roll Da Dice Android. https://t.co/SHAePdSRCV"
p2
sS'Created At'
p3
S'2015-11-28 22:03:13'
p4
s.(dp0
S'Text'
p1
S"I've collected 348 gold coins!  https://t.co/c8lPJikscl #android, #androidgames, #gameinsight"
p2
sS'Created At'
p3
S'2015-11-28 22:03:13'
p4
s.(dp0
S'Text'
p1
S"I've harvested 120 of food!  https://t.co/c8lPJikscl #android, #androidgames, #gameinsight"
p2
sS'Created At'
p3
S'2015-11-28 22:03:13'
p4
s.(dp0
S'Text'
p1
S'Your android smartphone december prevail leaking individual the data: ALIj'
p2
sS'Created At'
p3
S'2015-11-28 22:03:13'
p4
s.(dp0
S'Text'
p1
S"I have completed the quest 'Building Houses.' in the #Android game The Tribez.  https://t.co/eInmvES26f #androidgames, #gameinsight"
p2
sS'Created At'
p3
S'2015-11-28 22:03:13'
p4
s.(dp0
S'Text'
p1
S'I have Boy Wizard Collection now, and what about you? https://t.co/OMQuxVBelL #android,#androidgames,#gameinsight'
p2
sS'Created At'
p3
S'2015-11-28 22:03:15'
p4
s.(dp0
S'Text'
p1
S"The Kingdom's citizens are happy to have Bakery! Try to build it too! https://t.co/bsxk2yZiRB #android,#androidgames,#gameinsight"
p2
sS'Created At'
p3
S'2015-11-28 22:03:15'
p4
s.(dp0
S'Text'
p1
S'RT @icasnetwork2015: https://t.co/Ax1VqJuDEr Android M Coming soon - ICas @icasnetwork2015'
p2
sS'Created At'
p3
S'2015-11-28 22:03:15'
p4
s.(dp0
S'Text'
p1
S'I just received a reward: Talkative https://t.co/8PhpzqU90q #Androidgames #Gameinsight #Android'
p2
sS'Created At'
p3
S'2015-11-28 22:03:15'
p4
s.(dp0
S'Text'
p1
S"I've harvested 500 of food!  https://t.co/VBZnHdCBEc #android, #androidgames, #gameinsight"
p2
sS'Created At'
p3
S'2015-11-28 22:03:16'
p4
s.(dp0
S'Text'
p1
S"I've collected 1,039 gold coins!  https://t.co/VBZnHdCBEc #android, #androidgames, #gameinsight"
p2
sS'Created At'
p3
S'2015-11-28 22:03:16'
p4
s.(dp0
S'Text'
p1
S'I have Ancient Bar on my island! Now my island is even more awesome!  https://t.co/0kIu6ZMIHI #android, #androidgames, #gameinsight'
p2
sS'Created At'
p3
S'2015-11-28 22:03:16'
p4
s.(dp0
S'Text'
p1
S"I've collected 29,112 gold coins!  https://t.co/7PMMBCeWQJ #android, #androidgames, #gameinsight"
p2
sS'Created At'
p3
S'2015-11-28 22:03:17'
p4
s.(dp0
S'Text'
p1
S'Brand New Nvidia Shield 8" Gaming Tablet 16GB Android 4.4 KitKat Tegra K1 2.2GHz - Bid Now\xe2\x80\xa6 https://t.co/b6neaT30iy https://t.co/1inZO8EuWU'
p2
sS'Created At'
p3
S'2015-11-28 22:03:17'
p4
s.(dp0
S'Text'
p1
S'iRULU 7" BabyPad Xmas Gift 8GB Dual Cam Kids Android Tablet for Children Yellow - Bid Now!\xe2\x80\xa6 https://t.co/y53Rjn95x2 https://t.co/mp1CrH1aa5'
p2
sS'Created At'
p3
S'2015-11-28 22:03:17'
p4
s.(dp0
S'Text'
p1
S'@otorhinosaurus @unitedmd Kodi is the best! Been watching films on it continuously since I discovered the Android app.'
p2
sS'Created At'
p3
S'2015-11-28 22:03:18'
p4
s.(dp0
S'Text'
p1
S'City Racing 3D v2.3.069 Apk + Mod (a lot of money) for Android - https://t.co/xHlwTbmKpb https://t.co/ROg82b7DZk'
p2
sS'Created At'
p3
S'2015-11-28 22:03:18'
p4
s.(dp0
S'Text'
p1
S'@Hootsuite_Help Why does the app (Android, 3.4.2.0) lose its place in the timeline while refreshing since the last update? :-('
p2
sS'Created At'
p3
S'2015-11-28 22:03:18'
p4
s.(dp0
S'Text'
p1
S"I've harvested 1,990 of food!  https://t.co/4KBau1sYIv #android, #androidgames, #gameinsight"
p2
sS'Created At'
p3
S'2015-11-28 22:03:18'
p4
s.(dp0
S'Text'
p1
S'10.1" Inch Dual Core Camera Android 4.4.2 Capacitive Screen Tablet PC WiFi 8GB  - Bid Now!\xe2\x80\xa6 https://t.co/fQ0HVUDHbL https://t.co/c9ScJF1T54'
p2
sS'Created At'
p3
S'2015-11-28 22:03:18'
p4
s.(dp0
S'Text'
p1
S"I've harvested 810 of food!  https://t.co/jcytWbgbMR #android, #androidgames, #gameinsight"
p2
sS'Created At'
p3
S'2015-11-28 22:03:19'
p4
s.(dp0
S'Text'
p1
S'I have gained level 6 in The Tribez and Castlez! Can you achieve it as well? https://t.co/0ZlH0ooA6P #android,#androidgames,#gameinsight'
p2
sS'Created At'
p3
S'2015-11-28 22:03:19'
p4
s.(dp0
S'Text'
p1
S'RT @engadget: Instagram tests multiple account support on Android: The Instagram team appears\xe2\x80\xa6 https://t.co/3LRhXH7tBj #gadget #philippines'
p2
sS'Created At'
p3
S'2015-11-28 22:03:19'
p4
s.(dp0
S'Text'
p1
S'Samsung Galaxy Tab 3 Android 8 Inch White Sm-t310 16GB Memory Wi-Fi - Bid Now! Only $82.0 https://t.co/IPPaImDHPI https://t.co/NuywvRSDq5'
p2
sS'Created At'
p3
S'2015-11-28 22:03:19'
p4
s.(dp0
S'Text'
p1
S"I've collected 22,295 gold coins!  https://t.co/Z3IChEfIo7 #android, #androidgames, #gameinsight"
p2
sS'Created At'
p3
S'2015-11-28 22:03:19'
p4
s.(dp0
S'Text'
p1
S"I've harvested 401 of food!  https://t.co/Z3IChEfIo7 #android, #androidgames, #gameinsight"
p2
sS'Created At'
p3
S'2015-11-28 22:03:19'
p4
s.(dp0
S'Text'
p1
S'I have gained level 7 in The Tribez and Castlez! Can you achieve it as well? https://t.co/bsxk2yZiRB #android,#androidgames,#gameinsight'
p2
sS'Created At'
p3
S'2015-11-28 22:03:20'
p4
s.(dp0
S'Text'
p1
S'Screen Memo Capture the Android application that can capture and savey our favorite webpages. https://t.co/B91puvszC5\xd8\xa7\xd9\x84\xd8\xa7\xd8\xa9\xd8\xa9\xd9\x88\xd9\x88\xd9\x88YiR'
p2
sS'Created At'
p3
S'2015-11-28 22:03:20'
p4
s.(dp0
S'Text'
p1
S'Motorola Xoom 32GB Wi-Fi 10.1" Android tablet HDMI MZ604 *official case bundled* - Bid Now\xe2\x80\xa6 https://t.co/0fbU2qZh4H https://t.co/qvy2PZcNt4'
p2
sS'Created At'
p3
S'2015-11-28 22:03:20'
p4
s.(dp0
S'Text'
p1
S'I have Dragos Knight Collection now, and what about you? https://t.co/hrXLhhhEMf #android,#androidgames,#gameinsight'
p2
sS'Created At'
p3
S'2015-11-28 22:03:20'
p4
s.(dp0
S'Text'
p1
S"I've harvested 1,798 of food!  https://t.co/FV4p5bxqUF #android, #androidgames, #gameinsight"
p2
sS'Created At'
p3
S'2015-11-28 22:03:20'
p4
s.(dp0
S'Text'
p1
S'Sim fed battery tenaciousness since android mobiles headed for service rebuilt operator experiences: QCipXd'
p2
sS'Created At'
p3
S'2015-11-28 22:03:21'
p4
s.(dp0
S'Text'
p1
S"I've collected 19,340 gold coins!  https://t.co/FV4p5bxqUF #android, #androidgames, #gameinsight"
p2
sS'Created At'
p3
S'2015-11-28 22:03:21'
p4
s.(dp0
S'Text'
p1
S"I've collected 14,030 gold coins!  https://t.co/HzPIPVwCNE #android, #androidgames, #gameinsight"
p2
sS'Created At'
p3
S'2015-11-28 22:03:21'
p4
s.(dp0
S'Text'
p1
S"I've harvested 1,105 of food!  https://t.co/h1vRyrAUEZ #android, #androidgames, #gameinsight"
p2
sS'Created At'
p3
S'2015-11-28 22:03:21'
p4
s.(dp0
S'Text'
p1
S"I've finished the Send 5 invitations quest! Are you able to fulfil the same task? https://t.co/L7grUkzw68 #android,#androidgames,#game..."
p2
sS'Created At'
p3
S'2015-11-28 22:03:21'
p4
s.(dp0
S'Text'
p1
S"RT @Dory: Why do android snapchats look like they're from the 1800's https://t.co/2XWU9JpTi5"
p2
sS'Created At'
p3
S'2015-11-28 22:03:21'
p4
s.(dp0
S'Text'
p1
S"I've harvested 40 of food!  https://t.co/8jdy0nXCrv #android, #androidgames, #gameinsight"
p2
sS'Created At'
p3
S'2015-11-28 22:03:21'
p4
s.(dp0
S'Text'
p1
S"I've collected 4,242 gold coins!  https://t.co/8jdy0nXCrv #android, #androidgames, #gameinsight"
p2
sS'Created At'
p3
S'2015-11-28 22:03:21'
p4
s.(dp0
S'Text'
p1
S'RT @googletricks19: 5 Essential Tips and Tricks for Google Maps 2015 https://t.co/IP3GrLd0YQ #Google #GoogleMaps #android #AndroidLollipop \xe2\x80\xa6'
p2
sS'Created At'
p3
S'2015-11-28 22:03:22'
p4
s.(dp0
S'Text'
p1
S'CAIRN STONES is conquered. Order campaign is 25% complete. #Android #AndroidGames #GameInsight https://t.co/XJXKb5nPmE'
p2
sS'Created At'
p3
S'2015-11-28 22:03:22'
p4
s.(dp0
S'Text'
p1
S'Well that escalated quickly https://t.co/5f0qru3lIq'
p2
sS'Created At'
p3
S'2015-11-28 22:03:22'
p4
s.(dp0
S'Text'
p1
S'Are you on android @Jilleysue @tweets_amanda'
p2
sS'Created At'
p3
S'2015-11-28 22:03:22'
p4
s.(dp0
S'Text'
p1
S'RT @engrossingfacts: Google Maps calculates traffic by tracking how fast Android devices are moving on the road.'
p2
sS'Created At'
p3
S'2015-11-28 22:03:23'
p4
s.(dp0
S'Text'
p1
S"I have Rainbow, and it's much easier to play now! https://t.co/uzY0OAlUBe #Android #AndroidGames #GameInsight"
p2
sS'Created At'
p3
S'2015-11-28 22:03:23'
p4
s.(dp0
S'Text'
p1
S"I've collected 10,570 gold coins!  https://t.co/KNuFSQbQGi #android, #androidgames, #gameinsight"
p2
sS'Created At'
p3
S'2015-11-28 22:03:23'
p4
s.(dp0
S'Text'
p1
S'@SwiftKey I would use your app on iPhone if I could use some of the themes #Android users have available.'
p2
sS'Created At'
p3
S'2015-11-28 22:03:23'
p4
s.(dp0
S'Text'
p1
S"I've harvested 150 of food!  https://t.co/RoQRmvm9dS #android, #androidgames, #gameinsight"
p2
sS'Created At'
p3
S'2015-11-28 22:03:23'
p4
s.(dp0
S'Text'
p1
S'I have Nice Hut on my island! Now my island is even more awesome!  https://t.co/e3KP4LnZFQ #android, #androidgames, #gameinsight'
p2
sS'Created At'
p3
S'2015-11-28 22:03:24'
p4
s.(dp0
S'Text'
p1
S"The Kingdom's citizens are happy to have Bakery! Try to build it too! https://t.co/Nj7Ia372E0 #android,#androidgames,#gameinsight"
p2
sS'Created At'
p3
S'2015-11-28 22:03:24'
p4
s.(dp0
S'Text'
p1
S"I've collected 382 gold coins!  https://t.co/e3KP4LnZFQ #android, #androidgames, #gameinsight"
p2
sS'Created At'
p3
S'2015-11-28 22:03:24'
p4
s.(dp0
S'Text'
p1
S"I'm earning #mPLUSRewards in Tap Da Cookie Android. https://t.co/GCASC3CheD"
p2
sS'Created At'
p3
S'2015-11-28 22:03:25'
p4
s.(dp0
S'Text'
p1
S"I've harvested 455 of food!  https://t.co/e3KP4LnZFQ #android, #androidgames, #gameinsight"
p2
sS'Created At'
p3
S'2015-11-28 22:03:25'
p4
s.(dp0
S'Text'
p1
S"I've harvested 20 of food!  https://t.co/sZhMSHT5Ra #android, #androidgames, #gameinsight"
p2
sS'Created At'
p3
S'2015-11-28 22:03:25'
p4
s.(dp0
S'Text'
p1
S"Hey! Would you mind checking out my good friend @AnonymesMalik 's fanfic https://t.co/v5SY2CIw8p \xe2\x9d\xa4\xef\xb8\x8f"
p2
sS'Created At'
p3
S'2015-11-28 22:03:26'
p4
s.(dp0
S'Text'
p1
S'it\'s not Windows Phone vs Android/iOS; it\'s Windows Phone vs iSheep "tech" news websites #embunpenyejuk'
p2
sS'Created At'
p3
S'2015-11-28 22:03:26'
p4
s.(dp0
S'Text'
p1
S"Now Playing MENACE, LIL BRODY's Dhg Presents Vol.1 via @DatPiff's Android App https://t.co/plvjfIxqvH https://t.co/wjs6SyaBeI"
p2
sS'Created At'
p3
S'2015-11-28 22:03:26'
p4
s.(dp0
S'Text'
p1
S"I've collected 18,779 gold coins!  https://t.co/QLYgtH44qY #android, #androidgames, #gameinsight"
p2
sS'Created At'
p3
S'2015-11-28 22:03:27'
p4
s.(dp0
S'Text'
p1
S"I've harvested 2,008 of food!  https://t.co/8Y9KnAErLa #android, #androidgames, #gameinsight"
p2
sS'Created At'
p3
S'2015-11-28 22:03:27'
p4
s.(dp0
S'Text'
p1
S'RT @khoas401: Android https://t.co/Ibr29Yi8s5'
p2
sS'Created At'
p3
S'2015-11-28 22:03:27'
p4
s.(dp0
S'Text'
p1
S"I've collected 33,955 gold coins!  https://t.co/8Y9KnAErLa #android, #androidgames, #gameinsight"
p2
sS'Created At'
p3
S'2015-11-28 22:03:27'
p4
s.(dp0
S'Text'
p1
S"I've collected 5,810 gold coins!  https://t.co/c8lPJikscl #android, #androidgames, #gameinsight"
p2
sS'Created At'
p3
S'2015-11-28 22:03:28'
p4
s.(dp0
S'Text'
p1
S'RT @UNFCCC: Download now for free: #COP21 negotiator app for Android https://t.co/UHqntqDbJ2 and iPhone https://t.co/0iODxYkbfv https://t.c\xe2\x80\xa6'
p2
sS'Created At'
p3
S'2015-11-28 22:03:29'
p4
s.(dp0
S'Text'
p1
S"I've finished the Knight Set quest! Are you able to fulfil the same task? https://t.co/hrXLhhhEMf #android,#androidgames,#gameinsight"
p2
sS'Created At'
p3
S'2015-11-28 22:03:29'
p4
s.(dp0
S'Text'
p1
S'Omg it feels so diff tweeting via android now'
p2
sS'Created At'
p3
S'2015-11-28 22:03:29'
p4
s.(dp0
S'Text'
p1
S'ProntoTec A8 7 Inch Capacitive Touch Screen Tablet PC,Dual Core 1.3 GHz, Android 4.2, 4GB, Dual Cam\xe2\x80\xa6 https://t.co/gZbav0FC7N'
p2
sS'Created At'
p3
S'2015-11-28 22:03:30'
p4
s.(dp0
S'Text'
p1
S"I've collected 3,623 gold coins!  https://t.co/04RqRkjgrY #android, #androidgames, #gameinsight"
p2
sS'Created At'
p3
S'2015-11-28 22:03:30'
p4
s.(dp0
S'Text'
p1
S"I've harvested 898 of food!  https://t.co/04RqRkjgrY #android, #androidgames, #gameinsight"
p2
sS'Created At'
p3
S'2015-11-28 22:03:30'
p4
s.(dp0
S'Text'
p1
S"I've collected 4,923 gold coins!  https://t.co/sZhMSHT5Ra #android, #androidgames, #gameinsight"
p2
sS'Created At'
p3
S'2015-11-28 22:03:30'
p4
s.(dp0
S'Text'
p1
S"I've finished the Giant Tree quest! Are you able to fulfil the same task? https://t.co/AOcudnTBXk #android,#androidgames,#gameinsight"
p2
sS'Created At'
p3
S'2015-11-28 22:03:30'
p4
s.(dp0
S'Text'
p1
S"I've finished the Old Junk quest! Are you able to fulfil the same task? https://t.co/AOcudnTBXk #android,#androidgames,#gameinsight"
p2
sS'Created At'
p3
S'2015-11-28 22:03:32'
p4
s.(dp0
S'Text'
p1
S'I upgraded my Bakery and can now order: Cherry Pie! https://t.co/Nj7Ia3oE2A #android,#androidgames,#gameinsight'
p2
sS'Created At'
p3
S'2015-11-28 22:03:32'
p4
s.(dp0
S'Text'
p1
S"I'm earning #mPLUSRewards in Office Zombie - Android. https://t.co/pR848qNoRe"
p2
sS'Created At'
p3
S'2015-11-28 22:03:32'
p4
s.(dp0
S'Text'
p1
S"Marathon's World android app is now available at https://t.co/xQd0FUN7n1 repository. https://t.co/b4hnOhL5yp"
p2
sS'Created At'
p3
S'2015-11-28 22:03:33'
p4
s.(dp0
S'Text'
p1
S'I have Sorceress Collection now, and what about you? https://t.co/1Vf0jo4tF4 #android,#androidgames,#gameinsight'
p2
sS'Created At'
p3
S'2015-11-28 22:03:33'
p4
s.(dp0
S'Text'
p1
S'#10BillionWives \nI married1,938,118,854,372Wives!\n\niOS: https://t.co/SSVC92a2vF\nAndroid: https://t.co/PAautee2hx https://t.co/Mcs2ZeL3CX'
p2
sS'Created At'
p3
S'2015-11-28 22:03:33'
p4
s.(dp0
S'Text'
p1
S'RT @aNag_android: https://t.co/zs0o4dMevV aNag 5.4.0: Added comment hanlding, added back refresh btn, some fixes and reordered dialog butto\xe2\x80\xa6'
p2
sS'Created At'
p3
S'2015-11-28 22:03:33'
p4
s.(dp0
S'Text'
p1
S"I have completed the quest 'Build 2 Nice Huts' in the #Android game The Tribez.  https://t.co/e3KP4LnZFQ #androidgames, #gameinsight"
p2
sS'Created At'
p3
S'2015-11-28 22:03:34'
p4
s.(dp0
S'Text'
p1
S"I've collected 22,430 gold coins!  https://t.co/rkuVTkdgDC #android, #androidgames, #gameinsight"
p2
sS'Created At'
p3
S'2015-11-28 22:03:34'
p4
s.(dp0
S'Text'
p1
S"I've collected 76,417 gold coins!  https://t.co/Xahh8RKZ6U #android, #androidgames, #gameinsight"
p2
sS'Created At'
p3
S'2015-11-28 22:03:34'
p4
s.(dp0
S'Text'
p1
S'@SB1878EFC @janemcellin android lol'
p2
sS'Created At'
p3
S'2015-11-28 22:03:35'
p4
s.(dp0
S'Text'
p1
S"I've harvested 1,152 of food!  https://t.co/6WJHl9x6jv #android, #androidgames, #gameinsight"
p2
sS'Created At'
p3
S'2015-11-28 22:03:35'
p4
s.(dp0
S'Text'
p1
S"I've collected 21,934 gold coins!  https://t.co/6WJHl9x6jv #android, #androidgames, #gameinsight"
p2
sS'Created At'
p3
S'2015-11-28 22:03:35'
p4
s.(dp0
S'Text'
p1
S'I have successfully completed the Sy... quest in The Tribez &amp; Castlez for #Android. https://t.co/1Vf0jo4tF4 #androidgames, #gameinsight'
p2
sS'Created At'
p3
S'2015-11-28 22:03:35'
p4
s.(dp0
S'Text'
p1
S"I've reached 3 level of Influence! Can you get more? https://t.co/kFNSLe5pOA #android,#androidgames,#gameinsight"
p2
sS'Created At'
p3
S'2015-11-28 22:03:36'
p4
s.(dp0
S'Text'
p1
S'RT @LabCave: Burger Clicker with more surprises on both iOS&amp;Android! https://t.co/TT84aC7oRP #gamedev #indiegamedev #screenshotsaturday #ga\xe2\x80\xa6'
p2
sS'Created At'
p3
S'2015-11-28 22:03:36'
p4
s.(dp0
S'Text'
p1
S'I just received a reward: Modest Fare https://t.co/wge96ZlfL8 #Gameinsight #Android #Androidgames'
p2
sS'Created At'
p3
S'2015-11-28 22:03:36'
p4
s.(dp0
S'Text'
p1
S"I've collected 1,624 gold coins!  https://t.co/1vksOzm4QH #android, #androidgames, #gameinsight"
p2
sS'Created At'
p3
S'2015-11-28 22:03:36'
p4
s.(dp0
S'Text'
p1
S'I have Dawn Knight\xe2\x80\x99s Collection now, and what about you? https://t.co/bsxk2yZiRB #android,#androidgames,#gameinsight'
p2
sS'Created At'
p3
S'2015-11-28 22:03:36'
p4
s.(dp0
S'Text'
p1
S'I have Hut on my island! Now my island is even more awesome!  https://t.co/Qsd4kltMxG #android, #androidgames, #gameinsight'
p2
sS'Created At'
p3
S'2015-11-28 22:03:37'
p4
s.(dp0
S'Text'
p1
S"I've collected 86,657 gold coins!  https://t.co/k2d30pv4Gx #android, #androidgames, #gameinsight"
p2
sS'Created At'
p3
S'2015-11-28 22:03:38'
p4
s.(dp0
S'Text'
p1
S"I've harvested 1,014 of food!  https://t.co/n7huoBcDZV #android, #androidgames, #gameinsight"
p2
sS'Created At'
p3
S'2015-11-28 22:03:38'
p4
s.(dp0
S'Text'
p1
S"I've collected 434 gold coins!  https://t.co/Qsd4kltMxG #android, #androidgames, #gameinsight"
p2
sS'Created At'
p3
S'2015-11-28 22:03:38'
p4
s.(dp0
S'Text'
p1
S"I've harvested 500 of food!  https://t.co/4Uq1WQHAAp #android, #androidgames, #gameinsight"
p2
sS'Created At'
p3
S'2015-11-28 22:03:38'
p4
s.(dp0
S'Text'
p1
S"I've finished the The Spirit of Courage quest! Are you able to fulfil the same task? https://t.co/bsxk2yZiRB #android,#androidgames,#g..."
p2
sS'Created At'
p3
S'2015-11-28 22:03:38'
p4
s.(dp0
S'Text'
p1
S'I got a reward: Rescue Squad Commander in BigBusiness Deluxe for Android https://t.co/8TwLPQIsFh #Androidgames #Android #Gameinsight'
p2
sS'Created At'
p3
S'2015-11-28 22:03:39'
p4
s.(dp0
S'Text'
p1
S"I have completed the quest 'Build 2 Huts.' in the #Android game The Tribez.  https://t.co/Qsd4kltMxG #androidgames, #gameinsight"
p2
sS'Created At'
p3
S'2015-11-28 22:03:39'
p4
s.(dp0
S'Text'
p1
S'#iphone #apple Deals https://t.co/jbePn4vudU #7014 #2069 DZ09 Bluetooth Wrist Smart Watch GSM For Android Samsung.\xe2\x80\xa6 https://t.co/OWYVqRIr44'
p2
sS'Created At'
p3
S'2015-11-28 22:03:39'
p4
s.(dp0
S'Text'
p1
S'#iphone #apple Deals https://t.co/e5vbXGqzX6 #2230 USB flash Memory Storge U-Stick pendrive32GB For Android iOS Ip\xe2\x80\xa6 https://t.co/6x7ckChw17'
p2
sS'Created At'
p3
S'2015-11-28 22:03:40'
p4
s.(dp0
S'Text'
p1
S"I've unlocked a new area of my Island! https://t.co/tpNgXn1p3w #Androidgames #Android #Gameinsight"
p2
sS'Created At'
p3
S'2015-11-28 22:03:40'
p4
s.(dp0
S'Text'
p1
S"I've collected 13,810 gold coins!  https://t.co/QLYgtH44qY #android, #androidgames, #gameinsight"
p2
sS'Created At'
p3
S'2015-11-28 22:03:41'
p4
s.(dp0
S'Text'
p1
S'Best4U : https://t.co/4zvOo0Ki9Y #iPhone #iPad #iOS #android #phone'
p2
sS'Created At'
p3
S'2015-11-28 22:03:41'
p4
s.(dp0
S'Text'
p1
S'I have Powder Charge now, and what about you? https://t.co/OMQuxVBelL #android,#androidgames,#gameinsight'
p2
sS'Created At'
p3
S'2015-11-28 22:03:41'
p4
s.(dp0
S'Text'
p1
S'I have Ancient Bar on my island! Now my island is even more awesome!  https://t.co/KzSoZn3e7l #android, #androidgames, #gameinsight'
p2
sS'Created At'
p3
S'2015-11-28 22:03:41'
p4
s.(dp0
S'Text'
p1
S"I've collected 913 gold coins!  https://t.co/8niQUOZ0nz #android, #androidgames, #gameinsight"
p2
sS'Created At'
p3
S'2015-11-28 22:03:42'
p4
s.(dp0
S'Text'
p1
S"I've collected 12,430 gold coins!  https://t.co/KNuFSQbQGi #android, #androidgames, #gameinsight"
p2
sS'Created At'
p3
S'2015-11-28 22:03:42'
p4
s.(dp0
S'Text'
p1
S'How to Root Xiaomi Redmi 1S without PC https://t.co/Ymb4O6kDnc #root #Xiaomi #redmi1S #androidroot #android #RedmiNote4G'
p2
sS'Created At'
p3
S'2015-11-28 22:03:42'
p4
s.(dp0
S'Text'
p1
S'RT @GameDanTeam: Chuck The Whale #freegame !!!!\nhttps://t.co/ePi9Han62K\n#pc #android #iOS #retrogames #indiedev #gamedev #gamersunite https\xe2\x80\xa6'
p2
sS'Created At'
p3
S'2015-11-28 22:03:43'
p4
s.(dp0
S'Text'
p1
S"I've completed Puzzles of the Past collection!\nhttps://t.co/xzxysmtk5x #android #androidgames #gameinsight"
p2
sS'Created At'
p3
S'2015-11-28 22:03:43'
p4
s.(dp0
S'Text'
p1
S"Cam's 9to5Google Gift Guide: The best Chrome Android-powered ... https://t.co/hBpHEuGuNo"
p2
sS'Created At'
p3
S'2015-11-28 22:03:44'
p4
s.(dp0
S'Text'
p1
S'RT @blockadillo: Time to smash some blocks! \nhttps://t.co/rldS0HGn79\n#android #free #screenshotsaturday #gamedev https://t.co/E6q4hbLOLZ'
p2
sS'Created At'
p3
S'2015-11-28 22:03:44'
p4
s.(dp0
S'Text'
p1
S"I've collected 45,000 gold coins!  https://t.co/vqvYP8XjYw #android, #androidgames, #gameinsight"
p2
sS'Created At'
p3
S'2015-11-28 22:03:44'
p4
s.(dp0
S'Text'
p1
S"I've collected 76,900 gold coins!  https://t.co/Stzo2MOgHV #android, #androidgames, #gameinsight"
p2
sS'Created At'
p3
S'2015-11-28 22:03:44'
p4
s.(dp0
S'Text'
p1
S"I've harvested 1,098 of food!  https://t.co/TPKFAOXqC4 #android, #androidgames, #gameinsight"
p2
sS'Created At'
p3
S'2015-11-28 22:03:44'
p4
s.(dp0
S'Text'
p1
S'Claim your FREE "Unlocked Pink  5.7" Samsung Galaxy Note 3 4G Android GSM Smartphone 32GB A55 DHL" here \xe2\x80\xa6 https://t.co/tYpMwEAVir'
p2
sS'Created At'
p3
S'2015-11-28 22:03:44'
p4
s.(dp0
S'Text'
p1
S'Play #Android #Apps on PC/MAC/TV using #BlueStacks. Play Bigger! https://t.co/M7oJ40hdN8'
p2
sS'Created At'
p3
S'2015-11-28 22:03:44'
p4
s.(dp0
S'Text'
p1
S'#VerizoneWireless #Deal Get Any #Android Phone $400 + Up And Get $400 Back {https://t.co/VwSvbV3iqh}  #Smartphones https://t.co/mqXuKXypFn'
p2
sS'Created At'
p3
S'2015-11-28 22:03:44'
p4
s.(dp0
S'Text'
p1
S"I've harvested 382 of food!  https://t.co/eNYDdl0KUt #android, #androidgames, #gameinsight"
p2
sS'Created At'
p3
S'2015-11-28 22:03:45'
p4
s.(dp0
S'Text'
p1
S"I've collected 6,795 gold coins!  https://t.co/eNYDdl0KUt #android, #androidgames, #gameinsight"
p2
sS'Created At'
p3
S'2015-11-28 22:03:45'
p4
s.(dp0
S'Text'
p1
S"I've collected 10,037 gold coins!  https://t.co/Stzo2MOgHV #android, #androidgames, #gameinsight"
p2
sS'Created At'
p3
S'2015-11-28 22:03:45'
p4
s.(dp0
S'Text'
p1
S'I have reached level 5 in The Tribez! Join in and try to overtake me!  https://t.co/Qsd4kltMxG #android, #androidgames, #gameinsight'
p2
sS'Created At'
p3
S'2015-11-28 22:03:45'
p4
s.(dp0
S'Text'
p1
S"I've finished the Send 4 invitations quest! Are you able to fulfil the same task? https://t.co/orEJw2OD3o #android,#androidgames,#game..."
p2
sS'Created At'
p3
S'2015-11-28 22:03:45'
p4
s.(dp0
S'Text'
p1
S'I have Ancient Bar on my island! Now my island is even more awesome!  https://t.co/wSqgxLPwDy #android, #androidgames, #gameinsight'
p2
sS'Created At'
p3
S'2015-11-28 22:03:45'
p4
s.(dp0
S'Text'
p1
S'Alvarez takes middleweight title over Co https://t.co/yB2T94aTy7 #uncategorized #Trending #News #Startups #HowTo #DIY #Android #HowTo #Apps'
p2
sS'Created At'
p3
S'2015-11-28 22:03:45'
p4
s.(dp0
S'Text'
p1
S"I've finished the Send 3 invitations quest! Are you able to fulfil the same task? https://t.co/orEJw2OD3o #android,#androidgames,#game..."
p2
sS'Created At'
p3
S'2015-11-28 22:03:46'
p4
s.(dp0
S'Text'
p1
S"@fplchips never owned an iPhone, Android lover here. But Samsung just doesn't get me excited, despite all the amazing reviews."
p2
sS'Created At'
p3
S'2015-11-28 22:03:46'
p4
s.(dp0
S'Text'
p1
S"I've harvested 1,058 of food!  https://t.co/Stzo2MOgHV #android, #androidgames, #gameinsight"
p2
sS'Created At'
p3
S'2015-11-28 22:03:46'
p4
s.(dp0
S'Text'
p1
S"bnnnnnnnnnnnnnnWassup people, I'm live on #twitcasting from my Android. https://t.co/8wW8763rpf"
p2
sS'Created At'
p3
S'2015-11-28 22:03:46'
p4
s.(dp0
S'Text'
p1
S"I've finished the Send 6 invitations quest! Are you able to fulfil the same task? https://t.co/L7grUkzw68 #android,#androidgames,#game..."
p2
sS'Created At'
p3
S'2015-11-28 22:03:46'
p4
s.(dp0
S'Text'
p1
S"I've earned a new achievement: `Chief`. Try to beat me in the #Android game The Tribez! https://t.co/Qsd4kltMxG #androidgames, #gameinsight"
p2
sS'Created At'
p3
S'2015-11-28 22:03:46'
p4
s.(dp0
S'Text'
p1
S'Download #Moviebox for PC\nhttps://t.co/sgO3nlWU1T \n#Android\n#androidapps #apps2015 #entertainment\n#hollywoodmovies\n#Movieboxapp'
p2
sS'Created At'
p3
S'2015-11-28 22:03:46'
p4
s.(dp0
S'Text'
p1
S'Unlocked White 5.7" Samsung Galaxy Note 3 4G Android GSM Smartphone 32GB DHL - Bid Now! On\xe2\x80\xa6 https://t.co/iy9zZdf5mF https://t.co/egCc3RHM6X'
p2
sS'Created At'
p3
S'2015-11-28 22:03:46'
p4
s.(dp0
S'Text'
p1
S'RAR 5.30.build38 #Msi8Store #android #app available at https://t.co/zlgTeoo1fP  repository. https://t.co/3G4urbnGCW'
p2
sS'Created At'
p3
S'2015-11-28 22:03:47'
p4
s.(dp0
S'Text'
p1
S"I've harvested 282 of food!  https://t.co/anFOv7wI3v #android, #androidgames, #gameinsight"
p2
sS'Created At'
p3
S'2015-11-28 22:03:47'
p4
s.(dp0
S'Text'
p1
S'@matejp23 nexus is the only way to do Android'
p2
sS'Created At'
p3
S'2015-11-28 22:03:47'
p4
s.(dp0
S'Text'
p1
S'I\'ve just finished "Meeting the Guardian"! I\'d love for you to come and get a gift from me! https://t.co/MKIF3AAZUk #android  #gameinsight'
p2
sS'Created At'
p3
S'2015-11-28 22:03:47'
p4
s.(dp0
S'Text'
p1
S'i hate android phones cant wait to switch back to iphone'
p2
sS'Created At'
p3
S'2015-11-28 22:03:47'
p4
s.(dp0
S'Text'
p1
S"I'm earning #mPLUSRewards in Tap Da Cookie Android. https://t.co/JZ1oGXO3Zh"
p2
sS'Created At'
p3
S'2015-11-28 22:03:47'
p4
s.(dp0
S'Text'
p1
S'A 2005 Nissan Xterra was just scanned near Elizabeth, PA 15037 https://t.co/Pa268hmek6 #android #apple #kbb'
p2
sS'Created At'
p3
S'2015-11-28 22:03:48'
p4
s.(dp0
S'Text'
p1
S'RT @icasnetwork2015: https://t.co/Ax1VqJuDEr Android M Coming soon - ICas @icasnetwork2015'
p2
sS'Created At'
p3
S'2015-11-28 22:03:48'
p4
s.(dp0
S'Text'
p1
S"I've finished the A Home for a Knight quest! Are you able to fulfil the same task? https://t.co/orEJw2x1EO #android,#androidgames,#gam..."
p2
sS'Created At'
p3
S'2015-11-28 22:03:48'
p4
s.(dp0
S'Text'
p1
S"I've collected 3,179 gold coins!  https://t.co/vi8Zs5aXU5 #android, #androidgames, #gameinsight"
p2
sS'Created At'
p3
S'2015-11-28 22:03:48'
p4
s.(dp0
S'Text'
p1
S"I've harvested 820 of food!  https://t.co/vi8Zs5aXU5 #android, #androidgames, #gameinsight"
p2
sS'Created At'
p3
S'2015-11-28 22:03:48'
p4
s.(dp0
S'Text'
p1
S'Candy Blaster - Android Apps on Google Play https://t.co/8QXkz7neLn'
p2
sS'Created At'
p3
S'2015-11-28 22:03:48'
p4
s.(dp0
S'Text'
p1
S"I've harvested 1,187 of food!  https://t.co/Stzo2MOgHV #android, #androidgames, #gameinsight"
p2
sS'Created At'
p3
S'2015-11-28 22:03:49'
p4
s.(dp0
S'Text'
p1
S"This Theory Will Totally Change How You See 'Elf' https://t.co/olXeuU64jt #gameinsight, #android, #androidgames, #ipad, #ipadgames, #openf\xe2\x80\xa6"
p2
sS'Created At'
p3
S'2015-11-28 22:03:49'
p4
s.(dp0
S'Text'
p1
S"I've harvested 1,300 of food!  https://t.co/UrNYTtLH7x #android, #androidgames, #gameinsight"
p2
sS'Created At'
p3
S'2015-11-28 22:03:49'
p4
s.(dp0
S'Text'
p1
S'RT tracyfalbe: Read it free on your #Android tablet\nEpic #fantasy Union of Renegades\n#Googleplay \xe2\x80\xa6 https://t.co/MaHBEZSeAi'
p2
sS'Created At'
p3
S'2015-11-28 22:03:50'
p4
s.(dp0
S'Text'
p1
S'Music 9.1.3.A.1.0beta #Msi8Store #android #app available at https://t.co/zlgTeoo1fP  repository. https://t.co/W3BXgMVz6V'
p2
sS'Created At'
p3
S'2015-11-28 22:03:50'
p4
s.(dp0
S'Text'
p1
S'15 Best New Features in Android 5.1 Lollipop https://t.co/DKQlC9NaUR #AndroidLollipop #android #Android51 #Google #smartphones #AndroidOne'
p2
sS'Created At'
p3
S'2015-11-28 22:03:50'
p4
s.(dp0
S'Text'
p1
S"I've harvested 30 of food!  https://t.co/oEITS77Gf0 #android, #androidgames, #gameinsight"
p2
sS'Created At'
p3
S'2015-11-28 22:03:50'
p4
s.(dp0
S'Text'
p1
S"I've collected 6,938 gold coins!  https://t.co/oEITS77Gf0 #android, #androidgames, #gameinsight"
p2
sS'Created At'
p3
S'2015-11-28 22:03:50'
p4
s.(dp0
S'Text'
p1
S"I've harvested 1,090 of food!  https://t.co/eBfek2ousj #android, #androidgames, #gameinsight"
p2
sS'Created At'
p3
S'2015-11-28 22:03:50'
p4
s.(dp0
S'Text'
p1
S"I have completed the quest '4 Long-Term Deal...' in the #Android game The Tribez.  https://t.co/Stzo2MOgHV #androidgames, #gameinsight"
p2
sS'Created At'
p3
S'2015-11-28 22:03:50'
p4
s.(dp0
S'Text'
p1
S'I just received a reward: Island Expert https://t.co/tpNgXn1p3w #Android #Gameinsight #Androidgames'
p2
sS'Created At'
p3
S'2015-11-28 22:03:51'
p4
s.(dp0
S'Text'
p1
S'I look way too good for a shitty android quality camera'
p2
sS'Created At'
p3
S'2015-11-28 22:03:51'
p4
s.(dp0
S'Text'
p1
S'RT @aNag_android: https://t.co/zs0o4dMevV aNag 5.4.0: Added comment hanlding, added back refresh btn, some fixes and reordered dialog butto\xe2\x80\xa6'
p2
sS'Created At'
p3
S'2015-11-28 22:03:52'
p4
s.(dp0
S'Text'
p1
S'Check out ChopsNChange from @ReflexGamingLtd, available on Android! https://t.co/ADJEuT6pne'
p2
sS'Created At'
p3
S'2015-11-28 22:03:52'
p4
s.(dp0
S'Text'
p1
S"I've collected 9,817 gold coins!  https://t.co/OWHVe8vloM #android, #androidgames, #gameinsight"
p2
sS'Created At'
p3
S'2015-11-28 22:03:52'
p4
s.(dp0
S'Text'
p1
S"I've harvested 640 of food!  https://t.co/OWHVe8vloM #android, #androidgames, #gameinsight"
p2
sS'Created At'
p3
S'2015-11-28 22:03:52'
p4
s.(dp0
S'Text'
p1
S"I've harvested 20 of food!  https://t.co/1yRaOMnK1V #android, #androidgames, #gameinsight"
p2
sS'Created At'
p3
S'2015-11-28 22:03:52'
p4
s.(dp0
S'Text'
p1
S"I've finished the Treasure Chest quest! Are you able to fulfil the same task? https://t.co/0ZlH0ooA6P #android,#androidgames,#gameinsight"
p2
sS'Created At'
p3
S'2015-11-28 22:03:52'
p4
s.(dp0
S'Text'
p1
S'I have Boy Wizard Collection now, and what about you? https://t.co/orEJw2OD3o #android,#androidgames,#gameinsight'
p2
sS'Created At'
p3
S'2015-11-28 22:03:53'
p4
s.(dp0
S'Text'
p1
S'A screenshot of 5G8S Elite gameplay: https://t.co/Qz2UDhkD29 @Gamer_RTweets #game #android https://t.co/kcAOviNQpF'
p2
sS'Created At'
p3
S'2015-11-28 22:03:52'
p4
s.(dp0
S'Text'
p1
S"The Kingdom's citizens are happy to have Bakery! Try to build it too! https://t.co/orEJw2OD3o #android,#androidgames,#gameinsight"
p2
sS'Created At'
p3
S'2015-11-28 22:03:53'
p4
s.(dp0
S'Text'
p1
S"I've collected 10,033 gold coins!  https://t.co/vgeJ5BPJAo #android, #androidgames, #gameinsight"
p2
sS'Created At'
p3
S'2015-11-28 22:03:53'
p4
s.(dp0
S'Text'
p1
S'I have Ancient Bar on my island! Now my island is even more awesome!  https://t.co/Stzo2MOgHV #android, #androidgames, #gameinsight'
p2
sS'Created At'
p3
S'2015-11-28 22:03:53'
p4
s.(dp0
S'Text'
p1
S'I\'ve just finished "Friend and Assistant"! I\'d love for you to come and get a gift from me! https://t.co/TcVbBL17Lg #android  #gameinsight'
p2
sS'Created At'
p3
S'2015-11-28 22:03:53'
p4
s.(dp0
S'Text'
p1
S"I've harvested 1,160 of food!  https://t.co/lNmQobgDf8 #android, #androidgames, #gameinsight"
p2
sS'Created At'
p3
S'2015-11-28 22:03:54'
p4
s.(dp0
S'Text'
p1
S"The Kingdom's citizens are happy to have Guard Booth! Try to build it too! https://t.co/bsxk2yZiRB #android,#androidgames,#gameinsight"
p2
sS'Created At'
p3
S'2015-11-28 22:03:54'
p4
s.(dp0
S'Text'
p1
S"I've harvested 500 of food!  https://t.co/Stzo2MOgHV #android, #androidgames, #gameinsight"
p2
sS'Created At'
p3
S'2015-11-28 22:03:54'
p4
s.(dp0
S'Text'
p1
S"I've collected 1,263 gold coins!  https://t.co/uJKH4R7lpk #android, #androidgames, #gameinsight"
p2
sS'Created At'
p3
S'2015-11-28 22:03:54'
p4
s.(dp0
S'Text'
p1
S"I've harvested 395 of food!  https://t.co/uJKH4R7lpk #android, #androidgames, #gameinsight"
p2
sS'Created At'
p3
S'2015-11-28 22:03:54'
p4
s.(dp0
S'Text'
p1
S"I've harvested 165 of food!  https://t.co/HGczJDKSQl #android, #androidgames, #gameinsight"
p2
sS'Created At'
p3
S'2015-11-28 22:03:54'
p4
s.(dp0
S'Text'
p1
S"I've collected 530 gold coins!  https://t.co/HGczJDKSQl #android, #androidgames, #gameinsight"
p2
sS'Created At'
p3
S'2015-11-28 22:03:54'
p4
s.(dp0
S'Text'
p1
S"I've collected 1,039 gold coins!  https://t.co/Stzo2MOgHV #android, #androidgames, #gameinsight"
p2
sS'Created At'
p3
S'2015-11-28 22:03:54'
p4
s.(dp0
S'Text'
p1
S"I've harvested 140 of food!  https://t.co/mkElEc874h #android, #androidgames, #gameinsight"
p2
sS'Created At'
p3
S'2015-11-28 22:03:55'
p4
s.(dp0
S'Text'
p1
S'Custom Quick Setings 1.5.1 #Msi8Store #android #app available at https://t.co/zlgTeoo1fP  repository. https://t.co/UZ19ogeXAP'
p2
sS'Created At'
p3
S'2015-11-28 22:03:55'
p4
s.(dp0
S'Text'
p1
S"I've collected 375 gold coins!  https://t.co/mkElEc874h #android, #androidgames, #gameinsight"
p2
sS'Created At'
p3
S'2015-11-28 22:03:55'
p4
s.(dp0
S'Text'
p1
S'RT @smsmbooster: The best SMS Marketing App for android: Mobile SMS Marketing https://t.co/u5T45F5MZO'
p2
sS'Created At'
p3
S'2015-11-28 22:03:55'
p4
s.(dp0
S'Text'
p1
S"I've collected 90,175 gold coins!  https://t.co/rkuVTkdgDC #android, #androidgames, #gameinsight"
p2
sS'Created At'
p3
S'2015-11-28 22:03:55'
p4
s.(dp0
S'Text'
p1
S'#Prince #HarryFalls Off His Horse, Twice #YouTube #Facebook #Android #HarryFallsOff... https://t.co/wi41w0V3OF https://t.co/sORQY6g8Hp'
p2
sS'Created At'
p3
S'2015-11-28 22:03:55'
p4
s.(dp0
S'Text'
p1
S'I have gained level 7 in The Tribez and Castlez! Can you achieve it as well? https://t.co/orEJw2OD3o #android,#androidgames,#gameinsight'
p2
sS'Created At'
p3
S'2015-11-28 22:03:55'
p4
s.(dp0
S'Text'
p1
S"The Kingdom's citizens are happy to have Lumberman\xe2\x80\x99s Hut! Try to build it too! https://t.co/vRVFAubPUi #android,#androidgames,#gameins..."
p2
sS'Created At'
p3
S'2015-11-28 22:03:55'
p4
s.(dp0
S'Text'
p1
S'Abandoned Wizard\xe2\x80\x99s Tower has been explored. Are you able to reach it too? https://t.co/hfZSRXyRZK #android,#androidgames,#gameinsight'
p2
sS'Created At'
p3
S'2015-11-28 22:03:56'
p4
s.(dp0
S'Text'
p1
S'My Defence is at level 2! Are your citizens safe too? https://t.co/bsxk2yZiRB #android,#androidgames,#gameinsight'
p2
sS'Created At'
p3
S'2015-11-28 22:03:56'
p4
s.(dp0
S'Text'
p1
S"I've collected 27,165 gold coins!  https://t.co/gFO2qYpJLJ #android, #androidgames, #gameinsight"
p2
sS'Created At'
p3
S'2015-11-28 22:03:57'
p4
s.(dp0
S'Text'
p1
S'@godschildwmt android users'
p2
sS'Created At'
p3
S'2015-11-28 22:03:57'
p4
s.(dp0
S'Text'
p1
S"I've finished the Collect and Rule quest! Are you able to fulfil the same task? https://t.co/7TKiR8Z0Dv #android,#androidgames,#gamein..."
p2
sS'Created At'
p3
S'2015-11-28 22:03:57'
p4
s.(dp0
S'Text'
p1
S"I've collected 46,150 gold coins!  https://t.co/QLYgtH44qY #android, #androidgames, #gameinsight"
p2
sS'Created At'
p3
S'2015-11-28 22:03:58'
p4
s.(dp0
S'Text'
p1
S"RT @Dory: Why do android snapchats look like they're from the 1800's https://t.co/2XWU9JpTi5"
p2
sS'Created At'
p3
S'2015-11-28 22:03:58'
p4
s.(dp0
S'Text'
p1
S"RT @Dory: Why do android snapchats look like they're from the 1800's https://t.co/2XWU9JpTi5"
p2
sS'Created At'
p3
S'2015-11-28 22:03:58'
p4
s.(dp0
S'Text'
p1
S"I've collected 10,710 gold coins!  https://t.co/sZhMSHT5Ra #android, #androidgames, #gameinsight"
p2
sS'Created At'
p3
S'2015-11-28 22:03:58'
p4
s.(dp0
S'Text'
p1
S"I've collected 36,435 gold coins!  https://t.co/oRpqO1SpkB #android, #androidgames, #gameinsight"
p2
sS'Created At'
p3
S'2015-11-28 22:03:58'
p4
s.(dp0
S'Text'
p1
S"I'm earning #mPLUSRewards in https://t.co/wueNB5P4xt for Android. https://t.co/jijhWdGYRL @dictionarycom"
p2
sS'Created At'
p3
S'2015-11-28 22:03:58'
p4
s.(dp0
S'Text'
p1
S"I've collected 12,740 gold coins!  https://t.co/w4Sq3KQAml #android, #androidgames, #gameinsight"
p2
sS'Created At'
p3
S'2015-11-28 22:03:59'
p4
s.(dp0
S'Text'
p1
S'I have History of the First King now, and what about you? https://t.co/OMQuxVBelL #android,#androidgames,#gameinsight'
p2
sS'Created At'
p3
S'2015-11-28 22:03:59'
p4
s.(dp0
S'Text'
p1
S'Top Android news of the week: $161 tablet, Jolla halts deliveries, Motorola updates https://t.co/RQhTFsO2zv https://t.co/6ouEq5i71g'
p2
sS'Created At'
p3
S'2015-11-28 22:03:59'
p4
s.(dp0
S'Text'
p1
S"I've collected 42,300 gold coins!  https://t.co/vqvYP8XjYw #android, #androidgames, #gameinsight"
p2
sS'Created At'
p3
S'2015-11-28 22:04:00'
p4
s.(dp0
S'Text'
p1
S"I've harvested 1,204 of food!  https://t.co/zGxSWbBzEo #android, #androidgames, #gameinsight"
p2
sS'Created At'
p3
S'2015-11-28 22:04:00'
p4
s.(dp0
S'Text'
p1
S'This sounds just like my ex, I swear.  https://t.co/I7jKu83vnY'
p2
sS'Created At'
p3
S'2015-11-28 22:04:01'
p4
s.(dp0
S'Text'
p1
S'#android #Arkansas #photoshop #thank Secrets of #lucky #people: New Course On How To Be Lucky. https://t.co/1hnA2rguGS'
p2
sS'Created At'
p3
S'2015-11-28 22:04:02'
p4
s.(dp0
S'Text'
p1
S'#OneClickRoot: How-To Safely #Root #samsung advan s5-f (Build: mac_porter) Running #Android 4.4.3 https://t.co/r3yuJsegAG'
p2
sS'Created At'
p3
S'2015-11-28 22:04:02'
p4
s.(dp0
S'Text'
p1
S"I have completed the quest 'Building Houses.' in the #Android game The Tribez.  https://t.co/uJKH4R7lpk #androidgames, #gameinsight"
p2
sS'Created At'
p3
S'2015-11-28 22:04:02'
p4
s.(dp0
S'Text'
p1
S'#OneClickRoot: How-To Safely #Root #lge lg-v490 Running #Android 4.4.2 https://t.co/Lf9XOum24A'
p2
sS'Created At'
p3
S'2015-11-28 22:04:03'
p4
s.(dp0
S'Text'
p1
S"I've collected 11,523 gold coins!  https://t.co/g7gnUyTuku #android, #androidgames, #gameinsight"
p2
sS'Created At'
p3
S'2015-11-28 22:04:03'
p4
s.(dp0
S'Text'
p1
S"I've collected 16,150 gold coins!  https://t.co/JNhDnB27fI #android, #androidgames, #gameinsight"
p2
sS'Created At'
p3
S'2015-11-28 22:04:03'
p4
s.(dp0
S'Text'
p1
S'#OneClickRoot: How-To Safely #Root #sprd micromax a27 Running #Android 2.3.5 https://t.co/64eKXIG3EW'
p2
sS'Created At'
p3
S'2015-11-28 22:04:03'
p4
s.(dp0
S'Text'
p1
S"I've collected 23,950 gold coins!  https://t.co/vi8Zs5aXU5 #android, #androidgames, #gameinsight"
p2
sS'Created At'
p3
S'2015-11-28 22:04:03'
p4
s.(dp0
S'Text'
p1
S"I've harvested 2,231 of food!  https://t.co/JNhDnB27fI #android, #androidgames, #gameinsight"
p2
sS'Created At'
p3
S'2015-11-28 22:04:03'
p4
s.(dp0
S'Text'
p1
S"I've collected 21,570 gold coins!  https://t.co/uIyaWPUbl0 #android, #androidgames, #gameinsight"
p2
sS'Created At'
p3
S'2015-11-28 22:04:04'
p4
s.(dp0
S'Text'
p1
S"I've harvested 1,417 of food!  https://t.co/VLO7sEfHsf #android, #androidgames, #gameinsight"
p2
sS'Created At'
p3
S'2015-11-28 22:04:05'
p4
s.(dp0
S'Text'
p1
S"I've collected 32,774 gold coins!  https://t.co/VLO7sEfHsf #android, #androidgames, #gameinsight"
p2
sS'Created At'
p3
S'2015-11-28 22:04:05'
p4
s.(dp0
S'Text'
p1
S"I've collected 12,266 gold coins!  https://t.co/OEhyOzStQs #android, #androidgames, #gameinsight"
p2
sS'Created At'
p3
S'2015-11-28 22:04:05'
p4
s.(dp0
S'Text'
p1
S"RT @waqasmehar213: I'm using Viber to make free phone calls and send free messages on my Android phone https://t.co/zJi00eJIoD"
p2
sS'Created At'
p3
S'2015-11-28 22:04:06'
p4
s.(dp0
S'Text'
p1
S'Brand New Nvidia Shield 8" Gaming Tablet 16GB Android 4.4 KitKat Tegra K1 2.2GHz - Bid Now\xe2\x80\xa6 https://t.co/62F1yZYDbo https://t.co/wgH26CtOmQ'
p2
sS'Created At'
p3
S'2015-11-28 22:04:05'
p4
s.(dp0
S'Text'
p1
S'I have Patch on my island! Now my island is even more awesome!  https://t.co/Qsd4kltMxG #android, #androidgames, #gameinsight'
p2
sS'Created At'
p3
S'2015-11-28 22:04:06'
p4
s.(dp0
S'Text'
p1
S"I have completed the quest 'Build an Ancient...' in the #Android game The Tribez.  https://t.co/KzSoZn3e7l #androidgames, #gameinsight"
p2
sS'Created At'
p3
S'2015-11-28 22:04:06'
p4
s.(dp0
S'Text'
p1
S"I've finished the Dull Landscape quest! Are you able to fulfil the same task? https://t.co/BDNwKFWGFl #android,#androidgames,#gameinsight"
p2
sS'Created At'
p3
S'2015-11-28 22:04:06'
p4
s.(dp0
S'Text'
p1
S"I've harvested 180 of food!  https://t.co/8niQUOZ0nz #android, #androidgames, #gameinsight"
p2
sS'Created At'
p3
S'2015-11-28 22:04:06'
p4
s.(dp0
S'Text'
p1
S'iRULU 7" BabyPad Xmas Gift 8GB Dual Cam Kids Android Tablet for Children Yellow - Bid Now!\xe2\x80\xa6 https://t.co/HXsBoSytsz https://t.co/rgHb4iSe8n'
p2
sS'Created At'
p3
S'2015-11-28 22:04:06'
p4
s.(dp0
S'Text'
p1
S"I have completed the quest 'Clear up massive...' in the #Android game The Tribez.  https://t.co/OEhyOzStQs #androidgames, #gameinsight"
p2
sS'Created At'
p3
S'2015-11-28 22:04:06'
p4
s.(dp0
S'Text'
p1
S"I've collected 28,470 gold coins!  https://t.co/OWHVe8dKxe #android, #androidgames, #gameinsight"
p2
sS'Created At'
p3
S'2015-11-28 22:04:06'
p4
s.(dp0
S'Text'
p1
S'@SB1878EFC @tonyf_efc same android'
p2
sS'Created At'
p3
S'2015-11-28 22:04:07'
p4
s.(dp0
S'Text'
p1
S'10.1" Inch Dual Core Camera Android 4.4.2 Capacitive Screen Tablet PC WiFi 8GB  - Bid Now!\xe2\x80\xa6 https://t.co/h4bqJTRDKW https://t.co/kQhuvQyHNp'
p2
sS'Created At'
p3
S'2015-11-28 22:04:07'
p4
s.(dp0
S'Text'
p1
S'Got an Android phone? Give the @ReflexGamingLtd app a try! https://t.co/GNeYXYD9sN'
p2
sS'Created At'
p3
S'2015-11-28 22:04:07'
p4
s.(dp0
S'Text'
p1
S'\xe0\xb8\xaa\xe0\xb8\xb4\xe0\xb8\x99\xe0\xb8\x84\xe0\xb9\x89\xe0\xb8\xb2\xe0\xb8\xaa\xe0\xb8\xb1\xe0\xb9\x88\xe0\xb8\x87\xe0\xb8\x8b\xe0\xb8\xb7\xe0\xb9\x89\xe0\xb8\xad\xe0\xb8\x88\xe0\xb8\xb2\xe0\xb8\x81 eBay ! | Unlocked 5\xe2\x80\xb3 Android Smartphone Dual-Core Dual Sim 2G 3G WIFI GPS Cell Phone\xc2\xa0L1 https://t.co/Dx9KVoYrDE'
p2
sS'Created At'
p3
S'2015-11-28 22:04:08'
p4
s.(dp0
S'Text'
p1
S'Samsung Galaxy Tab 3 Android 8 Inch White Sm-t310 16GB Memory Wi-Fi - Bid Now! Only $82.0 https://t.co/YrkUsEkecY https://t.co/cWXwVPCeQC'
p2
sS'Created At'
p3
S'2015-11-28 22:04:07'
p4
s.(dp0
S'Text'
p1
S"I've collected 330 gold coins!  https://t.co/zt4I1n4rg0 #android, #androidgames, #gameinsight"
p2
sS'Created At'
p3
S'2015-11-28 22:04:08'
p4
s.(dp0
S'Text'
p1
S"I've collected 26,300 gold coins!  https://t.co/7PMMBCeWQJ #android, #androidgames, #gameinsight"
p2
sS'Created At'
p3
S'2015-11-28 22:04:08'
p4
s.(dp0
S'Text'
p1
S"I've harvested 372 of food!  https://t.co/zt4I1n4rg0 #android, #androidgames, #gameinsight"
p2
sS'Created At'
p3
S'2015-11-28 22:04:08'
p4
s.(dp0
S'Text'
p1
S"I've collected 1,133 gold coins!  https://t.co/qzu4NggaiM #android, #androidgames, #gameinsight"
p2
sS'Created At'
p3
S'2015-11-28 22:04:08'
p4
s.(dp0
S'Text'
p1
S"I've harvested 339 of food!  https://t.co/qzu4NggaiM #android, #androidgames, #gameinsight"
p2
sS'Created At'
p3
S'2015-11-28 22:04:08'
p4
s.(dp0
S'Text'
p1
S"I've collected 2,760 gold coins!  https://t.co/mkElEc874h #android, #androidgames, #gameinsight"
p2
sS'Created At'
p3
S'2015-11-28 22:04:08'
p4
s.(dp0
S'Text'
p1
S'I have gained level 9 in The Tribez and Castlez! Can you achieve it as well? https://t.co/q0WnKaz4zx #android,#androidgames,#gameinsight'
p2
sS'Created At'
p3
S'2015-11-28 22:04:08'
p4
s.(dp0
S'Text'
p1
S'Motorola Xoom 32GB Wi-Fi 10.1" Android tablet HDMI MZ604 *official case bundled* - Bid Now\xe2\x80\xa6 https://t.co/l6tHB0xpYf https://t.co/diJJvNCVYZ'
p2
sS'Created At'
p3
S'2015-11-28 22:04:08'
p4
s.(dp0
S'Text'
p1
S"I've collected 7,211 gold coins!  https://t.co/ND13wJStqK #android, #androidgames, #gameinsight"
p2
sS'Created At'
p3
S'2015-11-28 22:04:09'
p4
s.(dp0
S'Text'
p1
S"I've harvested 216 of food!  https://t.co/ND13wJStqK #android, #androidgames, #gameinsight"
p2
sS'Created At'
p3
S'2015-11-28 22:04:09'
p4
s.(dp0
S'Text'
p1
S"I've completed Astronaut Outfit collection!\nhttps://t.co/mnXTIQT4Qq #android #androidgames #gameinsight"
p2
sS'Created At'
p3
S'2015-11-28 22:04:09'
p4
s.(dp0
S'Text'
p1
S'Takatap - Android Apps on Google Play https://t.co/Ccqu03HJNm'
p2
sS'Created At'
p3
S'2015-11-28 22:04:09'
p4
s.(dp0
S'Text'
p1
S"I've collected 520,650 gold coins!  https://t.co/TipvYvbfQT #android, #androidgames, #gameinsight"
p2
sS'Created At'
p3
S'2015-11-28 22:04:10'
p4
s.(dp0
S'Text'
p1
S"I've collected 13,185 gold coins!  https://t.co/nA3se62VIv #android, #androidgames, #gameinsight"
p2
sS'Created At'
p3
S'2015-11-28 22:04:10'
p4
s.(dp0
S'Text'
p1
S"I've harvested 1,620 of food!  https://t.co/vctw3PY7bQ #android, #androidgames, #gameinsight"
p2
sS'Created At'
p3
S'2015-11-28 22:04:10'
p4
s.(dp0
S'Text'
p1
S"The Kingdom's citizens are happy to have Lumberman\xe2\x80\x99s Hut! Try to build it too! https://t.co/nQmBzdc9jX #android,#androidgames,#gameins..."
p2
sS'Created At'
p3
S'2015-11-28 22:04:10'
p4
s.(dp0
S'Text'
p1
S"I've collected 525 gold coins!  https://t.co/yeaNX4T8lg #android, #androidgames, #gameinsight"
p2
sS'Created At'
p3
S'2015-11-28 22:04:11'
p4
s.(dp0
S'Text'
p1
S'I have Warehouse on my island! Now my island is even more awesome!  https://t.co/2gsCZkjQvt #android, #androidgames, #gameinsight'
p2
sS'Created At'
p3
S'2015-11-28 22:04:11'
p4
s.(dp0
S'Text'
p1
S"I've harvested 30 of food!  https://t.co/yeaNX4T8lg #android, #androidgames, #gameinsight"
p2
sS'Created At'
p3
S'2015-11-28 22:04:11'
p4
s.(dp0
S'Text'
p1
S'Unlocked 5" Android Smartphone Dual-Core Dual Sim 2G 3G WIFI GPS Cell Phone L1 | \xe0\xb8\xa3\xe0\xb8\xb2\xe0\xb8\x84\xe0\xb8\xb2 : $53.79 |... https://t.co/Lq25tQccY0'
p2
sS'Created At'
p3
S'2015-11-28 22:04:11'
p4
s.(dp0
S'Text'
p1
S"I've harvested 409 of food!  https://t.co/gFO2qYpJLJ #android, #androidgames, #gameinsight"
p2
sS'Created At'
p3
S'2015-11-28 22:04:12'
p4
s.(dp0
S'Text'
p1
S"I've collected 49,085 gold coins!  https://t.co/EU0cRFG6NO #android, #androidgames, #gameinsight"
p2
sS'Created At'
p3
S'2015-11-28 22:04:12'
p4
s.(dp0
S'Text'
p1
S'Unlocked White 5.7" Samsung Galaxy Note 3 4G Android GSM Smartphone 32GB DHL - Bid Now! On\xe2\x80\xa6 https://t.co/oiAdwyJ6Lp https://t.co/YZ3QqlJKzf'
p2
sS'Created At'
p3
S'2015-11-28 22:04:13'
p4
s.(dp0
S'Text'
p1
S"I've collected 20,950 gold coins!  https://t.co/QLYgtH44qY #android, #androidgames, #gameinsight"
p2
sS'Created At'
p3
S'2015-11-28 22:04:13'
p4
s.(dp0
S'Text'
p1
S"@BBCRadio3 Looks really interesting but I can't seem to get it on the Android app"
p2
sS'Created At'
p3
S'2015-11-28 22:04:14'
p4
s.(dp0
S'Text'
p1
S"I have completed the quest 'Produce and Sell' in the #Android game The Tribez.  https://t.co/HGczJDKSQl #androidgames, #gameinsight"
p2
sS'Created At'
p3
S'2015-11-28 22:04:14'
p4
s.(dp0
S'Text'
p1
S'Got an Android phone? Give the @ReflexGamingLtd app a try! https://t.co/IBISWjym3V'
p2
sS'Created At'
p3
S'2015-11-28 22:04:14'
p4
s.(dp0
S'Text'
p1
S"I've collected 273 gold coins!  https://t.co/lJrMComdGD #android, #androidgames, #gameinsight"
p2
sS'Created At'
p3
S'2015-11-28 22:04:14'
p4
s.(dp0
S'Text'
p1
S"I've harvested 242 of food!  https://t.co/lJrMComdGD #android, #androidgames, #gameinsight"
p2
sS'Created At'
p3
S'2015-11-28 22:04:14'
p4
s.(dp0
S'Text'
p1
S"I've finished the Send 7 invitations quest! Are you able to fulfil the same task? https://t.co/L7grUkzw68 #android,#androidgames,#game..."
p2
sS'Created At'
p3
S'2015-11-28 22:04:15'
p4
s.(dp0
S'Text'
p1
S'RT @GameDanTeam: Chuck The Whale #freegame !!!!\nhttps://t.co/ePi9Han62K\n#pc #android #iOS #retrogames #indiedev #gamedev #gamersunite https\xe2\x80\xa6'
p2
sS'Created At'
p3
S'2015-11-28 22:04:15'
p4
s.(dp0
S'Text'
p1
S'Enter to Win a Google Nexus 5 Android Smartphone @Androidheadline #android #nexus #nexus5x  https://t.co/XRhM8zVk7R'
p2
sS'Created At'
p3
S'2015-11-28 22:04:16'
p4
s.(dp0
S'Text'
p1
S'Unlocked White 5.7" Samsung Galaxy Note 3 4G Android GSM Smartphone 32GB DHL - Bid Now! On\xe2\x80\xa6 https://t.co/BztmbRPRIN https://t.co/aWVXNvLWPe'
p2
sS'Created At'
p3
S'2015-11-28 22:04:16'
p4
s.(dp0
S'Text'
p1
S'I have Barman\xe2\x80\x99s Collection now, and what about you? https://t.co/OMQuxVBelL #android,#androidgames,#gameinsight'
p2
sS'Created At'
p3
S'2015-11-28 22:04:17'
p4
s.(dp0
S'Text'
p1
S"I've harvested 1,070 of food!  https://t.co/c6hc9EHuic #android, #androidgames, #gameinsight"
p2
sS'Created At'
p3
S'2015-11-28 22:04:18'
p4
s.(dp0
S'Text'
p1
S"I'm earning #mPLUSRewards in Light Da Fuse Android. https://t.co/xSuV21kG8p"
p2
sS'Created At'
p3
S'2015-11-28 22:04:18'
p4
s.(dp0
S'Text'
p1
S"I've completed Experiments in Space collection!\nhttps://t.co/mnXTIQT4Qq #android #androidgames #gameinsight"
p2
sS'Created At'
p3
S'2015-11-28 22:04:18'
p4
s.(dp0
S'Text'
p1
S"I've collected 39,344 gold coins!  https://t.co/pGIPeFdkgi #android, #androidgames, #gameinsight"
p2
sS'Created At'
p3
S'2015-11-28 22:04:18'
p4
s.(dp0
S'Text'
p1
S"I've finished the Guards of the Kingdom quest! Are you able to fulfil the same task? https://t.co/bsxk2yZiRB #android,#androidgames,#g..."
p2
sS'Created At'
p3
S'2015-11-28 22:04:18'
p4
s.(dp0
S'Text'
p1
S"I've collected 7,295 gold coins!  https://t.co/1yRaOMnK1V #android, #androidgames, #gameinsight"
p2
sS'Created At'
p3
S'2015-11-28 22:04:19'
p4
s.(dp0
S'Text'
p1
S'I finished the "Extinguish Fires" task in Big Business Deluxe for Android! https://t.co/G0g3oFfJlV #Android #Gameinsight #Androidgames'
p2
sS'Created At'
p3
S'2015-11-28 22:04:20'
p4
s.(dp0
S'Text'
p1
S'RT @icasnetwork2015: https://t.co/Ax1VqJuDEr Android M Coming soon - ICas @icasnetwork2015'
p2
sS'Created At'
p3
S'2015-11-28 22:04:20'
p4
s.(dp0
S'Text'
p1
S"I've finished the Family Relic quest! Are you able to fulfil the same task? https://t.co/9NZlAcdzub #android,#androidgames,#gameinsight"
p2
sS'Created At'
p3
S'2015-11-28 22:04:21'
p4
s.(dp0
S'Text'
p1
S'Android all day! https://t.co/JquA5ZyIFg'
p2
sS'Created At'
p3
S'2015-11-28 22:04:21'
p4
s.(dp0
S'Text'
p1
S'My Defence is at level 3! Are your citizens safe too? https://t.co/bsxk2yZiRB #android,#androidgames,#gameinsight'
p2
sS'Created At'
p3
S'2015-11-28 22:04:21'
p4
s.(dp0
S'Text'
p1
S"I've collected 13,137 gold coins!  https://t.co/eBfek2ousj #android, #androidgames, #gameinsight"
p2
sS'Created At'
p3
S'2015-11-28 22:04:22'
p4
s.(dp0
S'Text'
p1
S'I have Cottage on my island! Now my island is even more awesome!  https://t.co/kftcC0vgF2 #android, #androidgames, #gameinsight'
p2
sS'Created At'
p3
S'2015-11-28 22:04:23'
p4
s.(dp0
S'Text'
p1
S'I have Cauldron on my island! Now my island is even more awesome!  https://t.co/S4EDkDi3dV #android, #androidgames, #gameinsight'
p2
sS'Created At'
p3
S'2015-11-28 22:04:23'
p4
s.(dp0
S'Text'
p1
S'Castle Dungeon has been explored. Are you able to reach it too? https://t.co/Vf3QwYlKQw #android,#androidgames,#gameinsight'
p2
sS'Created At'
p3
S'2015-11-28 22:04:24'
p4
s.(dp0
S'Text'
p1
S'Brand New Nvidia Shield 8" Gaming Tablet 16GB Android 4.4 KitKat Tegra K1 2.2GHz - Bid Now\xe2\x80\xa6 https://t.co/OdYrDMna25 https://t.co/2cAMqv7xxr'
p2
sS'Created At'
p3
S'2015-11-28 22:04:24'
p4
s.(dp0
S'Text'
p1
S"I've collected 67,400 gold coins!  https://t.co/vqvYP8XjYw #android, #androidgames, #gameinsight"
p2
sS'Created At'
p3
S'2015-11-28 22:04:25'
p4
s.(dp0
S'Text'
p1
S'Get Apps For #iPhone - #Android - Windows - Thousands of #Apps - https://t.co/Xj6ZfJONga - #iTunes ? Games - Free https://t.co/fvxjPMsGj6'
p2
sS'Created At'
p3
S'2015-11-28 22:04:24'
p4
s.(dp0
S'Text'
p1
S'I have Sand Pit on my island! Now my island is even more awesome!  https://t.co/kftcC0vgF2 #android, #androidgames, #gameinsight'
p2
sS'Created At'
p3
S'2015-11-28 22:04:25'
p4
s.(dp0
S'Text'
p1
S"I've collected 14,497 gold coins!  https://t.co/m8mzhBdiDp #android, #androidgames, #gameinsight"
p2
sS'Created At'
p3
S'2015-11-28 22:04:25'
p4
s.(dp0
S'Text'
p1
S'iRULU 7" BabyPad Xmas Gift 8GB Dual Cam Kids Android Tablet for Children Yellow - Bid Now!\xe2\x80\xa6 https://t.co/L6atuLvhIx https://t.co/mlxbxx9rG7'
p2
sS'Created At'
p3
S'2015-11-28 22:04:25'
p4
s.(dp0
S'Text'
p1
S"RT @Android: We're giving $1 to @DonorsChoose every time you use #AndroidPay. Join us to #TapPayGive https://t.co/UTMsgRPnu4 https://t.co/Z\xe2\x80\xa6"
p2
sS'Created At'
p3
S'2015-11-28 22:04:25'
p4
s.(dp0
S'Text'
p1
S"I've harvested 600 of food!  https://t.co/1nM2W7FapU #android, #androidgames, #gameinsight"
p2
sS'Created At'
p3
S'2015-11-28 22:04:25'
p4
s.(dp0
S'Text'
p1
S"I've collected 6,055 gold coins!  https://t.co/1nM2W7FapU #android, #androidgames, #gameinsight"
p2
sS'Created At'
p3
S'2015-11-28 22:04:26'
p4
s.(dp0
S'Text'
p1
S"I've collected 5,514 gold coins!  https://t.co/Q58ToNcn4n #android, #androidgames, #gameinsight"
p2
sS'Created At'
p3
S'2015-11-28 22:04:26'
p4
s.(dp0
S'Text'
p1
S"I've collected 210 gold coins!  https://t.co/UyQ8IYEDPj #android, #androidgames, #gameinsight"
p2
sS'Created At'
p3
S'2015-11-28 22:04:26'
p4
s.(dp0
S'Text'
p1
S"I've collected 12,588 gold coins!  https://t.co/ewTsoYHDRA #android, #androidgames, #gameinsight"
p2
sS'Created At'
p3
S'2015-11-28 22:04:26'
p4
s.(dp0
S'Text'
p1
S'10.1" Inch Dual Core Camera Android 4.4.2 Capacitive Screen Tablet PC WiFi 8GB  - Bid Now!\xe2\x80\xa6 https://t.co/bGIHR1tRYr https://t.co/gQyUKhMTyY'
p2
sS'Created At'
p3
S'2015-11-28 22:04:26'
p4
s.(dp0
S'Text'
p1
S'Samsung Galaxy Tab 3 Android 8 Inch White Sm-t310 16GB Memory Wi-Fi - Bid Now! Only $82.0 https://t.co/pt2l8tcF8N https://t.co/FN6EtGmOk5'
p2
sS'Created At'
p3
S'2015-11-28 22:04:26'
p4
s.(dp0
S'Text'
p1
S'install Descubre Sleep as Android Full v20151126 build 1169 Descargar Apk https://t.co/kbBu8CaOYo https://t.co/XPiKMunI28'
p2
sS'Created At'
p3
S'2015-11-28 22:04:26'
p4
s.(dp0
S'Text'
p1
S"I have completed the quest 'Gathering samples.' in the #Android game The Tribez.  https://t.co/uJKH4R7lpk #androidgames, #gameinsight"
p2
sS'Created At'
p3
S'2015-11-28 22:04:27'
p4
s.(dp0
S'Text'
p1
S'Motorola Xoom 32GB Wi-Fi 10.1" Android tablet HDMI MZ604 *official case bundled* - Bid Now\xe2\x80\xa6 https://t.co/AP3Ts7WnL4 https://t.co/jP7QcjjPAk'
p2
sS'Created At'
p3
S'2015-11-28 22:04:27'
p4
s.(dp0
S'Text'
p1
S'https://t.co/miYAuiSOD0 like and subscribe to the channel https://t.co/E2BAXGg7j8'
p2
sS'Created At'
p3
S'2015-11-28 22:04:27'
p4
s.(dp0
S'Text'
p1
S"I've harvested 2,497 of food!  https://t.co/Xahh8RKZ6U #android, #androidgames, #gameinsight"
p2
sS'Created At'
p3
S'2015-11-28 22:04:28'
p4
s.(dp0
S'Text'
p1
S'Enter to Win a Google Nexus 6P Android Smartphone @Androidheadline #android #nexus #nexus6p https://t.co/znURUHjMGc'
p2
sS'Created At'
p3
S'2015-11-28 22:04:28'
p4
s.(dp0
S'Text'
p1
S'A 2003 Nissan 350Z was just scanned near Elizabeth, PA 15037 https://t.co/ACZACnVx3d #sellyourcar #ipad #android'
p2
sS'Created At'
p3
S'2015-11-28 22:04:28'
p4
s.(dp0
S'Text'
p1
S"I've collected 10,350 gold coins!  https://t.co/FV4p5bxqUF #android, #androidgames, #gameinsight"
p2
sS'Created At'
p3
S'2015-11-28 22:04:29'
p4
s.(dp0
S'Text'
p1
S'Do not stress, just play\nGet it: https://t.co/RQnoOZRwlU\n#Android #App #RT https://t.co/OrMQSk1mcl'
p2
sS'Created At'
p3
S'2015-11-28 22:04:29'
p4
s.(dp0
S'Text'
p1
S"I've collected 46,580 gold coins!  https://t.co/04RqRkjgrY #android, #androidgames, #gameinsight"
p2
sS'Created At'
p3
S'2015-11-28 22:04:29'
p4
s.(dp0
S'Text'
p1
S"I've harvested 1,840 of food!  https://t.co/04RqRkjgrY #android, #androidgames, #gameinsight"
p2
sS'Created At'
p3
S'2015-11-28 22:04:29'
p4
s.(dp0
S'Text'
p1
S'Unlocked White 5.7" Samsung Galaxy Note 3 4G Android GSM Smartphone 32GB DHL - Bid Now! On\xe2\x80\xa6 https://t.co/oiAdwyJ6Lp https://t.co/YQ1SJ5mrv3'
p2
sS'Created At'
p3
S'2015-11-28 22:04:30'
p4
s.(dp0
S'Text'
p1
S'I have gained level 5 in The Tribez and Castlez! Can you achieve it as well? https://t.co/9NZlAcdzub #android,#androidgames,#gameinsight'
p2
sS'Created At'
p3
S'2015-11-28 22:04:30'
p4
s.(dp0
S'Text'
p1
S"I've collected 27,158 gold coins!  https://t.co/gFO2qYpJLJ #android, #androidgames, #gameinsight"
p2
sS'Created At'
p3
S'2015-11-28 22:04:30'
p4
s.(dp0
S'Text'
p1
S"I've harvested 1,905 of food!  https://t.co/p7QRqEevzP #android, #androidgames, #gameinsight"
p2
sS'Created At'
p3
S'2015-11-28 22:04:31'
p4
s.(dp0
S'Text'
p1
S"I've harvested 767 of food!  https://t.co/8jdy0nXCrv #android, #androidgames, #gameinsight"
p2
sS'Created At'
p3
S'2015-11-28 22:04:31'
p4
s.(dp0
S'Text'
p1
S"This Theory Will Totally Change How You See 'Elf' https://t.co/CVAkmQBpBV #gameinsight, #android, #androidgames, #ipad, #ipadgames, #openf\xe2\x80\xa6"
p2
sS'Created At'
p3
S'2015-11-28 22:04:31'
p4
s.(dp0
S'Text'
p1
S'Android malware families just about quadruple not counting 2011 to 2012: UWZaST'
p2
sS'Created At'
p3
S'2015-11-28 22:04:32'
p4
s.(dp0
S'Text'
p1
S'Polaroid ZIP Mobile Printer w/ZINK Zero Ink Printing Technology - Compatible w/iOS &amp; Android Devices - Black:\xe2\x80\xa6 https://t.co/Q5TQWBiGOM'
p2
sS'Created At'
p3
S'2015-11-28 22:04:33'
p4
s.(dp0
S'Text'
p1
S"https://t.co/KPl6I5MSv6 Gemma Styles: How Instagram's Helping Us Learn To Love Ourselves https://t.co/tRTEdSnFsl #instagram"
p2
sS'Created At'
p3
S'2015-11-28 22:04:33'
p4
s.(dp0
S'Text'
p1
S"I've collected 55,080 gold coins!  https://t.co/rkuVTkdgDC #android, #androidgames, #gameinsight"
p2
sS'Created At'
p3
S'2015-11-28 22:04:34'
p4
s.(dp0
S'Text'
p1
S"I'm earning #mPLUSRewards in Name Da State Android. https://t.co/Zz2qVJA7EF"
p2
sS'Created At'
p3
S'2015-11-28 22:04:34'
p4
s.(dp0
S'Text'
p1
S'Review Evercoss Winner Y Ultra\xe2\x80\xa6 https://t.co/zxt8ji2xL3 #Ponsel #Review #a75a #android #Evercoss #STMIKPotensiUtama https://t.co/8Rq24o9veF'
p2
sS'Created At'
p3
S'2015-11-28 22:04:34'
p4
s.(dp0
S'Text'
p1
S"I've collected 17,260 gold coins!  https://t.co/pGIPeFdkgi #android, #androidgames, #gameinsight"
p2
sS'Created At'
p3
S'2015-11-28 22:04:35'
p4
s.(dp0
S'Text'
p1
S'I have Bridge on my island! Now my island is even more awesome!  https://t.co/JNhDnB27fI #android, #androidgames, #gameinsight'
p2
sS'Created At'
p3
S'2015-11-28 22:04:38'
p4
s.(dp0
S'Text'
p1
S"I've harvested 288 of food!  https://t.co/EpnWgu5bmE #android, #androidgames, #gameinsight"
p2
sS'Created At'
p3
S'2015-11-28 22:04:38'
p4
s.(dp0
S'Text'
p1
S"RT @DOMSKITTLEZ: Now Playing #ToWhomItMayConcern by @TreySongz @DJDrama via @DatPiff's Android App https://t.co/WCJatLKf6b \xf0\x9f\x94\xa5\xf0\x9f\x94\xa5\xf0\x9f\x94\xa5\xf0\x9f\x94\xa5\xf0\x9f\x94\xa5 https://t.\xe2\x80\xa6"
p2
sS'Created At'
p3
S'2015-11-28 22:04:38'
p4
s.(dp0
S'Text'
p1
S"This Theory Will Totally Change How You See 'Elf' https://t.co/X7M36C3bIQ #gameinsight, #android, #androidgames, #ipad, #ipadgames, #openf\xe2\x80\xa6"
p2
sS'Created At'
p3
S'2015-11-28 22:04:39'
p4
s.(dp0
S'Text'
p1
S"I have completed the quest 'To Learn More!' in the #Android game The Tribez.  https://t.co/8jdy0nXCrv #androidgames, #gameinsight"
p2
sS'Created At'
p3
S'2015-11-28 22:04:39'
p4
s.(dp0
S'Text'
p1
S"I've collected 9,110 gold coins!  https://t.co/qzu4NggaiM #android, #androidgames, #gameinsight"
p2
sS'Created At'
p3
S'2015-11-28 22:04:39'
p4
s.(dp0
S'Text'
p1
S"This Theory Will Totally Change How You See 'Elf' https://t.co/uDrREYzMGJ #gameinsight, #android, #androidgames, #ipad, #ipadgames, #openf\xe2\x80\xa6"
p2
sS'Created At'
p3
S'2015-11-28 22:04:40'
p4
s.(dp0
S'Text'
p1
S'I have Coffee Tree on my island! Now my island is even more awesome!  https://t.co/wSqgxLPwDy #android, #androidgames, #gameinsight'
p2
sS'Created At'
p3
S'2015-11-28 22:04:40'
p4
s.(dp0
S'Text'
p1
S'I have Lumber Mill on my island! Now my island is even more awesome!  https://t.co/ZJSnWCu6OI #android, #androidgames, #gameinsight'
p2
sS'Created At'
p3
S'2015-11-28 22:04:40'
p4
s.(dp0
S'Text'
p1
S"I've collected 2,140 gold coins!  https://t.co/EpnWgu5bmE #android, #androidgames, #gameinsight"
p2
sS'Created At'
p3
S'2015-11-28 22:04:41'
p4
s.(dp0
S'Text'
p1
S'Abandoned Wizard\xe2\x80\x99s Tower has been explored. Are you able to reach it too? https://t.co/8xL0UqvwOs #android,#androidgames,#gameinsight'
p2
sS'Created At'
p3
S'2015-11-28 22:04:41'
p4
s.(dp0
S'Text'
p1
S'#iphone #apple Deals https://t.co/khbAhYrvIq #1963 #2069 DZ09 Bluetooth Wrist Smart Watch GSM For Android Samsung.\xe2\x80\xa6 https://t.co/ydqjkwb6dC'
p2
sS'Created At'
p3
S'2015-11-28 22:04:41'
p4
s.(dp0
S'Text'
p1
S'I just received a reward: Patient https://t.co/P3O6CRwZtC #Android #Androidgames #Gameinsight'
p2
sS'Created At'
p3
S'2015-11-28 22:04:41'
p4
s.(dp0
S'Text'
p1
S"I've collected 12,550 gold coins!  https://t.co/JNhDnB27fI #android, #androidgames, #gameinsight"
p2
sS'Created At'
p3
S'2015-11-28 22:04:42'
p4
s.(dp0
S'Text'
p1
S"I've harvested 2,376 of food!  https://t.co/JNhDnB27fI #android, #androidgames, #gameinsight"
p2
sS'Created At'
p3
S'2015-11-28 22:04:42'
p4
s.(dp0
S'Text'
p1
S"I've harvested 275 of food!  https://t.co/Qsd4kltMxG #android, #androidgames, #gameinsight"
p2
sS'Created At'
p3
S'2015-11-28 22:04:42'
p4
s.(dp0
S'Text'
p1
S"I've harvested 443 of food!  https://t.co/rdF1Ob12Mz #android, #androidgames, #gameinsight"
p2
sS'Created At'
p3
S'2015-11-28 22:04:44'
p4
s.(dp0
S'Text'
p1
S"I've collected 2,473 gold coins!  https://t.co/rdF1Ob12Mz #android, #androidgames, #gameinsight"
p2
sS'Created At'
p3
S'2015-11-28 22:04:44'
p4
s.(dp0
S'Text'
p1
S"I've collected 5,655 gold coins!  https://t.co/EWQ4Mk1pXp #android, #androidgames, #gameinsight"
p2
sS'Created At'
p3
S'2015-11-28 22:04:44'
p4
s.(dp0
S'Text'
p1
S"I have completed the quest 'Build a bridge n...' in the #Android game The Tribez.  https://t.co/JNhDnB27fI #androidgames, #gameinsight"
p2
sS'Created At'
p3
S'2015-11-28 22:04:44'
p4
s.(dp0
S'Text'
p1
S"I'm earning #mPLUSRewards in Light Da Fuse Android. https://t.co/X2UJDxM8il"
p2
sS'Created At'
p3
S'2015-11-28 22:04:45'
p4
s.(dp0
S'Text'
p1
S"I've collected 11,325 gold coins!  https://t.co/oEITS77Gf0 #android, #androidgames, #gameinsight"
p2
sS'Created At'
p3
S'2015-11-28 22:04:45'
p4
s.(dp0
S'Text'
p1
S"I've harvested 840 of food!  https://t.co/oEITS77Gf0 #android, #androidgames, #gameinsight"
p2
sS'Created At'
p3
S'2015-11-28 22:04:45'
p4
s.(dp0
S'Text'
p1
S'RT @tinatbh: No offense but android snapchats look like photographs from the American civil war'
p2
sS'Created At'
p3
S'2015-11-28 22:04:45'
p4
s.(dp0
S'Text'
p1
S'Introducing 2go for Android -Official release! - African mobile social network 2go has launched its long... https://t.co/ZrnYg4Ef9K'
p2
sS'Created At'
p3
S'2015-11-28 22:04:45'
p4
s.(dp0
S'Text'
p1
S'#\xd9\x85\xd9\x88\xd9\x82\xd8\xb9_\xd8\xb9\xd8\xa7\xd8\xac\xd9\x84_\xd9\x86\xd9\x8a\xd9\x88\xd8\xb2 The post Google Dialer 2.21 (#Android 6.0+) appeared first\xe2\x80\xa6 https://t.co/UrW2dmPcFF #3agelnews_\xd9\x85\xd9\x86\xd9\x88\xd8\xb9\xd8\xa7\xd8\xaa'
p2
sS'Created At'
p3
S'2015-11-28 22:04:45'
p4
s.(dp0
S'Text'
p1
S"I have completed the quest 'Take 4 saws from...' in the #Android game The Tribez.  https://t.co/x0jYJQEO5V #androidgames, #gameinsight"
p2
sS'Created At'
p3
S'2015-11-28 22:04:46'
p4
s.(dp0
S'Text'
p1
S'Apple  https://t.co/yXz3ppaRGN'
p2
sS'Created At'
p3
S'2015-11-28 22:04:46'
p4
s.(dp0
S'Text'
p1
S"I've collected 51,488 gold coins!  https://t.co/4KBau1sYIv #android, #androidgames, #gameinsight"
p2
sS'Created At'
p3
S'2015-11-28 22:04:46'
p4
s.(dp0
S'Text'
p1
S"I've harvested 420 of food!  https://t.co/EWQ4Mk1pXp #android, #androidgames, #gameinsight"
p2
sS'Created At'
p3
S'2015-11-28 22:04:46'
p4
s.(dp0
S'Text'
p1
S"I've collected 11,612 gold coins!  https://t.co/vqvYP8XjYw #android, #androidgames, #gameinsight"
p2
sS'Created At'
p3
S'2015-11-28 22:04:46'
p4
s.(dp0
S'Text'
p1
S"I've collected 360,420 gold coins!  https://t.co/uyyQXQgpOJ #android, #androidgames, #gameinsight"
p2
sS'Created At'
p3
S'2015-11-28 22:04:47'
p4
s.(dp0
S'Text'
p1
S"I've collected 30,950 gold coins!  https://t.co/vi8Zs5aXU5 #android, #androidgames, #gameinsight"
p2
sS'Created At'
p3
S'2015-11-28 22:04:47'
p4
s.(dp0
S'Text'
p1
S'Castle Dungeon has been explored. Are you able to reach it too? https://t.co/jG47R4ypsM #android,#androidgames,#gameinsight'
p2
sS'Created At'
p3
S'2015-11-28 22:04:47'
p4
s.(dp0
S'Text'
p1
S"I've collected 39,960 gold coins!  https://t.co/QIbyIQ5UDp #android, #androidgames, #gameinsight"
p2
sS'Created At'
p3
S'2015-11-28 22:04:47'
p4
s.(dp0
S'Text'
p1
S'Asphalt Nitro Android Walkthrough - Gameplay Part 1 - Career Season 1: I... https://t.co/7IkAA87N4D via @YouTube'
p2
sS'Created At'
p3
S'2015-11-28 22:04:47'
p4
s.(dp0
S'Text'
p1
S"I've collected 19,345 gold coins!  https://t.co/gFO2qYpJLJ #android, #androidgames, #gameinsight"
p2
sS'Created At'
p3
S'2015-11-28 22:04:48'
p4
s.(dp0
S'Text'
p1
S'Anyone got a link for the fight on android?'
p2
sS'Created At'
p3
S'2015-11-28 22:04:48'
p4
s.(dp0
S'Text'
p1
S"I've collected 10,845 gold coins!  https://t.co/7PMMBCeWQJ #android, #androidgames, #gameinsight"
p2
sS'Created At'
p3
S'2015-11-28 22:04:48'
p4
s.(dp0
S'Text'
p1
S"I've collected 2,349 gold coins!  https://t.co/dwmhJyxqnn #android, #androidgames, #gameinsight"
p2
sS'Created At'
p3
S'2015-11-28 22:04:50'
p4
s.(dp0
S'Text'
p1
S"I'm earning #mPLUSRewards in Name Da State Android. https://t.co/uVwjjbbYNR"
p2
sS'Created At'
p3
S'2015-11-28 22:04:50'
p4
s.(dp0
S'Text'
p1
S"I've collected 10,845 gold coins!  https://t.co/kftcC0vgF2 #android, #androidgames, #gameinsight"
p2
sS'Created At'
p3
S'2015-11-28 22:04:52'
p4
s.(dp0
S'Text'
p1
S'RT @RootJunky: DroidsGiving Android Giveaway win a Nexus 5x and much more: https://t.co/YH2ChDqiJJ via @YouTube'
p2
sS'Created At'
p3
S'2015-11-28 22:04:52'
p4
s.(dp0
S'Text'
p1
S"There's an almost-perfect HIV prevention pill, but not enou https://t.co/mittDgduH3 #apps #News #Startups #HowTo #DIY #Android #HowTo #Apps"
p2
sS'Created At'
p3
S'2015-11-28 22:04:52'
p4
s.(dp0
S'Text'
p1
S"This Theory Will Totally Change How You See 'Elf' https://t.co/HTn76WjGjl #gameinsight, #android, #androidgames, #ipad, #ipadgames, #openf\xe2\x80\xa6"
p2
sS'Created At'
p3
S'2015-11-28 22:04:53'
p4
s.(dp0
S'Text'
p1
S'RT @icasnetwork2015: https://t.co/Ax1VqJuDEr Android M Coming soon - ICas @icasnetwork2015'
p2
sS'Created At'
p3
S'2015-11-28 22:04:53'
p4
s.(dp0
S'Text'
p1
S"I've collected 24,230 gold coins!  https://t.co/1nM2W7FapU #android, #androidgames, #gameinsight"
p2
sS'Created At'
p3
S'2015-11-28 22:04:53'
p4
s.(dp0
S'Text'
p1
S"I've harvested 1,270 of food!  https://t.co/1nM2W7FapU #android, #androidgames, #gameinsight"
p2
sS'Created At'
p3
S'2015-11-28 22:04:53'
p4
s.(dp0
S'Text'
p1
S"I've finished the Wood Harvesting quest! Are you able to fulfil the same task? https://t.co/bsxk2yZiRB #android,#androidgames,#gameins..."
p2
sS'Created At'
p3
S'2015-11-28 22:04:53'
p4
s.(dp0
S'Text'
p1
S"I've collected 10,230 gold coins!  https://t.co/g7gnUyTuku #android, #androidgames, #gameinsight"
p2
sS'Created At'
p3
S'2015-11-28 22:04:54'
p4
s.(dp0
S'Text'
p1
S'RT @starlitadv: When your heart is true, your aim will be too!\nFree on iOS &amp; Android: https://t.co/JQxEGfJRWU  \n#gamedev #indiedev https://\xe2\x80\xa6'
p2
sS'Created At'
p3
S'2015-11-28 22:04:54'
p4
s.(dp0
S'Text'
p1
S'Instagram unveils multi-account access for Android beta users: https://t.co/hjetyhaYzs #socialmedia \xe2\x80\xa6 https://t.co/ARdpBAROmW'
p2
sS'Created At'
p3
S'2015-11-28 22:04:54'
p4
s.(dp0
S'Text'
p1
S'@ForceBeW1thYou though I haven\xe2\x80\x99t used android since Jelly Bean so my opinion is probably a little skewed.'
p2
sS'Created At'
p3
S'2015-11-28 22:04:54'
p4
s.(dp0
S'Text'
p1
S'RT : Chuck The Whale  !!!!\n\n        https://t.co/Lxeo8RwQuX'
p2
sS'Created At'
p3
S'2015-11-28 22:04:54'
p4
s.(dp0
S'Text'
p1
S"I've harvested 510 of food!  https://t.co/ND13wJStqK #android, #androidgames, #gameinsight"
p2
sS'Created At'
p3
S'2015-11-28 22:04:55'
p4
s.(dp0
S'Text'
p1
S"I've finished the Send 8 invitations quest! Are you able to fulfil the same task? https://t.co/L7grUkzw68 #android,#androidgames,#game..."
p2
sS'Created At'
p3
S'2015-11-28 22:04:56'
p4
s.(dp0
S'Text'
p1
S"I've collected 49,890 gold coins!  https://t.co/gRKEQqB7MZ #android, #androidgames, #gameinsight"
p2
sS'Created At'
p3
S'2015-11-28 22:04:56'
p4
s.(dp0
S'Text'
p1
S"I've collected 687 gold coins!  https://t.co/ZJSnWCLIdi #android, #androidgames, #gameinsight"
p2
sS'Created At'
p3
S'2015-11-28 22:04:57'
p4
s.(dp0
S'Text'
p1
S"I've harvested 346 of food!  https://t.co/ZJSnWCLIdi #android, #androidgames, #gameinsight"
p2
sS'Created At'
p3
S'2015-11-28 22:04:57'
p4
s.(dp0
S'Text'
p1
S'My Defence is at level 8! Are your citizens safe too? https://t.co/QnkQCRLriw #android,#androidgames,#gameinsight'
p2
sS'Created At'
p3
S'2015-11-28 22:04:57'
p4
s.(dp0
S'Text'
p1
S"I've harvested 88 of food!  https://t.co/sZhMSHT5Ra #android, #androidgames, #gameinsight"
p2
sS'Created At'
p3
S'2015-11-28 22:04:57'
p4
s.(dp0
S'Text'
p1
S"I've harvested 1,123 of food!  https://t.co/ewTsoYHDRA #android, #androidgames, #gameinsight"
p2
sS'Created At'
p3
S'2015-11-28 22:04:57'
p4
s.(dp0
S'Text'
p1
S'HappyID Shows You Contact Notes When You Need Them the Most https://t.co/pqWlohOfP1 #Android'
p2
sS'Created At'
p3
S'2015-11-28 22:04:58'
p4
s.(dp0
S'Text'
p1
S'Android Marshmallow \xe2\x80\x93 Update Any Android\xc2\xa0Device https://t.co/ImjJ4tBw6a'
p2
sS'Created At'
p3
S'2015-11-28 22:04:59'
p4
s.(dp0
S'Text'
p1
S'\xe2\x96\xba https://t.co/k5zUMent7z \xe2\x9d\xa4 [FREE] Adult Comic Viewer (Android)\xe2\x9d\xa4  #hentai #ecchi #anime #porn 296 https://t.co/DqhSZYBRdc'
p2
sS'Created At'
p3
S'2015-11-28 22:04:59'
p4
s.(dp0
S'Text'
p1
S'I need you to develop any simple  android game (Budget: $30 - $250 USD, Jobs: Android Wear SDK, Java) https://t.co/MSHLkiaqA4'
p2
sS'Created At'
p3
S'2015-11-28 22:04:59'
p4
s.(dp0
S'Text'
p1
S"I've harvested 1,023 of food!  https://t.co/KNuFSQbQGi #android, #androidgames, #gameinsight"
p2
sS'Created At'
p3
S'2015-11-28 22:04:59'
p4
s.(dp0
S'Text'
p1
S"I've collected 2,710 gold coins!  https://t.co/L8u0jXeC3M #android, #androidgames, #gameinsight"
p2
sS'Created At'
p3
S'2015-11-28 22:05:00'
p4
s.(dp0
S'Text'
p1
S'@janemcellin @SB1878EFC its android then lol.i wonder if its on box nation lol'
p2
sS'Created At'
p3
S'2015-11-28 22:05:00'
p4
s.(dp0
S'Text'
p1
S'I have Cauldron on my island! Now my island is even more awesome!  https://t.co/QtaRmUDT6p #android, #androidgames, #gameinsight'
p2
sS'Created At'
p3
S'2015-11-28 22:05:00'
p4
s.(dp0
S'Text'
p1
S'The King of Fighters-A 2012(F) App Review (Latest Update Review)\nhttps://t.co/EBkUziRCGA\n#android #apps #review #androidgames #fightinggame'
p2
sS'Created At'
p3
S'2015-11-28 22:05:01'
p4
s.(dp0
S'Text'
p1
S"I've collected 9,645 gold coins!  https://t.co/XB3ItQG15J #android, #androidgames, #gameinsight"
p2
sS'Created At'
p3
S'2015-11-28 22:05:01'
p4
s.(dp0
S'Text'
p1
S"I've finished the Dull Landscape quest! Are you able to fulfil the same task? https://t.co/c7KHxxHlR6 #android,#androidgames,#gameinsight"
p2
sS'Created At'
p3
S'2015-11-28 22:05:01'
p4
s.(dp0
S'Text'
p1
S'Looking for android developer to work on integrating ads on existing code using android studio.  It should be done\xe2\x80\xa6 https://t.co/TkudxlDlMZ'
p2
sS'Created At'
p3
S'2015-11-28 22:05:02'
p4
s.(dp0
S'Text'
p1
S"I've collected 9,140 gold coins!  https://t.co/MfIsjRD1sg #android, #androidgames, #gameinsight"
p2
sS'Created At'
p3
S'2015-11-28 22:05:02'
p4
s.(dp0
S'Text'
p1
S"I've collected 18,900 gold coins!  https://t.co/gFO2qYpJLJ #android, #androidgames, #gameinsight"
p2
sS'Created At'
p3
S'2015-11-28 22:05:03'
p4
s.(dp0
S'Text'
p1
S'Castle Dungeon has been explored. Are you able to reach it too? https://t.co/AFlS90MWhF #android,#androidgames,#gameinsight'
p2
sS'Created At'
p3
S'2015-11-28 22:05:03'
p4
s.(dp0
S'Text'
p1
S'Descubre Sleep as Android Full v20151126 build 1169 Descargar Apk https://t.co/kg4WwjMyB4 https://t.co/SgdCRDpwSn'
p2
sS'Created At'
p3
S'2015-11-28 22:05:03'
p4
s.(dp0
S'Text'
p1
S'China, France say climate pact should ha https://t.co/KUcRYRQMsK #uncategorized #Trending #News #Startups #HowTo #DIY #Android #HowTo #Apps'
p2
sS'Created At'
p3
S'2015-11-28 22:05:04'
p4
s.(dp0
S'Text'
p1
S"I've finished the Dusty Dungeon quest! Are you able to fulfil the same task? https://t.co/jG47R4ypsM #android,#androidgames,#gameinsight"
p2
sS'Created At'
p3
S'2015-11-28 22:05:04'
p4
s.(dp0
S'Text'
p1
S"I've harvested 487 of food!  https://t.co/6OSMOQTYWJ #android, #androidgames, #gameinsight"
p2
sS'Created At'
p3
S'2015-11-28 22:05:04'
p4
s.(dp0
S'Text'
p1
S"I've collected 25,050 gold coins!  https://t.co/7PMMBCeWQJ #android, #androidgames, #gameinsight"
p2
sS'Created At'
p3
S'2015-11-28 22:05:05'
p4
s.(dp0
S'Text'
p1
S"I've harvested 1,266 of food!  https://t.co/njd5jj1ZW0 #android, #androidgames, #gameinsight"
p2
sS'Created At'
p3
S'2015-11-28 22:05:06'
p4
s.(dp0
S'Text'
p1
S"I've harvested 1,053 of food!  https://t.co/UUfWfcSEBb #android, #androidgames, #gameinsight"
p2
sS'Created At'
p3
S'2015-11-28 22:05:07'
p4
s.(dp0
S'Text'
p1
S"I've collected 12,006 gold coins!  https://t.co/vi8Zs5aXU5 #android, #androidgames, #gameinsight"
p2
sS'Created At'
p3
S'2015-11-28 22:05:07'
p4
s.(dp0
S'Text'
p1
S"I've collected 19,418 gold coins!  https://t.co/VBZnHdCBEc #android, #androidgames, #gameinsight"
p2
sS'Created At'
p3
S'2015-11-28 22:05:07'
p4
s.(dp0
S'Text'
p1
S'\xf0\x9f\x91\x8d\xf0\x9f\x91\x8d\xf0\x9f\x91\x8b#SmartWatches New U8 #Bluetooth Smart Wrist Watch Phone Mate For #Android;IOS\xe2\x80\xa6 https://t.co/e1olfngAVO https://t.co/jFhN0D603s'
p2
sS'Created At'
p3
S'2015-11-28 22:05:07'
p4
s.(dp0
S'Text'
p1
S'#ios 7 android download https://t.co/vlnvsMBgl8'
p2
sS'Created At'
p3
S'2015-11-28 22:05:08'
p4
s.(dp0
S'Text'
p1
S'I have Quarry on my island! Now my island is even more awesome!  https://t.co/kdfnq1BOXj #android, #androidgames, #gameinsight'
p2
sS'Created At'
p3
S'2015-11-28 22:05:08'
p4
s.(dp0
S'Text'
p1
S'RT @SportDictator: Klitschko vs Fury \n\nCOMPATIBLE ON iOS/Android/PC\n\nBrought to you by @NothingButPlays \n\nhttps://t.co/RxZBtamzp8\n\nRT &amp; SHA\xe2\x80\xa6'
p2
sS'Created At'
p3
S'2015-11-28 22:05:08'
p4
s.(dp0
S'Text'
p1
S'I have Mansion on my island! Now my island is even more awesome!  https://t.co/qLoVW6A2ck #android, #androidgames, #gameinsight'
p2
sS'Created At'
p3
S'2015-11-28 22:05:08'
p4
s.(dp0
S'Text'
p1
S"I've collected 435 gold coins!  https://t.co/6OSMOQTYWJ #android, #androidgames, #gameinsight"
p2
sS'Created At'
p3
S'2015-11-28 22:05:09'
p4
s.(dp0
S'Text'
p1
S"I have completed the quest 'Dino`s Rides' in the #Android game The Tribez.  https://t.co/cBvb2tHFEk #androidgames, #gameinsight"
p2
sS'Created At'
p3
S'2015-11-28 22:05:09'
p4
s.(dp0
S'Text'
p1
S"I've collected 15,142 gold coins!  https://t.co/GfrEPR5DvJ #android, #androidgames, #gameinsight"
p2
sS'Created At'
p3
S'2015-11-28 22:05:09'
p4
s.(dp0
S'Text'
p1
S"I've harvested 1,197 of food!  https://t.co/jGdKM04a9q #android, #androidgames, #gameinsight"
p2
sS'Created At'
p3
S'2015-11-28 22:05:09'
p4
s.(dp0
S'Text'
p1
S"I've collected 10,989 gold coins!  https://t.co/jGdKM04a9q #android, #androidgames, #gameinsight"
p2
sS'Created At'
p3
S'2015-11-28 22:05:09'
p4
s.(dp0
S'Text'
p1
S"Baby's reaction to Star Wars trailer. https://t.co/ggMI0C5qfS"
p2
sS'Created At'
p3
S'2015-11-28 22:05:09'
p4
s.(dp0
S'Text'
p1
S"I've collected 3,836 gold coins!  https://t.co/kdfnq1BOXj #android, #androidgames, #gameinsight"
p2
sS'Created At'
p3
S'2015-11-28 22:05:10'
p4
s.(dp0
S'Text'
p1
S"I've harvested 788 of food!  https://t.co/kdfnq1BOXj #android, #androidgames, #gameinsight"
p2
sS'Created At'
p3
S'2015-11-28 22:05:10'
p4
s.(dp0
S'Text'
p1
S'\xf0\x9f\x8c\x9f\xf0\x9f\x98\x9c FREE #APPLE &amp; #ANDROID APPS! Search For FootyDezigns, Add Your Own Images On Phone/Tablet Cases, Upload Images From Your Camera Roll \xf0\x9f\x98\x9c\xf0\x9f\x8c\x9f'
p2
sS'Created At'
p3
S'2015-11-28 22:05:10'
p4
s.(dp0
S'Text'
p1
S"I've harvested 651 of food!  https://t.co/hxWM9wCwxB #android, #androidgames, #gameinsight"
p2
sS'Created At'
p3
S'2015-11-28 22:05:10'
p4
s.(dp0
S'Text'
p1
S"I've collected 2,195 gold coins!  https://t.co/hxWM9wCwxB #android, #androidgames, #gameinsight"
p2
sS'Created At'
p3
S'2015-11-28 22:05:10'
p4
s.(dp0
S'Text'
p1
S'Embrace the cow lips  https://t.co/aNRkHTDD2s'
p2
sS'Created At'
p3
S'2015-11-28 22:05:11'
p4
s.(dp0
S'Text'
p1
S'RT @fivecalling: #PrayerTimes for today in #Singapore. Download PrayerTime.sg on iOS &amp; Android today! https://t.co/9RHEZdngog'
p2
sS'Created At'
p3
S'2015-11-28 22:05:11'
p4
s.(dp0
S'Text'
p1
S"I've collected 7,466 gold coins!  https://t.co/hKnhEadSyz #android, #androidgames, #gameinsight"
p2
sS'Created At'
p3
S'2015-11-28 22:05:12'
p4
s.(dp0
S'Text'
p1
S"I've harvested 1,046 of food!  https://t.co/g7gnUyTuku #android, #androidgames, #gameinsight"
p2
sS'Created At'
p3
S'2015-11-28 22:05:12'
p4
s.(dp0
S'Text'
p1
S'B\xc3\xadblia NVI Offline - Android Apps on Google Play https://t.co/WwiZoJeXMU'
p2
sS'Created At'
p3
S'2015-11-28 22:05:12'
p4
s.(dp0
S'Text'
p1
S"I've harvested 464 of food!  https://t.co/hKnhEadSyz #android, #androidgames, #gameinsight"
p2
sS'Created At'
p3
S'2015-11-28 22:05:13'
p4
s.(dp0
S'Text'
p1
S"The Kingdom's citizens are happy to have Lumberman\xe2\x80\x99s Hut! Try to build it too! https://t.co/0ZlH0ooA6P #android,#androidgames,#gameins..."
p2
sS'Created At'
p3
S'2015-11-28 22:05:13'
p4
s.(dp0
S'Text'
p1
S"RT @Dory: Why do android snapchats look like they're from the 1800's https://t.co/2XWU9JpTi5"
p2
sS'Created At'
p3
S'2015-11-28 22:05:15'
p4
s.(dp0
S'Text'
p1
S"I have completed the quest 'Plant 5 Wheat Pa...' in the #Android game The Tribez.  https://t.co/uJKH4R7lpk #androidgames, #gameinsight"
p2
sS'Created At'
p3
S'2015-11-28 22:05:16'
p4
s.(dp0
S'Text'
p1
S'New Verizon Samsung Galaxy S4 I545 Android SmartPhone Blue Arctic $209.99 via eBay https://t.co/crkhVjuRoJ #samsung #RT'
p2
sS'Created At'
p3
S'2015-11-28 22:05:16'
p4
s.(dp0
S'Text'
p1
S'Download Android vs 6 Marshmallow Launcher for all Android phones https://t.co/SaAgABCv5M'
p2
sS'Created At'
p3
S'2015-11-28 22:05:16'
p4
s.(dp0
S'Text'
p1
S"I've collected 10,800 gold coins!  https://t.co/kftcC0dFgs #android, #androidgames, #gameinsight"
p2
sS'Created At'
p3
S'2015-11-28 22:05:16'
p4
s.(dp0
S'Text'
p1
S"I've finished the Renowned Chef quest! Are you able to fulfil the same task? https://t.co/Sl1TCWcrw9 #android,#androidgames,#gameinsight"
p2
sS'Created At'
p3
S'2015-11-28 22:05:16'
p4
s.(dp0
S'Text'
p1
S"I got a new Sweet Tooth achievement in Maritime Kingdom! I've got gifts for all! https://t.co/NjRpq9VtCD #Android #gameinsight"
p2
sS'Created At'
p3
S'2015-11-28 22:05:18'
p4
s.(dp0
S'Text'
p1
S"I've collected 57,560 gold coins!  https://t.co/gFO2qYpJLJ #android, #androidgames, #gameinsight"
p2
sS'Created At'
p3
S'2015-11-28 22:05:18'
p4
s.(dp0
S'Text'
p1
S"I've harvested 920 of food!  https://t.co/qzu4NggaiM #android, #androidgames, #gameinsight"
p2
sS'Created At'
p3
S'2015-11-28 22:05:18'
p4
s.(dp0
S'Text'
p1
S"I've collected 15,700 gold coins!  https://t.co/oEITS77Gf0 #android, #androidgames, #gameinsight"
p2
sS'Created At'
p3
S'2015-11-28 22:05:18'
p4
s.(dp0
S'Text'
p1
S'@amrhsalleh Pigeons problems ? Install "Anti Pigeons PRO" FREE App Android \nhttps://t.co/sxihDBLxKL'
p2
sS'Created At'
p3
S'2015-11-28 22:05:19'
p4
s.(dp0
S'Text'
p1
S'Clean up weekend! Download this app to clean your #Android! https://t.co/LZtBFRj71Z https://t.co/2eK48fgmYT'
p2
sS'Created At'
p3
S'2015-11-28 22:05:19'
p4
s.(dp0
S'Text'
p1
S'Low Cost For Sony LT22i Xperia P Unlocked Android Smartphone NXT Series with 4 Inch ... - https://t.co/crSrYklJEG https://t.co/s8UQFkZzdf'
p2
sS'Created At'
p3
S'2015-11-28 22:05:19'
p4
s.(dp0
S'Text'
p1
S"I've collected 90,400 gold coins!  https://t.co/vqvYP8XjYw #android, #androidgames, #gameinsight"
p2
sS'Created At'
p3
S'2015-11-28 22:05:21'
p4
s.(dp0
S'Text'
p1
S'Android Developer https://t.co/iWaQ3J4izR #AndroidAppDevelopment'
p2
sS'Created At'
p3
S'2015-11-28 22:05:21'
p4
s.(dp0
S'Text'
p1
S"I've collected 12,002 gold coins!  https://t.co/6WJHl9x6jv #android, #androidgames, #gameinsight"
p2
sS'Created At'
p3
S'2015-11-28 22:05:21'
p4
s.(dp0
S'Text'
p1
S'Unlocked Samsung Galaxy Note 3 N9005 4G 32GB Android HD Smartphone 13MP Pink #6  via eBay https://t.co/hxqIeVGihk #android #RT'
p2
sS'Created At'
p3
S'2015-11-28 22:05:22'
p4
s.(dp0
S'Text'
p1
S'RT @SportDictator: Klitschko vs Fury \n\nCOMPATIBLE ON iOS/Android/PC\n\nBrought to you by @NothingButPlays \n\nhttps://t.co/RxZBtamzp8\n\nRT &amp; SHA\xe2\x80\xa6'
p2
sS'Created At'
p3
S'2015-11-28 22:05:22'
p4
s.(dp0
S'Text'
p1
S'Android Developer https://t.co/tl7Adn9RiS #AndroidAppDevelopment'
p2
sS'Created At'
p3
S'2015-11-28 22:05:22'
p4
s.(dp0
S'Text'
p1
S"I have completed the quest 'Jamboa`s jam rec...' in the #Android game The Tribez.  https://t.co/dwmhJyxqnn #androidgames, #gameinsight"
p2
sS'Created At'
p3
S'2015-11-28 22:05:22'
p4
s.(dp0
S'Text'
p1
S'Android Developer https://t.co/MqvgyurVId #AndroidAppDevelopment'
p2
sS'Created At'
p3
S'2015-11-28 22:05:23'
p4
s.(dp0
S'Text'
p1
S"I have completed the quest 'Tonic Coffee' in the #Android game The Tribez.  https://t.co/rdF1Ob12Mz #androidgames, #gameinsight"
p2
sS'Created At'
p3
S'2015-11-28 22:05:24'
p4
s.(dp0
S'Text'
p1
S"I've collected 78,596 gold coins!  https://t.co/4KBau1sYIv #android, #androidgames, #gameinsight"
p2
sS'Created At'
p3
S'2015-11-28 22:05:24'
p4
s.(dp0
S'Text'
p1
S'RT @icasnetwork2015: https://t.co/Ax1VqJuDEr Android M Coming soon - ICas @icasnetwork2015'
p2
sS'Created At'
p3
S'2015-11-28 22:05:25'
p4
s.(dp0
S'Text'
p1
S"Check out Gonogo's new Android app. You can win free stuff! @Gonogo Rater"
p2
sS'Created At'
p3
S'2015-11-28 22:05:26'
p4
s.(dp0
S'Text'
p1
S'I have Forester`s Hut on my island! Now my island is even more awesome!  https://t.co/OEhyOzStQs #android, #androidgames, #gameinsight'
p2
sS'Created At'
p3
S'2015-11-28 22:05:26'
p4
s.(dp0
S'Text'
p1
S"I've collected 3,840 gold coins!  https://t.co/ZJSnWCLIdi #android, #androidgames, #gameinsight"
p2
sS'Created At'
p3
S'2015-11-28 22:05:26'
p4
s.(dp0
S'Text'
p1
S'@Nooelieizi Pigeons problems ? Install "Anti Pigeons PRO" FREE App Android \nhttps://t.co/sxihDBLxKL'
p2
sS'Created At'
p3
S'2015-11-28 22:05:26'
p4
s.(dp0
S'Text'
p1
S"I have completed the quest 'Find 3 Soccer Ba...' in the #Android game The Tribez.  https://t.co/m80dId3pcL #androidgames, #gameinsight"
p2
sS'Created At'
p3
S'2015-11-28 22:05:27'
p4
s.(dp0
S'Text'
p1
S"I've collected 10,407 gold coins!  https://t.co/rAksWAv8R0 #android, #androidgames, #gameinsight"
p2
sS'Created At'
p3
S'2015-11-28 22:05:27'
p4
s.(dp0
S'Text'
p1
S'Database not getting created using SQLiteOpenHelper: I am a newbie in Android and am\xe2\x80\xa6 https://t.co/gwKp0Pg9Qr'
p2
sS'Created At'
p3
S'2015-11-28 22:05:27'
p4
s.(dp0
S'Text'
p1
S"I'm earning #mPLUSRewards in Grumpy Bears Android. https://t.co/0uIFbMAdEy"
p2
sS'Created At'
p3
S'2015-11-28 22:05:28'
p4
s.(dp0
S'Text'
p1
S"I'm now a D-List celebrity in Kim Kardashian: Hollywood. You can be famous too by playing on Android! https://t.co/P1Py5mxUoB"
p2
sS'Created At'
p3
S'2015-11-28 22:05:29'
p4
s.(dp0
S'Text'
p1
S'Bridge of Spies (2015) \n\n*iOS/Android/PC compatible*\n\nhttps://t.co/StiXhmLLbz\n\n*Problem viewing? Open in Safari/Chrome*\n\nRT &amp; Share!'
p2
sS'Created At'
p3
S'2015-11-28 22:05:29'
p4
s.(dp0
S'Text'
p1
S"I've collected 16,183 gold coins!  https://t.co/eBfek2ousj #android, #androidgames, #gameinsight"
p2
sS'Created At'
p3
S'2015-11-28 22:05:29'
p4
s.(dp0
S'Text'
p1
S"I have completed the quest 'Build 3 Forester...' in the #Android game The Tribez.  https://t.co/OEhyOzStQs #androidgames, #gameinsight"
p2
sS'Created At'
p3
S'2015-11-28 22:05:30'
p4
s.(dp0
S'Text'
p1
S"The ultra-secretive car startup just told us when we'll https://t.co/7To2FZHVoe #trending #News #Startups #HowTo #DIY #Android #HowTo #Apps"
p2
sS'Created At'
p3
S'2015-11-28 22:05:31'
p4
s.(dp0
S'Text'
p1
S'Notable Women from History https://t.co/458rJ4S0rW via @SlideShare'
p2
sS'Created At'
p3
S'2015-11-28 22:05:31'
p4
s.(dp0
S'Text'
p1
S'Tango, Chat App Unicorn, Lays Off 9% Of Staff Following https://t.co/ostaoMBdCt #trending #News #Startups #HowTo #DIY #Android #HowTo #Apps'
p2
sS'Created At'
p3
S'2015-11-28 22:05:31'
p4
s.(dp0
S'Text'
p1
S'I have gained level 7 in The Tribez and Castlez! Can you achieve it as well? https://t.co/It5qaysSTV #android,#androidgames,#gameinsight'
p2
sS'Created At'
p3
S'2015-11-28 22:05:31'
p4
s.(dp0
S'Text'
p1
S"RT @Dory: Why do android snapchats look like they're from the 1800's https://t.co/2XWU9JpTi5"
p2
sS'Created At'
p3
S'2015-11-28 22:05:31'
p4
s.(dp0
S'Text'
p1
S'I have Bridge on my island! Now my island is even more awesome!  https://t.co/YfcclBQy6Q #android, #androidgames, #gameinsight'
p2
sS'Created At'
p3
S'2015-11-28 22:05:32'
p4
s.(dp0
S'Text'
p1
S'I have Coffee Tree on my island! Now my island is even more awesome!  https://t.co/RoQRmvm9dS #android, #androidgames, #gameinsight'
p2
sS'Created At'
p3
S'2015-11-28 22:05:33'
p4
s.(dp0
S'Text'
p1
S'Westbound: Pioneer Adventure v1.7.6 Apk for android\nhttps://t.co/OLDZ0EAL1t'
p2
sS'Created At'
p3
S'2015-11-28 22:05:33'
p4
s.(dp0
S'Text'
p1
S'@SB1878EFC @janemcellin Android fine normally its just this fight lol'
p2
sS'Created At'
p3
S'2015-11-28 22:05:33'
p4
s.(dp0
S'Text'
p1
S'Enter to Win a Google Nexus 6P Android Smartphone @Androidheadline #android #nexus #nexus6p https://t.co/6bem9FhcvR'
p2
sS'Created At'
p3
S'2015-11-28 22:05:33'
p4
s.(dp0
S'Text'
p1
S"I'm earning #mPLUSRewards in Office Jerk - Android. https://t.co/Bf3dLlacUL"
p2
sS'Created At'
p3
S'2015-11-28 22:05:34'
p4
s.(dp0
S'Text'
p1
S"I've collected 8,127 gold coins!  https://t.co/sknOAv8Zvb #android, #androidgames, #gameinsight"
p2
sS'Created At'
p3
S'2015-11-28 22:05:34'
p4
s.(dp0
S'Text'
p1
S"I've harvested 1,852 of food!  https://t.co/7qF4YMLmKi #android, #androidgames, #gameinsight"
p2
sS'Created At'
p3
S'2015-11-28 22:05:34'
p4
s.(dp0
S'Text'
p1
S"I've collected 60,625 gold coins!  https://t.co/7qF4YMLmKi #android, #androidgames, #gameinsight"
p2
sS'Created At'
p3
S'2015-11-28 22:05:34'
p4
s.(dp0
S'Text'
p1
S"I've harvested 50 of food!  https://t.co/sknOAv8Zvb #android, #androidgames, #gameinsight"
p2
sS'Created At'
p3
S'2015-11-28 22:05:34'
p4
s.(dp0
S'Text'
p1
S"The Intel Atom-powered wearable looks like a traditional watch but doesn't have an exhorbitant p https://t.co/hzoFMTHNE4"
p2
sS'Created At'
p3
S'2015-11-28 22:05:34'
p4
s.(dp0
S'Text'
p1
S"I've finished the For Comfort and Coziness quest! Are you able to fulfil the same task? https://t.co/jG47R4ypsM #android,#androidgames..."
p2
sS'Created At'
p3
S'2015-11-28 22:05:34'
p4
s.(dp0
S'Text'
p1
S"I've collected 31,480 gold coins!  https://t.co/04RqRkjgrY #android, #androidgames, #gameinsight"
p2
sS'Created At'
p3
S'2015-11-28 22:05:35'
p4
s.(dp0
S'Text'
p1
S'How your chip card works https://t.co/GR7VAWblTR via the @FoxNews Android app'
p2
sS'Created At'
p3
S'2015-11-28 22:05:35'
p4
s.(dp0
S'Text'
p1
S'I finished the "Instability" task in Big Business Deluxe for Android! https://t.co/7D3MG2u5EQ #Gameinsight #Androidgames #Android'
p2
sS'Created At'
p3
S'2015-11-28 22:05:35'
p4
s.(dp0
S'Text'
p1
S"I've finished the Magical Pocket quest! Are you able to fulfil the same task? https://t.co/E3q4zdAuor #android,#androidgames,#gameinsight"
p2
sS'Created At'
p3
S'2015-11-28 22:05:36'
p4
s.(dp0
S'Text'
p1
S"I've collected 2,089 gold coins!  https://t.co/iYEL7SIs50 #android, #androidgames, #gameinsight"
p2
sS'Created At'
p3
S'2015-11-28 22:05:36'
p4
s.(dp0
S'Text'
p1
S'I finished the "Extinguish Fires" task in Big Business Deluxe for Android! https://t.co/VSAjFP9Vkw #Androidgames #Android #Gameinsight'
p2
sS'Created At'
p3
S'2015-11-28 22:05:36'
p4
s.(dp0
S'Text'
p1
S'NowPlaying : The Flux Project - Herbal Mind\n\ntune in https://t.co/oPfSd3gFNO\n #Android App https://t.co/mfYW7HEAJD\n#PeripouWebRadio'
p2
sS'Created At'
p3
S'2015-11-28 22:05:36'
p4
s.(dp0
S'Text'
p1
S"I've harvested 1,435 of food!  https://t.co/kftcC0vgF2 #android, #androidgames, #gameinsight"
p2
sS'Created At'
p3
S'2015-11-28 22:05:37'
p4
s.(dp0
S'Text'
p1
S'@piotrex43mc not compatible with my android tablet. Tox is not available/broken on android.'
p2
sS'Created At'
p3
S'2015-11-28 22:05:37'
p4
s.(dp0
S'Text'
p1
S"I've collected 77,200 gold coins!  https://t.co/vqvYP8XjYw #android, #androidgames, #gameinsight"
p2
sS'Created At'
p3
S'2015-11-28 22:05:37'
p4
s.(dp0
S'Text'
p1
S"I've collected 21,816 gold coins!  https://t.co/90NjIAHHXo #android, #androidgames, #gameinsight"
p2
sS'Created At'
p3
S'2015-11-28 22:05:39'
p4
s.(dp0
S'Text'
p1
S"I've finished the Visit Baron de Albert's castle quest! Are you able to fulfil the same task? https://t.co/8yZNYAsCHp #android,#androi..."
p2
sS'Created At'
p3
S'2015-11-28 22:05:39'
p4
s.(dp0
S'Text'
p1
S"I've collected 28,031 gold coins!  https://t.co/gFO2qYpJLJ #android, #androidgames, #gameinsight"
p2
sS'Created At'
p3
S'2015-11-28 22:05:39'
p4
s.(dp0
S'Text'
p1
S"Now I'm a Expert of the Small Village flight!\nhttps://t.co/QzzMXsecSP #android #androidgames #gameinsight"
p2
sS'Created At'
p3
S'2015-11-28 22:05:39'
p4
s.(dp0
S'Text'
p1
S'APPLE https://t.co/BWZS1jXdot'
p2
sS'Created At'
p3
S'2015-11-28 22:05:39'
p4
s.(dp0
S'Text'
p1
S'@mvryoushkv Pigeons problems ? Install "Anti Pigeons PRO" FREE App Android \nhttps://t.co/sxihDBLxKL'
p2
sS'Created At'
p3
S'2015-11-28 22:05:39'
p4
s.(dp0
S'Text'
p1
S"I've collected 52,080 gold coins!  https://t.co/XB3ItQG15J #android, #androidgames, #gameinsight"
p2
sS'Created At'
p3
S'2015-11-28 22:05:39'
p4
s.(dp0
S'Text'
p1
S'@CaseyNeistat when Will beame come Android?????'
p2
sS'Created At'
p3
S'2015-11-28 22:05:40'
p4
s.(dp0
S'Text'
p1
S"I've collected 14,030 gold coins!  https://t.co/6OSMOQTYWJ #android, #androidgames, #gameinsight"
p2
sS'Created At'
p3
S'2015-11-28 22:05:40'
p4
s.(dp0
S'Text'
p1
S"I've collected 4,725 gold coins!  https://t.co/hxWM9wCwxB #android, #androidgames, #gameinsight"
p2
sS'Created At'
p3
S'2015-11-28 22:05:41'
p4
s.(dp0
S'Text'
p1
S"I've collected 5,185 gold coins!  https://t.co/cXGEnDHd5H #android, #androidgames, #gameinsight"
p2
sS'Created At'
p3
S'2015-11-28 22:05:41'
p4
s.(dp0
S'Text'
p1
S"I've collected 21,475 gold coins!  https://t.co/FV4p5bxqUF #android, #androidgames, #gameinsight"
p2
sS'Created At'
p3
S'2015-11-28 22:05:41'
p4
s.(dp0
S'Text'
p1
S"I've harvested 1,476 of food!  https://t.co/4KBau1sYIv #android, #androidgames, #gameinsight"
p2
sS'Created At'
p3
S'2015-11-28 22:05:41'
p4
s.(dp0
S'Text'
p1
S"I've harvested 360 of food!  https://t.co/cXGEnDHd5H #android, #androidgames, #gameinsight"
p2
sS'Created At'
p3
S'2015-11-28 22:05:41'
p4
s.(dp0
S'Text'
p1
S'Castle Dungeon has been explored. Are you able to reach it too? https://t.co/ZjnHYweX8R #android,#androidgames,#gameinsight'
p2
sS'Created At'
p3
S'2015-11-28 22:05:42'
p4
s.(dp0
S'Text'
p1
S"I've collected 16,715 gold coins!  https://t.co/lNmQobgDf8 #android, #androidgames, #gameinsight"
p2
sS'Created At'
p3
S'2015-11-28 22:05:42'
p4
s.(dp0
S'Text'
p1
S"I've collected 20,400 gold coins!  https://t.co/7PMMBCeWQJ #android, #androidgames, #gameinsight"
p2
sS'Created At'
p3
S'2015-11-28 22:05:43'
p4
s.(dp0
S'Text'
p1
S"I've harvested 2,239 of food!  https://t.co/NCwmWbvgGQ #android, #androidgames, #gameinsight"
p2
sS'Created At'
p3
S'2015-11-28 22:05:43'
p4
s.(dp0
S'Text'
p1
S"I've collected 114,710 gold coins!  https://t.co/njd5jj1ZW0 #android, #androidgames, #gameinsight"
p2
sS'Created At'
p3
S'2015-11-28 22:05:44'
p4
s.(dp0
S'Text'
p1
S'RT @engrossingfacts: Google Maps calculates traffic by tracking how fast Android devices are moving on the road.'
p2
sS'Created At'
p3
S'2015-11-28 22:05:44'
p4
s.(dp0
S'Text'
p1
S"I've harvested 1,920 of food!  https://t.co/eBfek2ousj #android, #androidgames, #gameinsight"
p2
sS'Created At'
p3
S'2015-11-28 22:05:44'
p4
s.(dp0
S'Text'
p1
S'https://t.co/cQRuySWpAQ\nNZ &amp; AU need to get some guts and do more on whale butchering by Japan. Stop calling it research. @seashepherd'
p2
sS'Created At'
p3
S'2015-11-28 22:05:44'
p4
s.(dp0
S'Text'
p1
S'I have discovered a new territory in The Tribez! https://t.co/qhhV54HYDO  #android, #androidgames, #gameinsight'
p2
sS'Created At'
p3
S'2015-11-28 22:05:45'
p4
s.(dp0
S'Text'
p1
S"@vigglesupport @ViggleNation  I'm getting a lot of no players names in many of the football questions today  Android https://t.co/xIgB7wuxlc"
p2
sS'Created At'
p3
S'2015-11-28 22:05:44'
p4
s.(dp0
S'Text'
p1
S'I got a reward: Nourisher in BigBusiness Deluxe for Android https://t.co/ZgzQAN4TeB #Gameinsight #Androidgames #Android'
p2
sS'Created At'
p3
S'2015-11-28 22:05:45'
p4
s.(dp0
S'Text'
p1
S'I need your help on this level of #WhatsTheEmoji! Play on iOS or Android: https://t.co/Hv06193G4H https://t.co/pru0l1jKwY'
p2
sS'Created At'
p3
S'2015-11-28 22:05:45'
p4
s.(dp0
S'Text'
p1
S'@Laouni_Fabrice Pigeons problems ? Install "Anti Pigeons PRO" FREE App Android \nhttps://t.co/sxihDBLxKL'
p2
sS'Created At'
p3
S'2015-11-28 22:05:46'
p4
s.(dp0
S'Text'
p1
S"I've collected 1,336 gold coins!  https://t.co/JFls44Mq7h #android, #androidgames, #gameinsight"
p2
sS'Created At'
p3
S'2015-11-28 22:05:46'
p4
s.(dp0
S'Text'
p1
S"I've harvested 544 of food!  https://t.co/JFls44Mq7h #android, #androidgames, #gameinsight"
p2
sS'Created At'
p3
S'2015-11-28 22:05:46'
p4
s.(dp0
S'Text'
p1
S"I've collected 10,050 gold coins!  https://t.co/rkuVTkdgDC #android, #androidgames, #gameinsight"
p2
sS'Created At'
p3
S'2015-11-28 22:05:47'
p4
s.(dp0
S'Text'
p1
S"I've harvested 1,220 of food!  https://t.co/rkuVTkdgDC #android, #androidgames, #gameinsight"
p2
sS'Created At'
p3
S'2015-11-28 22:05:47'
p4
s.(dp0
S'Text'
p1
S'ChipVosler has earned 1 new trophy. https://t.co/I0ZL2kCWbY #Android #PS3 #PS4 #PSVita https://t.co/L9RxD0vmlJ'
p2
sS'Created At'
p3
S'2015-11-28 22:05:47'
p4
s.(dp0
S'Text'
p1
S"I have completed the quest 'A New Look' in the #Android game The Tribez.  https://t.co/XB3ItQG15J #androidgames, #gameinsight"
p2
sS'Created At'
p3
S'2015-11-28 22:05:47'
p4
s.(dp0
S'Text'
p1
S"I've harvested 266 of food!  https://t.co/ackMVUOMx8 #android, #androidgames, #gameinsight"
p2
sS'Created At'
p3
S'2015-11-28 22:05:47'
p4
s.(dp0
S'Text'
p1
S"I have completed the quest 'A New Look' in the #Android game The Tribez.  https://t.co/gRKEQqB7MZ #androidgames, #gameinsight"
p2
sS'Created At'
p3
S'2015-11-28 22:05:48'
p4
s.(dp0
S'Text'
p1
S"I have built a Pascal's Library in Cat Story https://t.co/gTuJG2jHf8 #Android, #AndroidGames, #GameInsight"
p2
sS'Created At'
p3
S'2015-11-28 22:05:48'
p4
s.(dp0
S'Text'
p1
S'RT @DeaundraBatts: #ToWhomItMayConcern by @TreySongz @DJDrama w/ @DatPiff for Android https://t.co/5hlCJenjvZ now playing \xf0\x9f\x8e\xa7\xf0\x9f\x8e\xb6\xf0\x9f\x8e\xb6\xf0\x9f\x8e\xb6\xf0\x9f\x8e\xb6 https://t.c\xe2\x80\xa6'
p2
sS'Created At'
p3
S'2015-11-28 22:05:48'
p4
s.(dp0
S'Text'
p1
S"I've harvested 70 of food!  https://t.co/qhhV54HYDO #android, #androidgames, #gameinsight"
p2
sS'Created At'
p3
S'2015-11-28 22:05:49'
p4
s.(dp0
S'Text'
p1
S"I've collected 20,769 gold coins!  https://t.co/qLoVW6A2ck #android, #androidgames, #gameinsight"
p2
sS'Created At'
p3
S'2015-11-28 22:05:49'
p4
s.(dp0
S'Text'
p1
S"I've collected 4,825 gold coins!  https://t.co/qhhV54HYDO #android, #androidgames, #gameinsight"
p2
sS'Created At'
p3
S'2015-11-28 22:05:49'
p4
s.(dp0
S'Text'
p1
S"I have built a Billy's Hut in Cat Story https://t.co/gTuJG2jHf8 #Android, #AndroidGames, #GameInsight"
p2
sS'Created At'
p3
S'2015-11-28 22:05:50'
p4
s.(dp0
S'Text'
p1
S"I've finished the Guards of the Kingdom quest! Are you able to fulfil the same task? https://t.co/Sl1TCVUQ7z #android,#androidgames,#g..."
p2
sS'Created At'
p3
S'2015-11-28 22:05:49'
p4
s.(dp0
S'Text'
p1
S"I've collected 10,575 gold coins!  https://t.co/KNuFSQbQGi #android, #androidgames, #gameinsight"
p2
sS'Created At'
p3
S'2015-11-28 22:05:50'
p4
s.(dp0
S'Text'
p1
S"I've harvested 342 of food!  https://t.co/x0jYJQEO5V #android, #androidgames, #gameinsight"
p2
sS'Created At'
p3
S'2015-11-28 22:05:51'
p4
s.(dp0
S'Text'
p1
S"I've collected 28,518 gold coins!  https://t.co/Q58ToNcn4n #android, #androidgames, #gameinsight"
p2
sS'Created At'
p3
S'2015-11-28 22:05:52'
p4
s.(dp0
S'Text'
p1
S"I've harvested 10 of food!  https://t.co/Q58ToNcn4n #android, #androidgames, #gameinsight"
p2
sS'Created At'
p3
S'2015-11-28 22:05:52'
p4
s.(dp0
S'Text'
p1
S"I'm earning #mPLUSRewards in Cut Da Deck Android. https://t.co/kTQbIhsPe5"
p2
sS'Created At'
p3
S'2015-11-28 22:05:52'
p4
s.(dp0
S'Text'
p1
S"I've harvested 4,812 of food!  https://t.co/k2d30pv4Gx #android, #androidgames, #gameinsight"
p2
sS'Created At'
p3
S'2015-11-28 22:05:53'
p4
s.(dp0
S'Text'
p1
S'I\'ve just finished "Dress for a Festival"! I\'d love for you to come and get a gift from me! https://t.co/xAdchIfnjM #android  #gameinsight'
p2
sS'Created At'
p3
S'2015-11-28 22:05:53'
p4
s.(dp0
S'Text'
p1
S'My Defence is at level 3! Are your citizens safe too? https://t.co/Sl1TCVUQ7z #android,#androidgames,#gameinsight'
p2
sS'Created At'
p3
S'2015-11-28 22:05:53'
p4
s.(dp0
S'Text'
p1
S"I've harvested 519 of food!  https://t.co/QIbyIQ5UDp #android, #androidgames, #gameinsight"
p2
sS'Created At'
p3
S'2015-11-28 22:05:53'
p4
s.(dp0
S'Text'
p1
S"I've finished the For Comfort and Coziness quest! Are you able to fulfil the same task? https://t.co/Nj7Ia3oE2A #android,#androidgames..."
p2
sS'Created At'
p3
S'2015-11-28 22:05:53'
p4
s.(dp0
S'Text'
p1
S'Starbucks brings you the fall drinks of https://t.co/NxDkDIrupI #autumn #fall #starbucks #News #Startups #HowTo #DIY #Android #HowTo #Apps'
p2
sS'Created At'
p3
S'2015-11-28 22:05:54'
p4
s.(dp0
S'Text'
p1
S'@__TLamar Pigeons problems ? Install "Anti Pigeons PRO" FREE App Android \nhttps://t.co/sxihDBLxKL'
p2
sS'Created At'
p3
S'2015-11-28 22:05:55'
p4
s.(dp0
S'Text'
p1
S"I've collected 285 gold coins!  https://t.co/x366uRhAXS #android, #androidgames, #gameinsight"
p2
sS'Created At'
p3
S'2015-11-28 22:05:55'
p4
s.(dp0
S'Text'
p1
S"I've harvested 544 of food!  https://t.co/x366uRhAXS #android, #androidgames, #gameinsight"
p2
sS'Created At'
p3
S'2015-11-28 22:05:55'
p4
s.(dp0
S'Text'
p1
S'I have Hotel on my island! Now my island is even more awesome!  https://t.co/cbjdCVmlb9 #android, #androidgames, #gameinsight'
p2
sS'Created At'
p3
S'2015-11-28 22:05:56'
p4
s.(dp0
S'Text'
p1
S"I've harvested 734 of food!  https://t.co/oRpqO1SpkB #android, #androidgames, #gameinsight"
p2
sS'Created At'
p3
S'2015-11-28 22:05:57'
p4
s.(dp0
S'Text'
p1
S"I've finished the Send 4 invitations quest! Are you able to fulfil the same task? https://t.co/bsxk2yZiRB #android,#androidgames,#game..."
p2
sS'Created At'
p3
S'2015-11-28 22:05:57'
p4
s.(dp0
S'Text'
p1
S'Check out this page! https://t.co/QkfXliarkT'
p2
sS'Created At'
p3
S'2015-11-28 22:05:57'
p4
s.(dp0
S'Text'
p1
S'RT @icasnetwork2015: https://t.co/Ax1VqJuDEr Android M Coming soon - ICas @icasnetwork2015'
p2
sS'Created At'
p3
S'2015-11-28 22:05:58'
p4
s.(dp0
S'Text'
p1
S"I've collected 12,260 gold coins!  https://t.co/Z3IChEfIo7 #android, #androidgames, #gameinsight"
p2
sS'Created At'
p3
S'2015-11-28 22:05:58'
p4
s.(dp0
S'Text'
p1
S"I've harvested 3,320 of food!  https://t.co/x9iiv36NGU #android, #androidgames, #gameinsight"
p2
sS'Created At'
p3
S'2015-11-28 22:05:58'
p4
s.(dp0
S'Text'
p1
S'RT Application for tracking expenses. This application is very simple. #Android #economy https://t.co/JSmDKgu6PK https://t.co/6wFj2hjuY2'
p2
sS'Created At'
p3
S'2015-11-28 22:05:58'
p4
s.(dp0
S'Text'
p1
S"I've collected 12,839 gold coins!  https://t.co/NCwmWbvgGQ #android, #androidgames, #gameinsight"
p2
sS'Created At'
p3
S'2015-11-28 22:05:59'
p4
s.(dp0
S'Text'
p1
S'I have gained level 13 in The Tribez and Castlez! Can you achieve it as well? https://t.co/QnkQCRLriw #android,#androidgames,#gameinsight'
p2
sS'Created At'
p3
S'2015-11-28 22:05:59'
p4
s.(dp0
S'Text'
p1
S'15 Wonders of the World in all, as well as a multitude of landmarks and de\xe2\x80\xa6 https://t.co/JCgLVWGbTV #Android #AndroidGames #gameinsight'
p2
sS'Created At'
p3
S'2015-11-28 22:06:00'
p4
s.(dp0
S'Text'
p1
S"The Kingdom's citizens are happy to have Lumberman\xe2\x80\x99s Hut! Try to build it too! https://t.co/9NZlAcdzub #android,#androidgames,#gameins..."
p2
sS'Created At'
p3
S'2015-11-28 22:06:00'
p4
s.(dp0
S'Text'
p1
S'I have Lumber Mill on my island! Now my island is even more awesome!  https://t.co/I9pCJvREcm #android, #androidgames, #gameinsight'
p2
sS'Created At'
p3
S'2015-11-28 22:06:01'
p4
s.(dp0
S'Text'
p1
S"I've collected 37,180 gold coins!  https://t.co/6OSMOQTYWJ #android, #androidgames, #gameinsight"
p2
sS'Created At'
p3
S'2015-11-28 22:06:01'
p4
s.(dp0
S'Text'
p1
S"RT @Dory: Why do android snapchats look like they're from the 1800's https://t.co/2XWU9JpTi5"
p2
sS'Created At'
p3
S'2015-11-28 22:06:01'
p4
s.(dp0
S'Text'
p1
S"I've finished the Urban Facades quest! Are you able to fulfil the same task? https://t.co/EM0O3JyKS1 #android,#androidgames,#gameinsight"
p2
sS'Created At'
p3
S'2015-11-28 22:06:02'
p4
s.(dp0
S'Text'
p1
S'#OneClickRoot: How-To Safely #Root #bl 100c Running #Android 4.2.2 https://t.co/SPlLWuuJT9'
p2
sS'Created At'
p3
S'2015-11-28 22:06:02'
p4
s.(dp0
S'Text'
p1
S"I've collected 46,240 gold coins!  https://t.co/rkuVTkdgDC #android, #androidgames, #gameinsight"
p2
sS'Created At'
p3
S'2015-11-28 22:06:02'
p4
s.(dp0
S'Text'
p1
S'#OneClickRoot: How-To Safely #Root #zte smarttab10 Running #Android 3.2.1 https://t.co/sIDUhJf1By'
p2
sS'Created At'
p3
S'2015-11-28 22:06:02'
p4
s.(dp0
S'Text'
p1
S'RT @lrnano: I liked a @YouTube video from @rootjunky https://t.co/p9OvIOOyzp DroidsGiving Android Giveaway win a Nexus 5x and much more'
p2
sS'Created At'
p3
S'2015-11-28 22:06:02'
p4
s.(dp0
S'Text'
p1
S"I've finished the Urban Facades quest! Are you able to fulfil the same task? https://t.co/nQmBzdc9jX #android,#androidgames,#gameinsight"
p2
sS'Created At'
p3
S'2015-11-28 22:06:02'
p4
s.(dp0
S'Text'
p1
S'#OneClickRoot: How-To Safely #Root #unknown auxus_ax04 Running #Android 4.4.2 https://t.co/B7vjHaGVWa'
p2
sS'Created At'
p3
S'2015-11-28 22:06:03'
p4
s.(dp0
S'Text'
p1
S'I have Cauldron on my island! Now my island is even more awesome!  https://t.co/2B1SVf4HcN #android, #androidgames, #gameinsight'
p2
sS'Created At'
p3
S'2015-11-28 22:06:03'
p4
s.(dp0
S'Text'
p1
S"I've harvested 462 of food!  https://t.co/D8n2LdFJVB #android, #androidgames, #gameinsight"
p2
sS'Created At'
p3
S'2015-11-28 22:06:03'
p4
s.(dp0
S'Text'
p1
S"I've collected 8,615 gold coins!  https://t.co/D8n2LdFJVB #android, #androidgames, #gameinsight"
p2
sS'Created At'
p3
S'2015-11-28 22:06:04'
p4
s.(dp0
S'Text'
p1
S"I've finished the Message Board quest! Are you able to fulfil the same task? https://t.co/L3J5aKqnzz #android,#androidgames,#gameinsight"
p2
sS'Created At'
p3
S'2015-11-28 22:06:05'
p4
s.(dp0
S'Text'
p1
S'RT @xdadevelopers: EVERYTHING should come with Android, including your car. Check out our guide to Android Auto https://t.co/VR14U647Gs htt\xe2\x80\xa6'
p2
sS'Created At'
p3
S'2015-11-28 22:06:05'
p4
s.(dp0
S'Text'
p1
S"I'm earning #mPLUSRewards in https://t.co/ALPJemiKty for Android. https://t.co/0btw9vGaHc @dictionarycom"
p2
sS'Created At'
p3
S'2015-11-28 22:06:05'
p4
s.(dp0
S'Text'
p1
S'Android App Development: Avail Maximum Benefits By Creating An App https://t.co/mT2cYFSEXv'
p2
sS'Created At'
p3
S'2015-11-28 22:06:05'
p4
s.(dp0
S'Text'
p1
S'Enter to Win "The Great Android Holiday Giveaway" from https://t.co/QJu8DApnsp https://t.co/tUoQDpO6gd ,  Over 25 #Android Prizes to be Won!'
p2
sS'Created At'
p3
S'2015-11-28 22:06:06'
p4
s.(dp0
S'Text'
p1
S'RT @i_ILoveAllah_i: Afaf (Chastity) #app\n\nNow for #free \n\n#Support six #languages\n\n#iPhone\nhttps://t.co/ndITxMDHgc \n\n#android\nhttps://t.co/\xe2\x80\xa6'
p2
sS'Created At'
p3
S'2015-11-28 22:06:06'
p4
s.(dp0
S'Text'
p1
S'Polaroid ZIP Mobile Printer w/ZINK Zero Ink Printing Technology - Compatible w/iOS &amp; Android Devices - Red:\xe2\x80\xa6 https://t.co/HsD3qTrsVE'
p2
sS'Created At'
p3
S'2015-11-28 22:06:07'
p4
s.(dp0
S'Text'
p1
S'Android app development- an on edge upwards of antagonism: hXIQY https://t.co/4lQaB2tYME'
p2
sS'Created At'
p3
S'2015-11-28 22:06:07'
p4
s.(dp0
S'Text'
p1
S'Do not you play with hamster life?\n\nAndroid\nhttps://t.co/wkFQEZmtTH\n\niOS\nhttps://t.co/ALECHgjm0q\n\n#hamsterlife_game'
p2
sS'Created At'
p3
S'2015-11-28 22:06:07'
p4
s.(dp0
S'Text'
p1
S"I have completed the quest 'Find Wax and pro...' in the #Android game The Tribez.  https://t.co/JNhDnB27fI #androidgames, #gameinsight"
p2
sS'Created At'
p3
S'2015-11-28 22:06:07'
p4
s.(dp0
S'Text'
p1
S'I have Quarry on my island! Now my island is even more awesome!  https://t.co/YMMulBgWPF #android, #androidgames, #gameinsight'
p2
sS'Created At'
p3
S'2015-11-28 22:06:07'
p4
s.(dp0
S'Text'
p1
S"I've collected 6,220 gold coins!  https://t.co/cGXQMGVgvS #android, #androidgames, #gameinsight"
p2
sS'Created At'
p3
S'2015-11-28 22:06:08'
p4
s.(dp0
S'Text'
p1
S"I've harvested 150 of food!  https://t.co/sknOAv8Zvb #android, #androidgames, #gameinsight"
p2
sS'Created At'
p3
S'2015-11-28 22:06:08'
p4
s.(dp0
S'Text'
p1
S'I have Cauldron on my island! Now my island is even more awesome!  https://t.co/qLoVW6A2ck #android, #androidgames, #gameinsight'
p2
sS'Created At'
p3
S'2015-11-28 22:06:08'
p4
s.(dp0
S'Text'
p1
S"I've harvested 715 of food!  https://t.co/cGXQMGVgvS #android, #androidgames, #gameinsight"
p2
sS'Created At'
p3
S'2015-11-28 22:06:09'
p4
s.(dp0
S'Text'
p1
S"RT @ModernHerbals: WANT to #WIN a Android Tablet &amp; 1 month's supply of #SynoVital? #comp #kprs Simply LIKE, Retweet &amp; Comment 'WIN' https:/\xe2\x80\xa6"
p2
sS'Created At'
p3
S'2015-11-28 22:06:10'
p4
s.(dp0
S'Text'
p1
S"I've collected 852 gold coins!  https://t.co/t1gwc9ynqR #android, #androidgames, #gameinsight"
p2
sS'Created At'
p3
S'2015-11-28 22:06:10'
p4
s.(dp0
S'Text'
p1
S"I have completed the quest 'Subdimensional S...' in the #Android game The Tribez.  https://t.co/KzSoZn3e7l #androidgames, #gameinsight"
p2
sS'Created At'
p3
S'2015-11-28 22:06:10'
p4
s.(dp0
S'Text'
p1
S'Check out the "Ultimate Holiday Tech Gift Guide 2015 \xe2\x80\x93 2016" Tons of #android and tech gift Ideas https://t.co/TizrU0kgdl #christmas #xmas'
p2
sS'Created At'
p3
S'2015-11-28 22:06:10'
p4
s.(dp0
S'Text'
p1
S"I'm now a B-List celebrity in Kim Kardashian: Hollywood. You can be famous too by playing on Android! https://t.co/uu2dWypCYW"
p2
sS'Created At'
p3
S'2015-11-28 22:06:11'
p4
s.(dp0
S'Text'
p1
S'Android App Development: Avail Maximum Benefits By Creating An App https://t.co/0vInBm6SDV'
p2
sS'Created At'
p3
S'2015-11-28 22:06:11'
p4
s.(dp0
S'Text'
p1
S'RT @nzrosie1: https://t.co/cQRuySWpAQ\nNZ &amp; AU need to get some guts and do more on whale butchering by Japan. Stop calling it research. @se\xe2\x80\xa6'
p2
sS'Created At'
p3
S'2015-11-28 22:06:12'
p4
s.(dp0
S'Text'
p1
S"RT @Dory: Why do android snapchats look like they're from the 1800's https://t.co/2XWU9JpTi5"
p2
sS'Created At'
p3
S'2015-11-28 22:06:13'
p4
s.(dp0
S'Text'
p1
S'Castle Dungeon has been explored. Are you able to reach it too? https://t.co/1te5sfxGUC #android,#androidgames,#gameinsight'
p2
sS'Created At'
p3
S'2015-11-28 22:06:13'
p4
s.(dp0
S'Text'
p1
S"I've collected 27,015 gold coins!  https://t.co/NCwmWbvgGQ #android, #androidgames, #gameinsight"
p2
sS'Created At'
p3
S'2015-11-28 22:06:14'
p4
s.(dp0
S'Text'
p1
S'#download app android in pc https://t.co/y1YCug3oyn'
p2
sS'Created At'
p3
S'2015-11-28 22:06:15'
p4
s.(dp0
S'Text'
p1
S"I've collected 25,274 gold coins!  https://t.co/p7QRqEevzP #android, #androidgames, #gameinsight"
p2
sS'Created At'
p3
S'2015-11-28 22:06:15'
p4
s.(dp0
S'Text'
p1
S'Android App Development: Avail Maximum Benefits By Creating An App https://t.co/Vs3OB0GwgI'
p2
sS'Created At'
p3
S'2015-11-28 22:06:15'
p4
s.(dp0
S'Text'
p1
S"I've harvested 200 of food!  https://t.co/t1gwc9ynqR #android, #androidgames, #gameinsight"
p2
sS'Created At'
p3
S'2015-11-28 22:06:16'
p4
s.(dp0
S'Text'
p1
S"RT @technicolia: The ultra-secretive car startup just told us when we'll https://t.co/7To2FZHVoe #trending #News #Startups #HowTo #DIY #And\xe2\x80\xa6"
p2
sS'Created At'
p3
S'2015-11-28 22:06:17'
p4
s.(dp0
S'Text'
p1
S"I've collected 32,323 gold coins!  https://t.co/yG0FDzHGEh #android, #androidgames, #gameinsight"
p2
sS'Created At'
p3
S'2015-11-28 22:06:17'
p4
s.(dp0
S'Text'
p1
S"I've collected 28,900 gold coins!  https://t.co/rkuVTkdgDC #android, #androidgames, #gameinsight"
p2
sS'Created At'
p3
S'2015-11-28 22:06:17'
p4
s.(dp0
S'Text'
p1
S'RT @zedomax: BIG Android Giveaway November is HERE!  10 Android PRIZES!!!\n#Android #Giveaway #Contest\nhttps://t.co/p2XzhfrVm3 https://t.co/\xe2\x80\xa6'
p2
sS'Created At'
p3
S'2015-11-28 22:06:17'
p4
s.(dp0
S'Text'
p1
S"I've harvested 178 of food!  https://t.co/StILpfjldG #android, #androidgames, #gameinsight"
p2
sS'Created At'
p3
S'2015-11-28 22:06:18'
p4
s.(dp0
S'Text'
p1
S"I've collected 29,165 gold coins!  https://t.co/D8n2LdFJVB #android, #androidgames, #gameinsight"
p2
sS'Created At'
p3
S'2015-11-28 22:06:18'
p4
s.(dp0
S'Text'
p1
S"I've harvested 1,185 of food!  https://t.co/D8n2LdFJVB #android, #androidgames, #gameinsight"
p2
sS'Created At'
p3
S'2015-11-28 22:06:18'
p4
s.(dp0
S'Text'
p1
S"I've harvested 1,023 of food!  https://t.co/uBqObq5VMq #android, #androidgames, #gameinsight"
p2
sS'Created At'
p3
S'2015-11-28 22:06:18'
p4
s.(dp0
S'Text'
p1
S"I've harvested 533 of food!  https://t.co/I9pCJvREcm #android, #androidgames, #gameinsight"
p2
sS'Created At'
p3
S'2015-11-28 22:06:18'
p4
s.(dp0
S'Text'
p1
S"I've collected 717 gold coins!  https://t.co/zt4I1n4rg0 #android, #androidgames, #gameinsight"
p2
sS'Created At'
p3
S'2015-11-28 22:06:18'
p4
s.(dp0
S'Text'
p1
S'RT @NBITLO: #HowTo Check Who Unfriended, Blocked, Deleted You from Facebook Friends List in Android, iPhone and PC... https://t.co/QtNP6QZj\xe2\x80\xa6'
p2
sS'Created At'
p3
S'2015-11-28 22:06:19'
p4
s.(dp0
S'Text'
p1
S"I've harvested 1,345 of food!  https://t.co/VLO7sEfHsf #android, #androidgames, #gameinsight"
p2
sS'Created At'
p3
S'2015-11-28 22:06:19'
p4
s.(dp0
S'Text'
p1
S"I've finished the Collect and Rule quest! Are you able to fulfil the same task? https://t.co/y3ideFuyo9 #android,#androidgames,#gamein..."
p2
sS'Created At'
p3
S'2015-11-28 22:06:20'
p4
s.(dp0
S'Text'
p1
S'Should i update to android M?'
p2
sS'Created At'
p3
S'2015-11-28 22:06:21'
p4
s.(dp0
S'Text'
p1
S"RT @Dory: Why do android snapchats look like they're from the 1800's https://t.co/2XWU9JpTi5"
p2
sS'Created At'
p3
S'2015-11-28 22:06:21'
p4
s.(dp0
S'Text'
p1
S"I've collected 410 gold coins!  https://t.co/I9pCJvREcm #android, #androidgames, #gameinsight"
p2
sS'Created At'
p3
S'2015-11-28 22:06:21'
p4
s.(dp0
S'Text'
p1
S"I've harvested 1,290 of food!  https://t.co/n7huoBcDZV #android, #androidgames, #gameinsight"
p2
sS'Created At'
p3
S'2015-11-28 22:06:21'
p4
s.(dp0
S'Text'
p1
S'#FotoRus Android https://t.co/Caxy3izKba'
p2
sS'Created At'
p3
S'2015-11-28 22:06:21'
p4
s.(dp0
S'Text'
p1
S"I've finished the Harvest Season quest! Are you able to fulfil the same task? https://t.co/OEzjLQsEcT #android,#androidgames,#gameinsight"
p2
sS'Created At'
p3
S'2015-11-28 22:06:21'
p4
s.(dp0
S'Text'
p1
S"I've finished the Send 5 invitations quest! Are you able to fulfil the same task? https://t.co/bsxk2yZiRB #android,#androidgames,#game..."
p2
sS'Created At'
p3
S'2015-11-28 22:06:22'
p4
s.(dp0
S'Text'
p1
S"I've collected 21,825 gold coins!  https://t.co/x366uRhAXS #android, #androidgames, #gameinsight"
p2
sS'Created At'
p3
S'2015-11-28 22:06:22'
p4
s.(dp0
S'Text'
p1
S"I've harvested 1,320 of food!  https://t.co/4KBau1sYIv #android, #androidgames, #gameinsight"
p2
sS'Created At'
p3
S'2015-11-28 22:06:23'
p4
s.(dp0
S'Text'
p1
S'I found Barrel of Cider in The Tribez &amp; Castlez for #Android. https://t.co/1Vf0jo4tF4 #androidgames,#gameinsight'
p2
sS'Created At'
p3
S'2015-11-28 22:06:23'
p4
s.(dp0
S'Text'
p1
S"I've harvested 297 of food!  https://t.co/udapYta55Z #android, #androidgames, #gameinsight"
p2
sS'Created At'
p3
S'2015-11-28 22:06:23'
p4
s.(dp0
S'Text'
p1
S"I've collected 1,540 gold coins!  https://t.co/udapYta55Z #android, #androidgames, #gameinsight"
p2
sS'Created At'
p3
S'2015-11-28 22:06:24'
p4
s.(dp0
S'Text'
p1
S'I have gained level 7 in The Tribez and Castlez! Can you achieve it as well? https://t.co/L3J5aKqnzz #android,#androidgames,#gameinsight'
p2
sS'Created At'
p3
S'2015-11-28 22:06:25'
p4
s.(dp0
S'Text'
p1
S"I've harvested 819 of food!  https://t.co/uJKH4R7lpk #android, #androidgames, #gameinsight"
p2
sS'Created At'
p3
S'2015-11-28 22:06:25'
p4
s.(dp0
S'Text'
p1
S'Android App Development: Avail Maximum Benefits By Creating An App https://t.co/iWD5hcQvSC'
p2
sS'Created At'
p3
S'2015-11-28 22:06:27'
p4
s.(dp0
S'Text'
p1
S'Enter to Win a Google Nexus 6P Android Smartphone @Androidheadline #android #nexus #nexus6p https://t.co/N9EeS83rIQ'
p2
sS'Created At'
p3
S'2015-11-28 22:06:27'
p4
s.(dp0
S'Text'
p1
S"I have completed the quest 'Hatcheries Full ...' in the #Android game The Tribez.  https://t.co/OEhyOzStQs #androidgames, #gameinsight"
p2
sS'Created At'
p3
S'2015-11-28 22:06:27'
p4
s.(dp0
S'Text'
p1
S"I've collected 800 gold coins!  https://t.co/WParoM18FK #android, #androidgames, #gameinsight"
p2
sS'Created At'
p3
S'2015-11-28 22:06:28'
p4
s.(dp0
S'Text'
p1
S'I have Cozy House on my island! Now my island is even more awesome!  https://t.co/WParoM18FK #android, #androidgames, #gameinsight'
p2
sS'Created At'
p3
S'2015-11-28 22:06:28'
p4
s.(dp0
S'Text'
p1
S"I've harvested 1,258 of food!  https://t.co/90NjIAHHXo #android, #androidgames, #gameinsight"
p2
sS'Created At'
p3
S'2015-11-28 22:06:28'
p4
s.(dp0
S'Text'
p1
S"I've harvested 809 of food!  https://t.co/WParoM18FK #android, #androidgames, #gameinsight"
p2
sS'Created At'
p3
S'2015-11-28 22:06:28'
p4
s.(dp0
S'Text'
p1
S'RT @icasnetwork2015: https://t.co/Ax1VqJuDEr Android M Coming soon - ICas @icasnetwork2015'
p2
sS'Created At'
p3
S'2015-11-28 22:06:31'
p4
s.(dp0
S'Text'
p1
S"I've collected 1,070 gold coins!  https://t.co/2gsCZkjQvt #android, #androidgames, #gameinsight"
p2
sS'Created At'
p3
S'2015-11-28 22:06:31'
p4
s.(dp0
S'Text'
p1
S'I have Warehouse on my island! Now my island is even more awesome!  https://t.co/AvXwIHRz6s #android, #androidgames, #gameinsight'
p2
sS'Created At'
p3
S'2015-11-28 22:06:31'
p4
s.(dp0
S'Text'
p1
S'@ukpartyplace LUV4LUV UKG VOL.1 Mixed by @DJPyro Android https://t.co/BBQH7P0xcg / Iphone https://t.co/W2DbdU5Hif https://t.co/QWaUehRUks'
p2
sS'Created At'
p3
S'2015-11-28 22:06:31'
p4
s.(dp0
S'Text'
p1
S"I've harvested 1,030 of food!  https://t.co/ij0weXDi7V #android, #androidgames, #gameinsight"
p2
sS'Created At'
p3
S'2015-11-28 22:06:31'
p4
s.(dp0
S'Text'
p1
S"I've finished the Eternal Renovations quest! Are you able to fulfil the same task? https://t.co/E3q4zdAuor #android,#androidgames,#gam..."
p2
sS'Created At'
p3
S'2015-11-28 22:06:31'
p4
s.(dp0
S'Text'
p1
S"I'm earning #mPLUSRewards in Office Zombie - Android. https://t.co/msDkJnaWzL"
p2
sS'Created At'
p3
S'2015-11-28 22:06:32'
p4
s.(dp0
S'Text'
p1
S"I've collected 2,041 gold coins!  https://t.co/m18UuLYZHU #android, #androidgames, #gameinsight"
p2
sS'Created At'
p3
S'2015-11-28 22:06:32'
p4
s.(dp0
S'Text'
p1
S"I've harvested 350 of food!  https://t.co/m18UuLYZHU #android, #androidgames, #gameinsight"
p2
sS'Created At'
p3
S'2015-11-28 22:06:32'
p4
s.(dp0
S'Text'
p1
S"I've collected 28,640 gold coins!  https://t.co/rkuVTkdgDC #android, #androidgames, #gameinsight"
p2
sS'Created At'
p3
S'2015-11-28 22:06:32'
p4
s.(dp0
S'Text'
p1
S'SpongeBob Moves In: SpongeBob Moves In by Nickelodeon 138% Sales Rank in Appstore for Android: 31 (was 74\xe2\x80\xa6 https://t.co/1vhVzy8iCb'
p2
sS'Created At'
p3
S'2015-11-28 22:06:32'
p4
s.(dp0
S'Text'
p1
S"I'm earning #mPLUSRewards in Roll Da Dice Android. https://t.co/P0SjvZtBL1"
p2
sS'Created At'
p3
S'2015-11-28 22:06:32'
p4
s.(dp0
S'Text'
p1
S"I've harvested 266 of food!  https://t.co/qhhV54HYDO #android, #androidgames, #gameinsight"
p2
sS'Created At'
p3
S'2015-11-28 22:06:34'
p4
s.(dp0
S'Text'
p1
S'I have Forester`s Hut on my island! Now my island is even more awesome!  https://t.co/zt4I1n4rg0 #android, #androidgames, #gameinsight'
p2
sS'Created At'
p3
S'2015-11-28 22:06:37'
p4
s.(dp0
S'Text'
p1
S"I've finished the Bartolomeo's Orders quest! Are you able to fulfil the same task? https://t.co/Jk0WbSuC5h #android,#androidgames,#gam..."
p2
sS'Created At'
p3
S'2015-11-28 22:06:38'
p4
s.(dp0
S'Text'
p1
S"I've collected 22,605 gold coins!  https://t.co/K8mQy32dG3 #android, #androidgames, #gameinsight"
p2
sS'Created At'
p3
S'2015-11-28 22:06:38'
p4
s.(dp0
S'Text'
p1
S"I've harvested 494 of food!  https://t.co/K8mQy2KCht #android, #androidgames, #gameinsight"
p2
sS'Created At'
p3
S'2015-11-28 22:06:39'
p4
s.(dp0
S'Text'
p1
S'RT BetweenLesBoxes: https://t.co/fvvNXze3hC #funny #lol #androidgames #android https://t.co/lEKiy7vODm'
p2
sS'Created At'
p3
S'2015-11-28 22:06:39'
p4
s.(dp0
S'Text'
p1
S'Android https://t.co/hVPOEnbnqP'
p2
sS'Created At'
p3
S'2015-11-28 22:06:39'
p4
s.(dp0
S'Text'
p1
S'RT @SportDictator: Klitschko vs Fury \n\nCOMPATIBLE ON iOS/Android/PC\n\nBrought to you by @NothingButPlays \n\nhttps://t.co/RxZBtamzp8\n\nRT &amp; SHA\xe2\x80\xa6'
p2
sS'Created At'
p3
S'2015-11-28 22:06:40'
p4
s.(dp0
S'Text'
p1
S'I have just reached 190 level in Mystery Manor! https://t.co/2y2KbzGj8q #android #androidgames #gameinsight'
p2
sS'Created At'
p3
S'2015-11-28 22:06:40'
p4
s.(dp0
S'Text'
p1
S"I've collected 10,267 gold coins!  https://t.co/cbjdCVmlb9 #android, #androidgames, #gameinsight"
p2
sS'Created At'
p3
S'2015-11-28 22:06:42'
p4
s.(dp0
S'Text'
p1
S'RT https://t.co/0Fl5casR1v Kickflip: The Kickflip Android SDK manages all the plumbing for your cloud video applicat... \xe2\x80\xa6'
p2
sS'Created At'
p3
S'2015-11-28 22:06:43'
p4
s.(dp0
S'Text'
p1
S"I'm earning #mPLUSRewards in Light Da Fuse Android. https://t.co/CGXZTWCgK5"
p2
sS'Created At'
p3
S'2015-11-28 22:06:43'
p4
s.(dp0
S'Text'
p1
S'RT https://t.co/HFzSXfEK6t Kickflip: The Kickflip Android SDK manages all the plumbing for your cloud video application. With... \xe2\x80\xa6'
p2
sS'Created At'
p3
S'2015-11-28 22:06:43'
p4
s.(dp0
S'Text'
p1
S'I have House on my island! Now my island is even more awesome!  https://t.co/Z3IChEfIo7 #android, #androidgames, #gameinsight'
p2
sS'Created At'
p3
S'2015-11-28 22:06:43'
p4
s.(dp0
S'Text'
p1
S'I have Dino`s Lair on my island! Now my island is even more awesome!  https://t.co/Z3IChEfIo7 #android, #androidgames, #gameinsight'
p2
sS'Created At'
p3
S'2015-11-28 22:06:43'
p4
s.(dp0
S'Text'
p1
S"I'm earning #mPLUSRewards in Guess Da Number Android. https://t.co/fBk2IjJNn8"
p2
sS'Created At'
p3
S'2015-11-28 22:06:43'
p4
s.(dp0
S'Text'
p1
S"I've collected 1,549 gold coins!  https://t.co/lqHEoYiDOz #android, #androidgames, #gameinsight"
p2
sS'Created At'
p3
S'2015-11-28 22:06:43'
p4
s.(dp0
S'Text'
p1
S"I've collected 133,811 gold coins!  https://t.co/0hDELU39sE #android, #androidgames, #gameinsight"
p2
sS'Created At'
p3
S'2015-11-28 22:06:44'
p4
s.(dp0
S'Text'
p1
S"I've collected 43,530 gold coins!  https://t.co/x366uRhAXS #android, #androidgames, #gameinsight"
p2
sS'Created At'
p3
S'2015-11-28 22:06:45'
p4
s.(dp0
S'Text'
p1
S"I've collected 190 gold coins!  https://t.co/AtLHegRBT3 #android, #androidgames, #gameinsight"
p2
sS'Created At'
p3
S'2015-11-28 22:06:45'
p4
s.(dp0
S'Text'
p1
S"I've harvested 920 of food!  https://t.co/RlWPvLuaOv #android, #androidgames, #gameinsight"
p2
sS'Created At'
p3
S'2015-11-28 22:06:45'
p4
s.(dp0
S'Text'
p1
S'BEST DEALS : https://t.co/73QZoaJpJH #7543 LG G2 D801 - 32GB - (GSM Unlocked) Android Smartphone Black / White (B) https://t.co/FhzqCXK62j'
p2
sS'Created At'
p3
S'2015-11-28 22:06:46'
p4
s.(dp0
S'Text'
p1
S"I've collected 10,800 gold coins!  https://t.co/RlWPvLuaOv #android, #androidgames, #gameinsight"
p2
sS'Created At'
p3
S'2015-11-28 22:06:46'
p4
s.(dp0
S'Text'
p1
S"I've harvested 330 of food!  https://t.co/AtLHegRBT3 #android, #androidgames, #gameinsight"
p2
sS'Created At'
p3
S'2015-11-28 22:06:46'
p4
s.(dp0
S'Text'
p1
S"I've finished the Guardian of Crops quest! Are you able to fulfil the same task? https://t.co/y3ideFuyo9 #android,#androidgames,#gamei..."
p2
sS'Created At'
p3
S'2015-11-28 22:06:46'
p4
s.(dp0
S'Text'
p1
S"I've harvested 1,080 of food!  https://t.co/JFls44Mq7h #android, #androidgames, #gameinsight"
p2
sS'Created At'
p3
S'2015-11-28 22:06:47'
p4
s.(dp0
S'Text'
p1
S"I've collected 4,200 gold coins!  https://t.co/JFls44Mq7h #android, #androidgames, #gameinsight"
p2
sS'Created At'
p3
S'2015-11-28 22:06:47'
p4
s.(dp0
S'Text'
p1
S"I've harvested 42 of food!  https://t.co/Q58ToNcn4n #android, #androidgames, #gameinsight"
p2
sS'Created At'
p3
S'2015-11-28 22:06:47'
p4
s.(dp0
S'Text'
p1
S'I have School on my island! Now my island is even more awesome!  https://t.co/c6oFyrAL3V #android, #androidgames, #gameinsight'
p2
sS'Created At'
p3
S'2015-11-28 22:06:47'
p4
s.(dp0
S'Text'
p1
S'#10BillionWives \nI married313,648,168,888Wives!\n\niOS: https://t.co/umOCW0GXBt\nAndroid: https://t.co/Rz0MVVKMm7 https://t.co/xDPrBkcwyb'
p2
sS'Created At'
p3
S'2015-11-28 22:06:47'
p4
s.(dp0
S'Text'
p1
S'LG G4 Android 6.0 Marshmallow Update Rolling Out Now in Europe: The official Android 6.0 Marshmallow ... https://t.co/yj8aMLg8sD #android'
p2
sS'Created At'
p3
S'2015-11-28 22:06:48'
p4
s.(dp0
S'Text'
p1
S'RT @tinatbh: No offense but android snapchats look like photographs from the American civil war'
p2
sS'Created At'
p3
S'2015-11-28 22:06:48'
p4
s.(dp0
S'Text'
p1
S"I've finished the Send 6 invitations quest! Are you able to fulfil the same task? https://t.co/bsxk2yZiRB #android,#androidgames,#game..."
p2
sS'Created At'
p3
S'2015-11-28 22:06:49'
p4
s.(dp0
S'Text'
p1
S"Adobe: Thanksgiving and Black Friday online sales up 18%, iOS numbers almost triple Android's: The di... https://t.co/ScQxrNXD15 #android"
p2
sS'Created At'
p3
S'2015-11-28 22:06:49'
p4
s.(dp0
S'Text'
p1
S"I have completed the quest 'The prophecies a...' in the #Android game The Tribez.  https://t.co/iYEL7SIs50 #androidgames, #gameinsight"
p2
sS'Created At'
p3
S'2015-11-28 22:06:49'
p4
s.(dp0
S'Text'
p1
S"I've finished the Military Needs quest! Are you able to fulfil the same task? https://t.co/OMQuxVBelL #android,#androidgames,#gameinsight"
p2
sS'Created At'
p3
S'2015-11-28 22:06:49'
p4
s.(dp0
S'Text'
p1
S"I'm earning #mPLUSRewards in Light Da Fuse Android. https://t.co/6ubCzcJyOm"
p2
sS'Created At'
p3
S'2015-11-28 22:06:49'
p4
s.(dp0
S'Text'
p1
S"This is some insecure shit, I'll tell you what. #IronBowl2015  https://t.co/X1FNVjU8kN"
p2
sS'Created At'
p3
S'2015-11-28 22:06:50'
p4
s.(dp0
S'Text'
p1
S"@stevebhoy don't like boxy but hve you got a link for streaming on pc for my pal can't be arsed giving him my android box"
p2
sS'Created At'
p3
S'2015-11-28 22:06:50'
p4
s.(dp0
S'Text'
p1
S'Top 5 Best @AndroidDev App Development Frameworks\nhttps://t.co/WrfNDjTP7a\n#Android #Apps #Development #Frameworks https://t.co/ICcYXXQ44K'
p2
sS'Created At'
p3
S'2015-11-28 22:06:50'
p4
s.(dp0
S'Text'
p1
S"I've collected 5,951 gold coins!  https://t.co/StILpfjldG #android, #androidgames, #gameinsight"
p2
sS'Created At'
p3
S'2015-11-28 22:06:50'
p4
s.(dp0
S'Text'
p1
S"I've finished the Send 9 invitations quest! Are you able to fulfil the same task? https://t.co/L7grUkzw68 #android,#androidgames,#game..."
p2
sS'Created At'
p3
S'2015-11-28 22:06:51'
p4
s.(dp0
S'Text'
p1
S"I've finished the First Steps quest! Are you able to fulfil the same task? https://t.co/mZTepBEx2Q #android,#androidgames,#gameinsight"
p2
sS'Created At'
p3
S'2015-11-28 22:06:51'
p4
s.(dp0
S'Text'
p1
S"I have completed the quest 'The summer holid...' in the #Android game The Tribez.  https://t.co/JNhDnB27fI #androidgames, #gameinsight"
p2
sS'Created At'
p3
S'2015-11-28 22:06:51'
p4
s.(dp0
S'Text'
p1
S"I've collected 14,580 gold coins!  https://t.co/ij0weXDi7V #android, #androidgames, #gameinsight"
p2
sS'Created At'
p3
S'2015-11-28 22:06:51'
p4
s.(dp0
S'Text'
p1
S"I've collected 2,566 gold coins!  https://t.co/uJKH4R7lpk #android, #androidgames, #gameinsight"
p2
sS'Created At'
p3
S'2015-11-28 22:06:51'
p4
s.(dp0
S'Text'
p1
S'Castle Dungeon has been explored. Are you able to reach it too? https://t.co/AmYg0i4yc8 #android,#androidgames,#gameinsight'
p2
sS'Created At'
p3
S'2015-11-28 22:06:52'
p4
s.(dp0
S'Text'
p1
S'Just to add expense, just look at the statistics on expenditures. #Android #economy https://t.co/JSmDKgu6PK https://t.co/RzS6bxmujK'
p2
sS'Created At'
p3
S'2015-11-28 22:06:53'
p4
s.(dp0
S'Text'
p1
S'Android App Development: Avail Maximum Benefits By Creating An App https://t.co/MeY9xD9Wxk'
p2
sS'Created At'
p3
S'2015-11-28 22:06:53'
p4
s.(dp0
S'Text'
p1
S'#10BillionWives \nI married7,111,191,939,276,472Wives!\n\niOS: https://t.co/q2Vd2lRW5i\nAndroid: https://t.co/BTUvh77jff https://t.co/j6ellgcJbr'
p2
sS'Created At'
p3
S'2015-11-28 22:06:53'
p4
s.(dp0
S'Text'
p1
S"I've harvested 1,240 of food!  https://t.co/7PMMBCeWQJ #android, #androidgames, #gameinsight"
p2
sS'Created At'
p3
S'2015-11-28 22:06:53'
p4
s.(dp0
S'Text'
p1
S'Android App Development: Avail Maximum Benefits By Creating An App https://t.co/RKPBp48S0D'
p2
sS'Created At'
p3
S'2015-11-28 22:06:53'
p4
s.(dp0
S'Text'
p1
S"I've collected 47,100 gold coins!  https://t.co/rkuVTkdgDC #android, #androidgames, #gameinsight"
p2
sS'Created At'
p3
S'2015-11-28 22:06:54'
p4
s.(dp0
S'Text'
p1
S"I've collected 8,700 gold coins!  https://t.co/YfcclBQy6Q #android, #androidgames, #gameinsight"
p2
sS'Created At'
p3
S'2015-11-28 22:06:54'
p4
s.(dp0
S'Text'
p1
S'Android App Development: Avail Maximum Benefits By Creating An App https://t.co/gbL5oYPRip'
p2
sS'Created At'
p3
S'2015-11-28 22:06:54'
p4
s.(dp0
S'Text'
p1
S"I've harvested 280 of food!  https://t.co/c6oFyrAL3V #android, #androidgames, #gameinsight"
p2
sS'Created At'
p3
S'2015-11-28 22:06:54'
p4
s.(dp0
S'Text'
p1
S'Android - #1: Terraria Cheats Codes Hacks  https://t.co/gre4Jci36f'
p2
sS'Created At'
p3
S'2015-11-28 22:06:54'
p4
s.(dp0
S'Text'
p1
S'NEW Samsung Galaxy S4 GT-I9500 (Unlocked) 16GB 3G GPS Smartphone ... - https://t.co/0I1aMmpLOs | \n#Android https://t.co/iuQn0legz6'
p2
sS'Created At'
p3
S'2015-11-28 22:06:54'
p4
s.(dp0
S'Text'
p1
S"I've collected 1,111 gold coins!  https://t.co/c6oFyrAL3V #android, #androidgames, #gameinsight"
p2
sS'Created At'
p3
S'2015-11-28 22:06:54'
p4
s.(dp0
S'Text'
p1
S'\xe2\x9d\xa4\xe2\x9d\x9e MICROSOFT WEDGE MOBILE KEYBOARD CLAVIER FOR WINDOWS, iPAD. AND ANDROID TABLETS https://t.co/ajKRjTqA5W https://t.co/4Z04jPMeFV'
p2
sS'Created At'
p3
S'2015-11-28 22:06:55'
p4
s.(dp0
S'Text'
p1
S"I've harvested 873 of food!  https://t.co/YfcclBQy6Q #android, #androidgames, #gameinsight"
p2
sS'Created At'
p3
S'2015-11-28 22:06:55'
p4
s.(dp0
S'Text'
p1
S'Android App Development: Avail Maximum Benefits By Creating An App https://t.co/n1wmxD1RcA'
p2
sS'Created At'
p3
S'2015-11-28 22:06:55'
p4
s.(dp0
S'Text'
p1
S"I got a new Sweet Tooth achievement in Maritime Kingdom! I've got gifts for all! https://t.co/lXfYLsMLfT #Android #gameinsight"
p2
sS'Created At'
p3
S'2015-11-28 22:06:55'
p4
s.(dp0
S'Text'
p1
S"I've collected 33,185 gold coins!  https://t.co/hxWM9wCwxB #android, #androidgames, #gameinsight"
p2
sS'Created At'
p3
S'2015-11-28 22:06:56'
p4
s.(dp0
S'Text'
p1
S'Nice to meet Jonathan Night! Look for the new acquaintances in the streets of London! https://t.co/8w9mX20Evw #Android #AndroidGames'
p2
sS'Created At'
p3
S'2015-11-28 22:06:56'
p4
s.(dp0
S'Text'
p1
S'Users rehearse disturbed ingressive android 4.2: EmgwzHUR'
p2
sS'Created At'
p3
S'2015-11-28 22:06:56'
p4
s.(dp0
S'Text'
p1
S"I've harvested 375 of food!  https://t.co/eInmvES26f #android, #androidgames, #gameinsight"
p2
sS'Created At'
p3
S'2015-11-28 22:06:56'
p4
s.(dp0
S'Text'
p1
S"I've harvested 94 of food!  https://t.co/enFqRcIzGi #android, #androidgames, #gameinsight"
p2
sS'Created At'
p3
S'2015-11-28 22:06:57'
p4
s.(dp0
S'Text'
p1
S"I have Coins of Good Fortune, and it's much easier to play now! https://t.co/8w9mX20Evw #Android #AndroidGames #GameInsight"
p2
sS'Created At'
p3
S'2015-11-28 22:06:58'
p4
s.(dp0
S'Text'
p1
S"I have completed the quest 'Fulfill 5 wishes...' in the #Android game The Tribez.  https://t.co/8niQUOZ0nz #androidgames, #gameinsight"
p2
sS'Created At'
p3
S'2015-11-28 22:06:59'
p4
s.(dp0
S'Text'
p1
S"I've finished the More Subjects quest! Are you able to fulfil the same task? https://t.co/AOcudnTBXk #android,#androidgames,#gameinsight"
p2
sS'Created At'
p3
S'2015-11-28 22:06:59'
p4
s.(dp0
S'Text'
p1
S'Android App Development: Avail Maximum Benefits By Creating An App https://t.co/AKHMnlfqSQ'
p2
sS'Created At'
p3
S'2015-11-28 22:06:59'
p4
s.(dp0
S'Text'
p1
S'My Defence is at level 9! Are your citizens safe too? https://t.co/vQlDQ25h63 #android,#androidgames,#gameinsight'
p2
sS'Created At'
p3
S'2015-11-28 22:07:00'
p4
s.(dp0
S'Text'
p1
S"I've finished the Visit Baron de Albert's castle quest! Are you able to fulfil the same task? https://t.co/9CXDUU6cDq #android,#androi..."
p2
sS'Created At'
p3
S'2015-11-28 22:07:01'
p4
s.(dp0
S'Text'
p1
S'RT @Brianna5mith: Instagram adding multi-account support to Android app https://t.co/3E4Fv3H2lu #socialmedia'
p2
sS'Created At'
p3
S'2015-11-28 22:07:01'
p4
s.(dp0
S'Text'
p1
S"I've finished the Renowned Chef quest! Are you able to fulfil the same task? https://t.co/bsxk2yZiRB #android,#androidgames,#gameinsight"
p2
sS'Created At'
p3
S'2015-11-28 22:07:02'
p4
s.(dp0
S'Text'
p1
S'New Android in the world of global sourcing https://t.co/fMFysju12s #android #androidgames #app'
p2
sS'Created At'
p3
S'2015-11-28 22:07:02'
p4
s.(dp0
S'Text'
p1
S"I'm earning #mPLUSRewards in Tap Da Cookie Android. https://t.co/SZPkT3YVdY"
p2
sS'Created At'
p3
S'2015-11-28 22:07:03'
p4
s.(dp0
S'Text'
p1
S'RT @icasnetwork2015: https://t.co/Ax1VqJuDEr Android M Coming soon - ICas @icasnetwork2015'
p2
sS'Created At'
p3
S'2015-11-28 22:07:03'
p4
s.(dp0
S'Text'
p1
S'Android App Development: Avail Maximum Benefits By Creating An App https://t.co/fJ0Unvammf'
p2
sS'Created At'
p3
S'2015-11-28 22:07:03'
p4
s.(dp0
S'Text'
p1
S'Android App Development: Avail Maximum Benefits By Creating An App https://t.co/7k3zXppvkz'
p2
sS'Created At'
p3
S'2015-11-28 22:07:04'
p4
s.(dp0
S'Text'
p1
S'Enter to Win "The Great Android Holiday Giveaway" from https://t.co/e0G9ZN4T94 https://t.co/uRHDtpoDMH ,  Over 25 #Android Prizes to be Won!'
p2
sS'Created At'
p3
S'2015-11-28 22:07:05'
p4
s.(dp0
S'Text'
p1
S"I've collected 22,500 gold coins!  https://t.co/iYEL7SIs50 #android, #androidgames, #gameinsight"
p2
sS'Created At'
p3
S'2015-11-28 22:07:06'
p4
s.(dp0
S'Text'
p1
S'Android App Development: Avail Maximum Benefits By Creating An App https://t.co/H0B3AVOdSk'
p2
sS'Created At'
p3
S'2015-11-28 22:07:06'
p4
s.(dp0
S'Text'
p1
S'Android App Development: Avail Maximum Benefits By Creating An App https://t.co/AWd4Bsy0jC'
p2
sS'Created At'
p3
S'2015-11-28 22:07:06'
p4
s.(dp0
S'Text'
p1
S'Android App Development: Avail Maximum Benefits By Creating An App https://t.co/C0yr7wiL5X'
p2
sS'Created At'
p3
S'2015-11-28 22:07:06'
p4
s.(dp0
S'Text'
p1
S'Android App Development: Avail Maximum Benefits By Creating An App https://t.co/NfDmUWd2R0'
p2
sS'Created At'
p3
S'2015-11-28 22:07:06'
p4
s.(dp0
S'Text'
p1
S'@RonFriesen2  Hello, download android application for recipes #AllRecipes - https://t.co/15Y8zty4hm'
p2
sS'Created At'
p3
S'2015-11-28 22:07:07'
p4
s.(dp0
S'Text'
p1
S'Android App Development: Avail Maximum Benefits By Creating An App https://t.co/w0sOp9vgdD'
p2
sS'Created At'
p3
S'2015-11-28 22:07:07'
p4
s.(dp0
S'Text'
p1
S'RT @PixelProspector: Which iOS/Android Games do you recommend?\n&gt;post them with screenshot so everyone who is looking for good games can dis\xe2\x80\xa6'
p2
sS'Created At'
p3
S'2015-11-28 22:07:08'
p4
s.(dp0
S'Text'
p1
S"I've harvested 1,340 of food!  https://t.co/KNuFSQbQGi #android, #androidgames, #gameinsight"
p2
sS'Created At'
p3
S'2015-11-28 22:07:08'
p4
s.(dp0
S'Text'
p1
S'@KNOTtheEND  Hello, download android application for recipes #AllRecipes - https://t.co/15Y8zty4hm'
p2
sS'Created At'
p3
S'2015-11-28 22:07:08'
p4
s.(dp0
S'Text'
p1
S'Android App Development: Avail Maximum Benefits By Creating An App https://t.co/6fJK654Qij'
p2
sS'Created At'
p3
S'2015-11-28 22:07:08'
p4
s.(dp0
S'Text'
p1
S'@UKBuy_Sell_Free  Hello, download android application for recipes #AllRecipes - https://t.co/15Y8zty4hm'
p2
sS'Created At'
p3
S'2015-11-28 22:07:09'
p4
s.(dp0
S'Text'
p1
S'Jay Wud - Low\nNow Playing on #WhiteCubeRadio available on iPhone and Android'
p2
sS'Created At'
p3
S'2015-11-28 22:07:09'
p4
s.(dp0
S'Text'
p1
S'@ghostcatbce  Hello, download android application for recipes #AllRecipes - https://t.co/15Y8zty4hm'
p2
sS'Created At'
p3
S'2015-11-28 22:07:10'
p4
s.(dp0
S'Text'
p1
S"I've collected 37,272 gold coins!  https://t.co/oEITS77Gf0 #android, #androidgames, #gameinsight"
p2
sS'Created At'
p3
S'2015-11-28 22:07:10'
p4
s.(dp0
S'Text'
p1
S'@justburko only on android/PC. google Mobdro apk'
p2
sS'Created At'
p3
S'2015-11-28 22:07:10'
p4
s.(dp0
S'Text'
p1
S'Android App Development: Avail Maximum Benefits By Creating An App https://t.co/Q8YZ2naotk'
p2
sS'Created At'
p3
S'2015-11-28 22:07:10'
p4
s.(dp0
S'Text'
p1
S'@akm301282 Not in English but better than nowt. https://t.co/qJRwo7iBuz'
p2
sS'Created At'
p3
S'2015-11-28 22:07:10'
p4
s.(dp0
S'Text'
p1
S"I've collected 22,044 gold coins!  https://t.co/x9iiv36NGU #android, #androidgames, #gameinsight"
p2
sS'Created At'
p3
S'2015-11-28 22:07:10'
p4
s.(dp0
S'Text'
p1
S"I've harvested 1,128 of food!  https://t.co/x9iiv36NGU #android, #androidgames, #gameinsight"
p2
sS'Created At'
p3
S'2015-11-28 22:07:10'
p4
s.(dp0
S'Text'
p1
S'Check out the "Ultimate Holiday Tech Gift Guide 2015 \xe2\x80\x93 2016" Tons of #android and tech gift Ideas https://t.co/8S7G7bzaCd #christmas #xmas'
p2
sS'Created At'
p3
S'2015-11-28 22:07:10'
p4
s.(dp0
S'Text'
p1
S'@UKBuy_Sell_Free  Download AllRecipes android application for thousands of recipes. - https://t.co/15Y8zty4hm'
p2
sS'Created At'
p3
S'2015-11-28 22:07:10'
p4
s.(dp0
S'Text'
p1
S'I have Shaman Shop on my island! Now my island is even more awesome!  https://t.co/EpWTjJjrld #android, #androidgames, #gameinsight'
p2
sS'Created At'
p3
S'2015-11-28 22:07:10'
p4
s.(dp0
S'Text'
p1
S'\xf0\x9f\x91\x8d#SmartWatches Top New U8 #Bluetooth Smart Wrist Watch Phone Mate For #Android #SmartWatch\xe2\x80\xa6 https://t.co/ADAOikXQij https://t.co/t21GerLPt9'
p2
sS'Created At'
p3
S'2015-11-28 22:07:10'
p4
s.(dp0
S'Text'
p1
S'Android App Development: Avail Maximum Benefits By Creating An App https://t.co/PtjfEeA7Y2'
p2
sS'Created At'
p3
S'2015-11-28 22:07:11'
p4
s.(dp0
S'Text'
p1
S'@otarka1  Download AllRecipes android application for thousands of recipes. - https://t.co/15Y8zty4hm'
p2
sS'Created At'
p3
S'2015-11-28 22:07:11'
p4
s.(dp0
S'Text'
p1
S"I got a new Human Bulldozer achievement in Maritime Kingdom! I've got gifts for all! https://t.co/lXfYLsMLfT #Android #gameinsight"
p2
sS'Created At'
p3
S'2015-11-28 22:07:12'
p4
s.(dp0
S'Text'
p1
S'@9healthbenefits  Hello, download android application for recipes #AllRecipes - https://t.co/15Y8zty4hm'
p2
sS'Created At'
p3
S'2015-11-28 22:07:12'
p4
s.(dp0
S'Text'
p1
S"I've collected 2,014 gold coins!  https://t.co/968rVNn2lv #android, #androidgames, #gameinsight"
p2
sS'Created At'
p3
S'2015-11-28 22:07:12'
p4
s.(dp0
S'Text'
p1
S"I have completed the quest 'Coffee Tree.' in the #Android game The Tribez.  https://t.co/t1gwc9ynqR #androidgames, #gameinsight"
p2
sS'Created At'
p3
S'2015-11-28 22:07:12'
p4
s.(dp0
S'Text'
p1
S'Android App Development: Avail Maximum Benefits By Creating An App https://t.co/8OiMumu2jc'
p2
sS'Created At'
p3
S'2015-11-28 22:07:13'
p4
s.(dp0
S'Text'
p1
S'@RedditNutrition  Download AllRecipes android application for thousands of recipes. - https://t.co/15Y8zty4hm'
p2
sS'Created At'
p3
S'2015-11-28 22:07:13'
p4
s.(dp0
S'Text'
p1
S"I've harvested 56 of food!  https://t.co/968rVNn2lv #android, #androidgames, #gameinsight"
p2
sS'Created At'
p3
S'2015-11-28 22:07:13'
p4
s.(dp0
S'Text'
p1
S"I've collected 31,905 gold coins!  https://t.co/6OSMOQTYWJ #android, #androidgames, #gameinsight"
p2
sS'Created At'
p3
S'2015-11-28 22:07:13'
p4
s.(dp0
S'Text'
p1
S'Castle of Kings has been explored. Are you able to reach it too? https://t.co/t4DlRAjakh #android,#androidgames,#gameinsight'
p2
sS'Created At'
p3
S'2015-11-28 22:07:13'
p4
s.(dp0
S'Text'
p1
S'@PoliticalBee  Download AllRecipes android application for thousands of recipes. - https://t.co/15Y8zty4hm'
p2
sS'Created At'
p3
S'2015-11-28 22:07:14'
p4
s.(dp0
S'Text'
p1
S'I have Altar of Feelings on my island! Now my island is even more awesome!  https://t.co/I89Djzx0EP #android, #androidgames, #gameinsight'
p2
sS'Created At'
p3
S'2015-11-28 22:07:14'
p4
s.(dp0
S'Text'
p1
S"I've harvested 2,320 of food!  https://t.co/bckrMbRJBy #android, #androidgames, #gameinsight"
p2
sS'Created At'
p3
S'2015-11-28 22:07:14'
p4
s.(dp0
S'Text'
p1
S"I've collected 55,320 gold coins!  https://t.co/x366uRhAXS #android, #androidgames, #gameinsight"
p2
sS'Created At'
p3
S'2015-11-28 22:07:15'
p4
s.(dp0
S'Text'
p1
S"listen now :  Tassel &amp; Naturel I Don't Know Why  on ZEN FOR YOU RADIO\nFREE APP IPHONE / ANDROID\nhttps://t.co/tqcO4JxpNp"
p2
sS'Created At'
p3
S'2015-11-28 22:07:15'
p4
s.(dp0
S'Text'
p1
S"I've finished the Begin the Assault! quest! Are you able to fulfil the same task? https://t.co/OMQuxVBelL #android,#androidgames,#game..."
p2
sS'Created At'
p3
S'2015-11-28 22:07:15'
p4
s.(dp0
S'Text'
p1
S"I've finished the Visit Baron de Albert's castle quest! Are you able to fulfil the same task? https://t.co/SQdHS49q4x #android,#androi..."
p2
sS'Created At'
p3
S'2015-11-28 22:07:15'
p4
s.(dp0
S'Text'
p1
S'@PuppyRetweet  Hello, download android application for recipes #AllRecipes - https://t.co/15Y8zty4hm'
p2
sS'Created At'
p3
S'2015-11-28 22:07:16'
p4
s.(dp0
S'Text'
p1
S"I've collected 29,424 gold coins!  https://t.co/eBfek2ousj #android, #androidgames, #gameinsight"
p2
sS'Created At'
p3
S'2015-11-28 22:07:16'
p4
s.(dp0
S'Text'
p1
S'GravityBox [LP] 5.3.3 #Msi8Store #android #app available at https://t.co/zlgTeoo1fP  repository. https://t.co/4dw7XAUaOS'
p2
sS'Created At'
p3
S'2015-11-28 22:07:16'
p4
s.(dp0
S'Text'
p1
S'@AlexCortrightRD  Hello, download android application for recipes #AllRecipes - https://t.co/15Y8zty4hm'
p2
sS'Created At'
p3
S'2015-11-28 22:07:17'
p4
s.(dp0
S'Text'
p1
S'RT @NothingButPlays: *Klitschko vs Fury*\n\nThe main event starts at 21:45.\n\nWe will tweet the iOS/Android/PC compatible stream 15-30 mins be\xe2\x80\xa6'
p2
sS'Created At'
p3
S'2015-11-28 22:07:17'
p4
s.(dp0
S'Text'
p1
S'@SpiralCoop  Download AllRecipes android application for thousands of recipes. - https://t.co/15Y8zty4hm'
p2
sS'Created At'
p3
S'2015-11-28 22:07:17'
p4
s.(dp0
S'Text'
p1
S'@hanagrayx Pigeons problems ? Install "Anti Pigeons PRO" FREE App Android \nhttps://t.co/sxihDBLxKL'
p2
sS'Created At'
p3
S'2015-11-28 22:07:18'
p4
s.(dp0
S'Text'
p1
S'I added a video to a @YouTube playlist https://t.co/qkCdHIszlf Injustice Gods Among Us (iOS/Android) OPENING MOST WANTED PACKS part 2'
p2
sS'Created At'
p3
S'2015-11-28 22:07:18'
p4
s.(dp0
S'Text'
p1
S"I've harvested 757 of food!  https://t.co/bm7WKmo0Zi #android, #androidgames, #gameinsight"
p2
sS'Created At'
p3
S'2015-11-28 22:07:18'
p4
s.(dp0
S'Text'
p1
S'@Cody6860  Hello, download android application for recipes #AllRecipes - https://t.co/15Y8zty4hm'
p2
sS'Created At'
p3
S'2015-11-28 22:07:18'
p4
s.(dp0
S'Text'
p1
S"I've collected 752 gold coins!  https://t.co/4Uq1WQHAAp #android, #androidgames, #gameinsight"
p2
sS'Created At'
p3
S'2015-11-28 22:07:18'
p4
s.(dp0
S'Text'
p1
S"I've harvested 290 of food!  https://t.co/4Uq1WQHAAp #android, #androidgames, #gameinsight"
p2
sS'Created At'
p3
S'2015-11-28 22:07:18'
p4
s.(dp0
S'Text'
p1
S"I've collected 1,645 gold coins!  https://t.co/bm7WKmo0Zi #android, #androidgames, #gameinsight"
p2
sS'Created At'
p3
S'2015-11-28 22:07:18'
p4
s.(dp0
S'Text'
p1
S'"I made a website for android games with no microtranscations, and other filters" https://t.co/EoVPoRnn01'
p2
sS'Created At'
p3
S'2015-11-28 22:07:18'
p4
s.(dp0
S'Text'
p1
S"I have completed the quest 'Build an Altar o...' in the #Android game The Tribez.  https://t.co/I89Djzx0EP #androidgames, #gameinsight"
p2
sS'Created At'
p3
S'2015-11-28 22:07:18'
p4
s.(dp0
S'Text'
p1
S'Android App Development: Avail Maximum Benefits By Creating An App https://t.co/au3HsNlbrW'
p2
sS'Created At'
p3
S'2015-11-28 22:07:19'
p4
s.(dp0
S'Text'
p1
S'@DukeUniversity1  Download AllRecipes android application for thousands of recipes. - https://t.co/15Y8zty4hm'
p2
sS'Created At'
p3
S'2015-11-28 22:07:19'
p4
s.(dp0
S'Text'
p1
S'Rebellion (The Clans Are Marching) #Grave Digger #metal Download Android RnRPlayer &amp; Free Listen us.!... https://t.co/ofo1eJJZuw'
p2
sS'Created At'
p3
S'2015-11-28 22:07:19'
p4
s.(dp0
S'Text'
p1
S"I have completed the quest 'Altar of Love' in the #Android game The Tribez.  https://t.co/I89Djzx0EP #androidgames, #gameinsight"
p2
sS'Created At'
p3
S'2015-11-28 22:07:19'
p4
s.(dp0
S'Text'
p1
S'RT @maus10102: Apple vs. Android \nRT : Apple \nFAV : Android https://t.co/ZYGjh7opDD'
p2
sS'Created At'
p3
S'2015-11-28 22:07:20'
p4
s.(dp0
S'Text'
p1
S'@Mom_Eats  Hello, download android application for recipes #AllRecipes - https://t.co/15Y8ztPF8U'
p2
sS'Created At'
p3
S'2015-11-28 22:07:20'
p4
s.(dp0
S'Text'
p1
S'Android App Development: Avail Maximum Benefits By Creating An App https://t.co/xKoUAsxa8s'
p2
sS'Created At'
p3
S'2015-11-28 22:07:20'
p4
s.(dp0
S'Text'
p1
S'@Twist3d89 @Phisix07 @TeunStrik did you find it out in the android app you ported? sorry just curious, I "had" a really raw c# knowledge :P'
p2
sS'Created At'
p3
S'2015-11-28 22:07:21'
p4
s.(dp0
S'Text'
p1
S'@Cking2015C  Hello, download android application for recipes #AllRecipes - https://t.co/15Y8zty4hm'
p2
sS'Created At'
p3
S'2015-11-28 22:07:21'
p4
s.(dp0
S'Text'
p1
S"I've collected 955 gold coins!  https://t.co/I9pCJvREcm #android, #androidgames, #gameinsight"
p2
sS'Created At'
p3
S'2015-11-28 22:07:21'
p4
s.(dp0
S'Text'
p1
S"I've collected 52,280 gold coins!  https://t.co/gRKEQqB7MZ #android, #androidgames, #gameinsight"
p2
sS'Created At'
p3
S'2015-11-28 22:07:21'
p4
s.(dp0
S'Text'
p1
S'Android App Development: Avail Maximum Benefits By Creating An App https://t.co/IzE4tmjhlx'
p2
sS'Created At'
p3
S'2015-11-28 22:07:22'
p4
s.(dp0
S'Text'
p1
S'@CamsAvocado  Download AllRecipes android application for thousands of recipes. - https://t.co/15Y8zty4hm'
p2
sS'Created At'
p3
S'2015-11-28 22:07:22'
p4
s.(dp0
S'Text'
p1
S"I've harvested 1,117 of food!  https://t.co/gFO2qYpJLJ #android, #androidgames, #gameinsight"
p2
sS'Created At'
p3
S'2015-11-28 22:07:22'
p4
s.(dp0
S'Text'
p1
S'Android App Development: Avail Maximum Benefits By Creating An App https://t.co/vbbTq1vFX7'
p2
sS'Created At'
p3
S'2015-11-28 22:07:22'
p4
s.(dp0
S'Text'
p1
S'Android App Development: Avail Maximum Benefits By Creating An App https://t.co/qd7GZW4cVm'
p2
sS'Created At'
p3
S'2015-11-28 22:07:22'
p4
s.(dp0
S'Text'
p1
S'@recipes4cuisine  Hello, download android application for recipes #AllRecipes - https://t.co/15Y8zty4hm'
p2
sS'Created At'
p3
S'2015-11-28 22:07:22'
p4
s.(dp0
S'Text'
p1
S"I've harvested 570 of food!  https://t.co/roIA6aD43J #android, #androidgames, #gameinsight"
p2
sS'Created At'
p3
S'2015-11-28 22:07:23'
p4
s.(dp0
S'Text'
p1
S"I've collected 17,525 gold coins!  https://t.co/1yRaOMnK1V #android, #androidgames, #gameinsight"
p2
sS'Created At'
p3
S'2015-11-28 22:07:23'
p4
s.(dp0
S'Text'
p1
S"I've collected 16,640 gold coins!  https://t.co/XB3ItQG15J #android, #androidgames, #gameinsight"
p2
sS'Created At'
p3
S'2015-11-28 22:07:23'
p4
s.(dp0
S'Text'
p1
S'@List_Free_Ads  Hello, download android application for recipes #AllRecipes - https://t.co/15Y8zty4hm'
p2
sS'Created At'
p3
S'2015-11-28 22:07:23'
p4
s.(dp0
S'Text'
p1
S"I've collected 1,406 gold coins!  https://t.co/roIA6aD43J #android, #androidgames, #gameinsight"
p2
sS'Created At'
p3
S'2015-11-28 22:07:23'
p4
s.(dp0
S'Text'
p1
S"I've harvested 676 of food!  https://t.co/StILpfjldG #android, #androidgames, #gameinsight"
p2
sS'Created At'
p3
S'2015-11-28 22:07:23'
p4
s.(dp0
S'Text'
p1
S'I have gained level 9 in The Tribez and Castlez! Can you achieve it as well? https://t.co/jG47R4ypsM #android,#androidgames,#gameinsight'
p2
sS'Created At'
p3
S'2015-11-28 22:07:23'
p4
s.(dp0
S'Text'
p1
S'Android App Development: Avail Maximum Benefits By Creating An App https://t.co/J63uh2dOLt'
p2
sS'Created At'
p3
S'2015-11-28 22:07:24'
p4
s.(dp0
S'Text'
p1
S'@List_Free_Ads  Download AllRecipes android application for thousands of recipes. - https://t.co/15Y8zty4hm'
p2
sS'Created At'
p3
S'2015-11-28 22:07:24'
p4
s.(dp0
S'Text'
p1
S'Castle Dungeon has been explored. Are you able to reach it too? https://t.co/4s3HH11kTH #android,#androidgames,#gameinsight'
p2
sS'Created At'
p3
S'2015-11-28 22:07:24'
p4
s.(dp0
S'Text'
p1
S'@SIDRV  Download AllRecipes android application for thousands of recipes. - https://t.co/15Y8zty4hm'
p2
sS'Created At'
p3
S'2015-11-28 22:07:25'
p4
s.(dp0
S'Text'
p1
S"I've collected 11,460 gold coins!  https://t.co/njd5jj1ZW0 #android, #androidgames, #gameinsight"
p2
sS'Created At'
p3
S'2015-11-28 22:07:25'
p4
s.(dp0
S'Text'
p1
S'@BlueSpiro  Hello, download android application for recipes #AllRecipes - https://t.co/15Y8zty4hm'
p2
sS'Created At'
p3
S'2015-11-28 22:07:26'
p4
s.(dp0
S'Text'
p1
S'RT @ProtecDirect: #Competition - RT &amp; Follow for chance to win a 7" Android Quad Core Processor Tablet! Ends 30.11.15. #Giveaway #Win https\xe2\x80\xa6'
p2
sS'Created At'
p3
S'2015-11-28 22:07:26'
p4
s.(dp0
S'Text'
p1
S"I've finished the Comfortable Living quest! Are you able to fulfil the same task? https://t.co/Sl1TCVUQ7z #android,#androidgames,#game..."
p2
sS'Created At'
p3
S'2015-11-28 22:07:26'
p4
s.(dp0
S'Text'
p1
S'@prxncer_c @FemaleTIB Pigeons problems ? Install "Anti Pigeons PRO" FREE App Android \nhttps://t.co/sxihDBLxKL'
p2
sS'Created At'
p3
S'2015-11-28 22:07:26'
p4
s.(dp0
S'Text'
p1
S'@kelly_stones  Download AllRecipes android application for thousands of recipes. - https://t.co/15Y8zty4hm'
p2
sS'Created At'
p3
S'2015-11-28 22:07:26'
p4
s.(dp0
S'Text'
p1
S'Android App Development: Avail Maximum Benefits By Creating An App https://t.co/66Z9xFqQbP'
p2
sS'Created At'
p3
S'2015-11-28 22:07:27'
p4
s.(dp0
S'Text'
p1
S"I've finished the Comfortable Living quest! Are you able to fulfil the same task? https://t.co/aKELi6pZuy #android,#androidgames,#game..."
p2
sS'Created At'
p3
S'2015-11-28 22:07:27'
p4
s.(dp0
S'Text'
p1
S"RT @MARJBARS: I just wanted to show my highlight but terrible lighting and Android camera won't ever help https://t.co/p2IMekDsv2"
p2
sS'Created At'
p3
S'2015-11-28 22:07:27'
p4
s.(dp0
S'Text'
p1
S"I've collected 1,469,435 gold coins!  https://t.co/k2d30pv4Gx #android, #androidgames, #gameinsight"
p2
sS'Created At'
p3
S'2015-11-28 22:07:27'
p4
s.(dp0
S'Text'
p1
S'@kincommunity  Download AllRecipes android application for thousands of recipes. - https://t.co/15Y8zty4hm'
p2
sS'Created At'
p3
S'2015-11-28 22:07:29'
p4
s.(dp0
S'Text'
p1
S'Play #Android #Apps on PC/MAC/TV using #BlueStacks. Play Bigger! https://t.co/9OAtR5KNqG'
p2
sS'Created At'
p3
S'2015-11-28 22:07:29'
p4
s.(dp0
S'Text'
p1
S"I've collected 18,455 gold coins!  https://t.co/ikaq89sLFy #android, #androidgames, #gameinsight"
p2
sS'Created At'
p3
S'2015-11-28 22:07:30'
p4
s.(dp0
S'Text'
p1
S"I've collected 24,560 gold coins!  https://t.co/eBfek2ousj #android, #androidgames, #gameinsight"
p2
sS'Created At'
p3
S'2015-11-28 22:07:30'
p4
s.(dp0
S'Text'
p1
S'@thehoist6 Not English but better than nowt. https://t.co/qJRwo7iBuz'
p2
sS'Created At'
p3
S'2015-11-28 22:07:30'
p4
s.(dp0
S'Text'
p1
S"I've harvested 1,031 of food!  https://t.co/ikaq89sLFy #android, #androidgames, #gameinsight"
p2
sS'Created At'
p3
S'2015-11-28 22:07:30'
p4
s.(dp0
S'Text'
p1
S"I've collected 159,382 gold coins!  https://t.co/vqvYP8XjYw #android, #androidgames, #gameinsight"
p2
sS'Created At'
p3
S'2015-11-28 22:07:30'
p4
s.(dp0
S'Text'
p1
S"I've collected 14,892 gold coins!  https://t.co/uyyQXQgpOJ #android, #androidgames, #gameinsight"
p2
sS'Created At'
p3
S'2015-11-28 22:07:31'
p4
s.(dp0
S'Text'
p1
S"I'm earning #mPLUSRewards in Cut Da Deck Android. https://t.co/JC7NFyPidp"
p2
sS'Created At'
p3
S'2015-11-28 22:07:31'
p4
s.(dp0
S'Text'
p1
S'Enter to Win "The Great Android Holiday Giveaway" from https://t.co/jWooOOlqLe https://t.co/TfAilx3stB ,  Over 25 #Android Prizes to be Won!'
p2
sS'Created At'
p3
S'2015-11-28 22:07:32'
p4
s.(dp0
S'Text'
p1
S'Check out the "Ultimate Holiday Tech Gift Guide 2015 \xe2\x80\x93 2016" Tons of #android and tech gift Ideas https://t.co/ubraS2dz6A #christmas #xmas'
p2
sS'Created At'
p3
S'2015-11-28 22:07:32'
p4
s.(dp0
S'Text'
p1
S"I've collected 76,966 gold coins!  https://t.co/0hDELTLyB6 #android, #androidgames, #gameinsight"
p2
sS'Created At'
p3
S'2015-11-28 22:07:33'
p4
s.(dp0
S'Text'
p1
S"I've harvested 1,255 of food!  https://t.co/0hDELTLyB6 #android, #androidgames, #gameinsight"
p2
sS'Created At'
p3
S'2015-11-28 22:07:34'
p4
s.(dp0
S'Text'
p1
S"I've collected 10,240 gold coins!  https://t.co/x366uRhAXS #android, #androidgames, #gameinsight"
p2
sS'Created At'
p3
S'2015-11-28 22:07:34'
p4
s.(dp0
S'Text'
p1
S"I've harvested 1,181 of food!  https://t.co/pGIPeFdkgi #android, #androidgames, #gameinsight"
p2
sS'Created At'
p3
S'2015-11-28 22:07:34'
p4
s.(dp0
S'Text'
p1
S"I've completed Scent of a Woman quest in Airport City!\nhttps://t.co/QzzMXsecSP #android #androidgames #gameinsight"
p2
sS'Created At'
p3
S'2015-11-28 22:07:34'
p4
s.(dp0
S'Text'
p1
S'I have Patch on my island! Now my island is even more awesome!  https://t.co/eInmvES26f #android, #androidgames, #gameinsight'
p2
sS'Created At'
p3
S'2015-11-28 22:07:35'
p4
s.(dp0
S'Text'
p1
S'Get #WildWallet on Android - https://t.co/A11lj095F7 to earn amazing rewards for trying free apps. Use code 2335046 for 200 Bonus Credits!'
p2
sS'Created At'
p3
S'2015-11-28 22:07:35'
p4
s.(dp0
S'Text'
p1
S"I've collected 83,485 gold coins!  https://t.co/FV4p5bxqUF #android, #androidgames, #gameinsight"
p2
sS'Created At'
p3
S'2015-11-28 22:07:36'
p4
s.(dp0
S'Text'
p1
S'RT @icasnetwork2015: https://t.co/Ax1VqJuDEr Android M Coming soon - ICas @icasnetwork2015'
p2
sS'Created At'
p3
S'2015-11-28 22:07:36'
p4
s.(dp0
S'Text'
p1
S"I've finished the Send 10 invitations quest! Are you able to fulfil the same task? https://t.co/L7grUkzw68 #android,#androidgames,#gam..."
p2
sS'Created At'
p3
S'2015-11-28 22:07:36'
p4
s.(dp0
S'Text'
p1
S'I have discovered a new territory in The Tribez! https://t.co/m18UuLYZHU  #android, #androidgames, #gameinsight'
p2
sS'Created At'
p3
S'2015-11-28 22:07:36'
p4
s.(dp0
S'Text'
p1
S'RT @rohit_dangar: China, France say climate pact should ha https://t.co/KUcRYRQMsK #uncategorized #Trending #News #Startups #HowTo #DIY #An\xe2\x80\xa6'
p2
sS'Created At'
p3
S'2015-11-28 22:07:37'
p4
s.(dp0
S'Text'
p1
S'RT @SportDictator: Klitschko vs Fury \n\nCOMPATIBLE ON iOS/Android/PC\n\nBrought to you by @NothingButPlays \n\nhttps://t.co/RxZBtamzp8\n\nRT &amp; SHA\xe2\x80\xa6'
p2
sS'Created At'
p3
S'2015-11-28 22:07:37'
p4
s.(dp0
S'Text'
p1
S'I have Defensive Tower on my island! Now my island is even more awesome!  https://t.co/yG0FDzHGEh #android, #androidgames, #gameinsight'
p2
sS'Created At'
p3
S'2015-11-28 22:07:38'
p4
s.(dp0
S'Text'
p1
S"I've finished the Collect and Rule quest! Are you able to fulfil the same task? https://t.co/oj8gAXpdcA #android,#androidgames,#gamein..."
p2
sS'Created At'
p3
S'2015-11-28 22:07:38'
p4
s.(dp0
S'Text'
p1
S"I've collected 13,174 gold coins!  https://t.co/WY7OQIYupl #android, #androidgames, #gameinsight"
p2
sS'Created At'
p3
S'2015-11-28 22:07:39'
p4
s.(dp0
S'Text'
p1
S"I've collected 15,974 gold coins!  https://t.co/uIyaWPUbl0 #android, #androidgames, #gameinsight"
p2
sS'Created At'
p3
S'2015-11-28 22:07:39'
p4
s.(dp0
S'Text'
p1
S'A famous Silicon Valley investor has launched a new UK vent https://t.co/0X9vPtX0pj #apps #News #Startups #HowTo #DIY #Android #HowTo #Apps'
p2
sS'Created At'
p3
S'2015-11-28 22:07:41'
p4
s.(dp0
S'Text'
p1
S"I've collected 283,565 gold coins!  https://t.co/Xahh8RKZ6U #android, #androidgames, #gameinsight"
p2
sS'Created At'
p3
S'2015-11-28 22:07:42'
p4
s.(dp0
S'Text'
p1
S"I've completed The History Lesson quest in Airport City!\nhttps://t.co/uhC2ZLmQqb #android #androidgames #gameinsight"
p2
sS'Created At'
p3
S'2015-11-28 22:07:42'
p4
s.(dp0
S'Text'
p1
S"I've collected 8,231 gold coins!  https://t.co/L8u0jXeC3M #android, #androidgames, #gameinsight"
p2
sS'Created At'
p3
S'2015-11-28 22:07:43'
p4
s.(dp0
S'Text'
p1
S"I've completed Heart of a Perfume quest in Airport City!\nhttps://t.co/QzzMXsecSP #android #androidgames #gameinsight"
p2
sS'Created At'
p3
S'2015-11-28 22:07:43'
p4
s.(dp0
S'Text'
p1
S"I've collected 13,764 gold coins!  https://t.co/QIbyIQ5UDp #android, #androidgames, #gameinsight"
p2
sS'Created At'
p3
S'2015-11-28 22:07:43'
p4
s.(dp0
S'Text'
p1
S"This Theory Will Totally Change How You See 'Elf' https://t.co/1dFqO3jHal #gameinsight, #android, #androidgames, #ipad, #ipadgames, #openf\xe2\x80\xa6"
p2
sS'Created At'
p3
S'2015-11-28 22:07:43'
p4
s.(dp0
S'Text'
p1
S"I've met Professor Klandau in my Airport City!\nhttps://t.co/uhC2ZLmQqb #android #androidgames #gameinsight"
p2
sS'Created At'
p3
S'2015-11-28 22:07:44'
p4
s.(dp0
S'Text'
p1
S"I've collected 10,156 gold coins!  https://t.co/NVARyMBmI8 #android, #androidgames, #gameinsight"
p2
sS'Created At'
p3
S'2015-11-28 22:07:45'
p4
s.(dp0
S'Text'
p1
S"I've harvested 1,275 of food!  https://t.co/D8n2LdFJVB #android, #androidgames, #gameinsight"
p2
sS'Created At'
p3
S'2015-11-28 22:07:45'
p4
s.(dp0
S'Text'
p1
S'Enter to Win a Google Nexus 6P Android Smartphone @Androidheadline #android #nexus #nexus6p https://t.co/uL6SlJyQr8'
p2
sS'Created At'
p3
S'2015-11-28 22:07:45'
p4
s.(dp0
S'Text'
p1
S"I've collected 11,015 gold coins!  https://t.co/MfIsjRD1sg #android, #androidgames, #gameinsight"
p2
sS'Created At'
p3
S'2015-11-28 22:07:46'
p4
s.(dp0
S'Text'
p1
S'Free Download APK Android Free Download Full APK Android Snowboard Party\xc2\xa0| Only best... https://t.co/Idz9UO9uUT https://t.co/Vy9PMbJuOu'
p2
sS'Created At'
p3
S'2015-11-28 22:07:46'
p4
s.(dp0
S'Text'
p1
S"I've collected 81,335 gold coins!  https://t.co/oEITS77Gf0 #android, #androidgames, #gameinsight"
p2
sS'Created At'
p3
S'2015-11-28 22:07:47'
p4
s.(dp0
S'Text'
p1
S"I've harvested 1,235 of food!  https://t.co/p7QRqEevzP #android, #androidgames, #gameinsight"
p2
sS'Created At'
p3
S'2015-11-28 22:07:47'
p4
s.(dp0
S'Text'
p1
S"I've completed A Sweet Fruit quest in Airport City!\nhttps://t.co/QzzMXsecSP #android #androidgames #gameinsight"
p2
sS'Created At'
p3
S'2015-11-28 22:07:47'
p4
s.(dp0
S'Text'
p1
S"I've collected 1,470 gold coins!  https://t.co/il9EL4vX2w #android, #androidgames, #gameinsight"
p2
sS'Created At'
p3
S'2015-11-28 22:07:47'
p4
s.(dp0
S'Text'
p1
S"I've harvested 80 of food!  https://t.co/il9EL4vX2w #android, #androidgames, #gameinsight"
p2
sS'Created At'
p3
S'2015-11-28 22:07:48'
p4
s.(dp0
S'Text'
p1
S"The Kingdom's citizens are happy to have Bakery! Try to build it too! https://t.co/0ZlH0ooA6P #android,#androidgames,#gameinsight"
p2
sS'Created At'
p3
S'2015-11-28 22:07:48'
p4
s.(dp0
S'Text'
p1
S'ZOMBIE AGE 3 - GAME ANDROID: https://t.co/CDleQ1kjB1 via @YouTube'
p2
sS'Created At'
p3
S'2015-11-28 22:07:48'
p4
s.(dp0
S'Text'
p1
S'New eBay Deal! ECOXGEAR ECOXBT Waterproof Floating iPhone/Android Bluetooth Speaker -Black\xe2\x80\xa6 https://t.co/BqU6ftoI2m https://t.co/Ye7WqknD0q'
p2
sS'Created At'
p3
S'2015-11-28 22:07:48'
p4
s.(dp0
S'Text'
p1
S'#How to block calls on your Android phone https://t.co/qkUFaQaNXp'
p2
sS'Created At'
p3
S'2015-11-28 22:07:49'
p4
s.(dp0
S'Text'
p1
S"I've collected 11,925 gold coins!  https://t.co/UrNYTtLH7x #android, #androidgames, #gameinsight"
p2
sS'Created At'
p3
S'2015-11-28 22:07:49'
p4
s.(dp0
S'Text'
p1
S'@CarterMorgan93 Got it on me android box me fella'
p2
sS'Created At'
p3
S'2015-11-28 22:07:50'
p4
s.(dp0
S'Text'
p1
S'Play #Android #Apps on PC/MAC/TV using #BlueStacks. Play Bigger! https://t.co/K6VA8laPUU'
p2
sS'Created At'
p3
S'2015-11-28 22:07:50'
p4
s.(dp0
S'Text'
p1
S'Windows ability to run desktop programs has its advantages esp for business/ work use. \nhttps://t.co/2AjcNjpvbH'
p2
sS'Created At'
p3
S'2015-11-28 22:07:51'
p4
s.(dp0
S'Text'
p1
S"I'm earning #mPLUSRewards in Family Feud 2 Android. https://t.co/t030vY3B69"
p2
sS'Created At'
p3
S'2015-11-28 22:07:52'
p4
s.(dp0
S'Text'
p1
S'@DatSukii *Android Studio 2'
p2
sS'Created At'
p3
S'2015-11-28 22:07:52'
p4
s.(dp0
S'Text'
p1
S"RT @immuneApps: There's an almost-perfect HIV prevention pill, but not enou https://t.co/mittDgduH3 #apps #News #Startups #HowTo #DIY #Andr\xe2\x80\xa6"
p2
sS'Created At'
p3
S'2015-11-28 22:07:54'
p4
s.(dp0
S'Text'
p1
S"I've harvested 1,160 of food!  https://t.co/qLoVW6A2ck #android, #androidgames, #gameinsight"
p2
sS'Created At'
p3
S'2015-11-28 22:07:54'
p4
s.(dp0
S'Text'
p1
S'RT @tinatbh: No offense but android snapchats look like photographs from the American civil war'
p2
sS'Created At'
p3
S'2015-11-28 22:07:56'
p4
s.(dp0
S'Text'
p1
S'RT @gerard_mooney: Anyone wana watch the fight heres a link to a stream https://t.co/96GEFc3hYD'
p2
sS'Created At'
p3
S'2015-11-28 22:07:56'
p4
s.(dp0
S'Text'
p1
S"I've harvested 1,160 of food!  https://t.co/6ON5K7X9Rn #android, #androidgames, #gameinsight"
p2
sS'Created At'
p3
S'2015-11-28 22:07:57'
p4
s.(dp0
S'Text'
p1
S'I finished the "Extinguish Fires" task in Big Business Deluxe for Android! https://t.co/MW8PZqyDr4 #Androidgames #Android #Gameinsight'
p2
sS'Created At'
p3
S'2015-11-28 22:07:56'
p4
s.(dp0
S'Text'
p1
S"I've collected 10,130 gold coins!  https://t.co/FV4p5bxqUF #android, #androidgames, #gameinsight"
p2
sS'Created At'
p3
S'2015-11-28 22:07:57'
p4
s.(dp0
S'Text'
p1
S"I've harvested 210 of food!  https://t.co/4VCbA2YgZf #android, #androidgames, #gameinsight"
p2
sS'Created At'
p3
S'2015-11-28 22:07:58'
p4
s.(dp0
S'Text'
p1
S"I've collected 11,396 gold coins!  https://t.co/jufaWGQwKG #android, #androidgames, #gameinsight"
p2
sS'Created At'
p3
S'2015-11-28 22:07:58'
p4
s.(dp0
S'Text'
p1
S"I've collected 420 gold coins!  https://t.co/4VCbA2YgZf #android, #androidgames, #gameinsight"
p2
sS'Created At'
p3
S'2015-11-28 22:07:58'
p4
s.(dp0
S'Text'
p1
S'RT @tinatbh: No offense but android snapchats look like photographs from the American civil war'
p2
sS'Created At'
p3
S'2015-11-28 22:07:59'
p4
s.(dp0
S'Text'
p1
S"I've finished the Send 7 invitations quest! Are you able to fulfil the same task? https://t.co/bsxk2yZiRB #android,#androidgames,#game..."
p2
sS'Created At'
p3
S'2015-11-28 22:07:59'
p4
s.(dp0
S'Text'
p1
S"I've collected 235,340 gold coins!  https://t.co/QIbyIQ5UDp #android, #androidgames, #gameinsight"
p2
sS'Created At'
p3
S'2015-11-28 22:07:59'
p4
s.(dp0
S'Text'
p1
S'Android App Development: Avail Maximum Benefits By Creating An App https://t.co/7wVRzX1KKx'
p2
sS'Created At'
p3
S'2015-11-28 22:08:00'
p4
s.(dp0
S'Text'
p1
S'\xf0\x9f\x8c\x9f\xf0\x9f\x98\x9c FREE #APPLE &amp; #ANDROID APPS! Search For FootyDezigns, Add Your Own Images On Phone/Tablet Cases, Upload Images From Your Camera Roll \xf0\x9f\x98\x9c'
p2
sS'Created At'
p3
S'2015-11-28 22:08:00'
p4
s.(dp0
S'Text'
p1
S"I'm earning #mPLUSRewards in Da Daily Insult Android. https://t.co/XxgBzxqLzX"
p2
sS'Created At'
p3
S'2015-11-28 22:08:01'
p4
s.(dp0
S'Text'
p1
S"I'm earning #mPLUSRewards in Family Feud 2 Android. https://t.co/9wf3r4583k"
p2
sS'Created At'
p3
S'2015-11-28 22:08:01'
p4
s.(dp0
S'Text'
p1
S'#OneClickRoot: How-To Safely #Root #prestigio pap5044duo Running #Android 4.2.1 https://t.co/nibj75gXDR'
p2
sS'Created At'
p3
S'2015-11-28 22:08:02'
p4
s.(dp0
S'Text'
p1
S'#OneClickRoot: How-To Safely #Root #alps imo s50 Running #Android 4.4.2 https://t.co/GoLSOGvRoX'
p2
sS'Created At'
p3
S'2015-11-28 22:08:02'
p4
s.(dp0
S'Text'
p1
S'#OneClickRoot: How-To Safely #Root #acer e310 Running #Android 2.3.5 https://t.co/MUaAtMUXGW'
p2
sS'Created At'
p3
S'2015-11-28 22:08:03'
p4
s.(dp0
S'Text'
p1
S"I've collected 5,340 gold coins!  https://t.co/il9EL4vX2w #android, #androidgames, #gameinsight"
p2
sS'Created At'
p3
S'2015-11-28 22:08:03'
p4
s.(dp0
S'Text'
p1
S'I have Dragos Knight Collection now, and what about you? https://t.co/u3y9JzcGzf #android,#androidgames,#gameinsight'
p2
sS'Created At'
p3
S'2015-11-28 22:08:04'
p4
s.(dp0
S'Text'
p1
S"I've harvested 20 of food!  https://t.co/iYEL7SIs50 #android, #androidgames, #gameinsight"
p2
sS'Created At'
p3
S'2015-11-28 22:08:04'
p4
s.(dp0
S'Text'
p1
S'#iphone #apple Deals https://t.co/V61IsrFntd #4485 Mota G2 Smartwatch Iphone Android Bluetooth Swg2ws Unisex Lite \xe2\x80\xa6 https://t.co/NU4gXubAG0'
p2
sS'Created At'
p3
S'2015-11-28 22:08:04'
p4
s.(dp0
S'Text'
p1
S'FIFA 14 Android - Liverpool VS Manchester City ... https://t.co/kSd3XH4rwB'
p2
sS'Created At'
p3
S'2015-11-28 22:08:05'
p4
s.(dp0
S'Text'
p1
S'#iphone #apple Deals https://t.co/VeFWWfaD29 #6083 Pebble Steel Smart Watch for iPhone and Android Devices - Matte\xe2\x80\xa6 https://t.co/GQdYiomLFL'
p2
sS'Created At'
p3
S'2015-11-28 22:08:05'
p4
s.(dp0
S'Text'
p1
S"I've finished the Pastries to Order quest! Are you able to fulfil the same task? https://t.co/E3q4zdAuor #android,#androidgames,#gamei..."
p2
sS'Created At'
p3
S'2015-11-28 22:08:06'
p4
s.(dp0
S'Text'
p1
S"I've finished the Knight Set quest! Are you able to fulfil the same task? https://t.co/u3y9JzcGzf #android,#androidgames,#gameinsight"
p2
sS'Created At'
p3
S'2015-11-28 22:08:06'
p4
s.(dp0
S'Text'
p1
S"I've finished the KABOOOOOOOOOM!!! quest! Are you able to fulfil the same task? https://t.co/OMQuxVBelL #android,#androidgames,#gamein..."
p2
sS'Created At'
p3
S'2015-11-28 22:08:07'
p4
s.(dp0
S'Text'
p1
S'A new territory is discovered in The Tribez &amp; Castlez! Can you unlock it too? https://t.co/rBS4Ouzbs2 #android,#androidgames,#gameinsight'
p2
sS'Created At'
p3
S'2015-11-28 22:08:07'
p4
s.(dp0
S'Text'
p1
S"I've collected 4,637 gold coins!  https://t.co/FTVU4MH24p #android, #androidgames, #gameinsight"
p2
sS'Created At'
p3
S'2015-11-28 22:08:07'
p4
s.(dp0
S'Text'
p1
S'Android App Development: Avail Maximum Benefits By Creating An App https://t.co/nfpPFwjiXc'
p2
sS'Created At'
p3
S'2015-11-28 22:08:07'
p4
s.(dp0
S'Text'
p1
S"I've collected 118,055 gold coins!  https://t.co/vqvYP8XjYw #android, #androidgames, #gameinsight"
p2
sS'Created At'
p3
S'2015-11-28 22:08:07'
p4
s.(dp0
S'Text'
p1
S"I've collected 12,940 gold coins!  https://t.co/K8mQy2KCht #android, #androidgames, #gameinsight"
p2
sS'Created At'
p3
S'2015-11-28 22:08:07'
p4
s.(dp0
S'Text'
p1
S'I finished the "Extinguish Fires" task in Big Business Deluxe for Android! https://t.co/U3L1FNyKnp #Gameinsight #Androidgames #Android'
p2
sS'Created At'
p3
S'2015-11-28 22:08:07'
p4
s.